(lp0
(lp1
cnumpy.core.multiarray
scalar
p2
(cnumpy
dtype
p3
(S'f8'
p4
I0
I1
tp5
Rp6
(I3
S'<'
p7
NNNI-1
I-1
I0
tp8
bS'\x00\x00\x00\x00\x00\x00\x00\x00'
p9
tp10
Rp11
ag2
(g6
S'\x00\x00\x00\x00\x00\x00\x00\x00'
p12
tp13
Rp14
ag2
(g6
S'\x00\x00\x00\x00\x00\x00\x00\x00'
p15
tp16
Rp17
aa(lp18
cnumpy.core.multiarray
_reconstruct
p19
(cnumpy
ndarray
p20
(I0
tp21
S'b'
p22
tp23
Rp24
(I1
(I1
tp25
g6
I00
S'-\xb2\xf1\xd2Mbp?'
p26
tp27
bag19
(g20
(I0
tp28
g22
tp29
Rp30
(I1
(I1
tp31
g6
I00
S'-\xb2\xf1\xd2Mbp?'
p32
tp33
bag19
(g20
(I0
tp34
g22
tp35
Rp36
(I1
(I1
tp37
g6
I00
S'\x00\x00\x00\x00\x00\x00\x00\x00'
p38
tp39
baa(lp40
g19
(g20
(I0
tp41
g22
tp42
Rp43
(I1
(I1
tp44
g6
I00
S'\x1eCwX|\x0fp?'
p45
tp46
bag19
(g20
(I0
tp47
g22
tp48
Rp49
(I1
(I1
tp50
g6
I00
S'\x1eCwX|\x0fp?'
p51
tp52
bag19
(g20
(I0
tp53
g22
tp54
Rp55
(I1
(I1
tp56
g6
I00
S'\x00\x00\x00\x00\x00\x00\x00\x00'
p57
tp58
baa(lp59
g19
(g20
(I0
tp60
g22
tp61
Rp62
(I1
(I1
tp63
g6
I00
S'(\xc5\x0e`\x16\xfci?'
p64
tp65
bag19
(g20
(I0
tp66
g22
tp67
Rp68
(I1
(I1
tp69
g6
I00
S"'\xc5\x0e`\x16\xfci?"
p70
tp71
bag19
(g20
(I0
tp72
g22
tp73
Rp74
(I1
(I1
tp75
g6
I00
S'\x00\x00\x00\x00\x00\x00\x00\x00'
p76
tp77
baa(lp78
g19
(g20
(I0
tp79
g22
tp80
Rp81
(I1
(I1
tp82
g6
I00
S'\x0f@\x9e>Psm?'
p83
tp84
bag19
(g20
(I0
tp85
g22
tp86
Rp87
(I1
(I1
tp88
g6
I00
S'\r@\x9e>Psm?'
p89
tp90
bag19
(g20
(I0
tp91
g22
tp92
Rp93
(I1
(I1
tp94
g6
I00
S'\x00\x00\x00\x00\x00\x00\x00\x00'
p95
tp96
baa(lp97
g19
(g20
(I0
tp98
g22
tp99
Rp100
(I1
(I1
tp101
g6
I00
S'\xa1\xba\xc7U\xc33q?'
p102
tp103
bag19
(g20
(I0
tp104
g22
tp105
Rp106
(I1
(I1
tp107
g6
I00
S'\xa1\xba\xc7U\xc33q?'
p108
tp109
bag19
(g20
(I0
tp110
g22
tp111
Rp112
(I1
(I1
tp113
g6
I00
S'\x00\x00\x00\x00\x00\x00\x00\x00'
p114
tp115
baa(lp116
g19
(g20
(I0
tp117
g22
tp118
Rp119
(I1
(I1
tp120
g6
I00
S'K\x05\x84\xf6\xbfJs?'
p121
tp122
bag19
(g20
(I0
tp123
g22
tp124
Rp125
(I1
(I1
tp126
g6
I00
S'K\x05\x84\xf6\xbfJs?'
p127
tp128
bag19
(g20
(I0
tp129
g22
tp130
Rp131
(I1
(I1
tp132
g6
I00
S'\x00\x00\x00\x00\x00\x00\x00\x00'
p133
tp134
baa(lp135
g19
(g20
(I0
tp136
g22
tp137
Rp138
(I1
(I1
tp139
g6
I00
S'\x81\x84k\x8b\xa8\x1at?'
p140
tp141
bag19
(g20
(I0
tp142
g22
tp143
Rp144
(I1
(I1
tp145
g6
I00
S'\x82\x84k\x8b\xa8\x1at?'
p146
tp147
bag19
(g20
(I0
tp148
g22
tp149
Rp150
(I1
(I1
tp151
g6
I00
S'\x00\x00\x00\x00\x00\x00\x00\x00'
p152
tp153
baa(lp154
g19
(g20
(I0
tp155
g22
tp156
Rp157
(I1
(I1
tp158
g6
I00
S'\x9e\r\x9a\x9e\x9a\x1fy?'
p159
tp160
bag19
(g20
(I0
tp161
g22
tp162
Rp163
(I1
(I1
tp164
g6
I00
S'\x9e\r\x9a\x9e\x9a\x1fy?'
p165
tp166
bag19
(g20
(I0
tp167
g22
tp168
Rp169
(I1
(I1
tp170
g6
I00
S'\x00\x00\x00\x00\x00\x00\x00\x00'
p171
tp172
baa(lp173
g19
(g20
(I0
tp174
g22
tp175
Rp176
(I1
(I1
tp177
g6
I00
S'\xf6\xca\xef\xdc\x1f\x04v?'
p178
tp179
bag19
(g20
(I0
tp180
g22
tp181
Rp182
(I1
(I1
tp183
g6
I00
S'\xf8\xca\xef\xdc\x1f\x04v?'
p184
tp185
bag19
(g20
(I0
tp186
g22
tp187
Rp188
(I1
(I1
tp189
g6
I00
S'\x00\x00\x00\x00\x00\x00\x00\x00'
p190
tp191
baa(lp192
g19
(g20
(I0
tp193
g22
tp194
Rp195
(I1
(I1
tp196
g6
I00
S'\x88\xd2]\xf4\xd1\nw?'
p197
tp198
bag19
(g20
(I0
tp199
g22
tp200
Rp201
(I1
(I1
tp202
g6
I00
S'\x8a\xd2]\xf4\xd1\nw?'
p203
tp204
bag19
(g20
(I0
tp205
g22
tp206
Rp207
(I1
(I1
tp208
g6
I00
S'\x00\x00\x00\x00\x00\x00\x00\x00'
p209
tp210
baa(lp211
g19
(g20
(I0
tp212
g22
tp213
Rp214
(I1
(I1
tp215
g6
I00
S"40F'\x88\x16x?"
p216
tp217
bag19
(g20
(I0
tp218
g22
tp219
Rp220
(I1
(I1
tp221
g6
I00
S"50F'\x88\x16x?"
p222
tp223
bag19
(g20
(I0
tp224
g22
tp225
Rp226
(I1
(I1
tp227
g6
I00
S'\x00\x00\x00\x00\x00\x00\x00\x00'
p228
tp229
baa(lp230
g19
(g20
(I0
tp231
g22
tp232
Rp233
(I1
(I1
tp234
g6
I00
S'3*\x80\xfe\x0c\xedy?'
p235
tp236
bag19
(g20
(I0
tp237
g22
tp238
Rp239
(I1
(I1
tp240
g6
I00
S'4*\x80\xfe\x0c\xedy?'
p241
tp242
bag19
(g20
(I0
tp243
g22
tp244
Rp245
(I1
(I1
tp246
g6
I00
S'\x00\x00\x00\x00\x00\x00\x00\x00'
p247
tp248
baa(lp249
g19
(g20
(I0
tp250
g22
tp251
Rp252
(I1
(I1
tp253
g6
I00
S'|\x83\xe0\xb3\xc2\x93{?'
p254
tp255
bag19
(g20
(I0
tp256
g22
tp257
Rp258
(I1
(I1
tp259
g6
I00
S'}\x83\xe0\xb3\xc2\x93{?'
p260
tp261
bag19
(g20
(I0
tp262
g22
tp263
Rp264
(I1
(I1
tp265
g6
I00
S'\x00\x00\x00\x00\x00\x00\x00\x00'
p266
tp267
baa(lp268
g19
(g20
(I0
tp269
g22
tp270
Rp271
(I1
(I1
tp272
g6
I00
S'\xc1kO\x7f\xdd\x14}?'
p273
tp274
bag19
(g20
(I0
tp275
g22
tp276
Rp277
(I1
(I1
tp278
g6
I00
S'\xc2kO\x7f\xdd\x14}?'
p279
tp280
bag19
(g20
(I0
tp281
g22
tp282
Rp283
(I1
(I1
tp284
g6
I00
S'\x00\x00\x00\x00\x00\x00\x00\x00'
p285
tp286
baa(lp287
g19
(g20
(I0
tp288
g22
tp289
Rp290
(I1
(I1
tp291
g6
I00
S'\x0e\xc2\xdc\x13$x~?'
p292
tp293
bag19
(g20
(I0
tp294
g22
tp295
Rp296
(I1
(I1
tp297
g6
I00
S'\x0f\xc2\xdc\x13$x~?'
p298
tp299
bag19
(g20
(I0
tp300
g22
tp301
Rp302
(I1
(I1
tp303
g6
I00
S'\x00\x00\x00\x00\x00\x00\x00\x00'
p304
tp305
baa(lp306
g19
(g20
(I0
tp307
g22
tp308
Rp309
(I1
(I1
tp310
g6
I00
S'Q\xaa\x9e\x121\xe2|?'
p311
tp312
bag19
(g20
(I0
tp313
g22
tp314
Rp315
(I1
(I1
tp316
g6
I00
S'T\xaa\x9e\x121\xe2|?'
p317
tp318
bag19
(g20
(I0
tp319
g22
tp320
Rp321
(I1
(I1
tp322
g6
I00
S'\x00\x00\x00\x00\x00\x00\x00\x00'
p323
tp324
baa(lp325
g19
(g20
(I0
tp326
g22
tp327
Rp328
(I1
(I1
tp329
g6
I00
S'\xb4\xc1\x0b\xfe\xab\x89\x82?'
p330
tp331
bag19
(g20
(I0
tp332
g22
tp333
Rp334
(I1
(I1
tp335
g6
I00
S'\xb5\xc1\x0b\xfe\xab\x89\x82?'
p336
tp337
bag19
(g20
(I0
tp338
g22
tp339
Rp340
(I1
(I1
tp341
g6
I00
S'\x00\x00\x00\x00\x00\x00\x00\x00'
p342
tp343
baa(lp344
g19
(g20
(I0
tp345
g22
tp346
Rp347
(I1
(I1
tp348
g6
I00
S'\xca0:\x8f|\xb2\x80?'
p349
tp350
bag19
(g20
(I0
tp351
g22
tp352
Rp353
(I1
(I1
tp354
g6
I00
S'\xcb0:\x8f|\xb2\x80?'
p355
tp356
bag19
(g20
(I0
tp357
g22
tp358
Rp359
(I1
(I1
tp360
g6
I00
S'\x00\x00\x00\x00\x00\x00\x00\x00'
p361
tp362
baa(lp363
g19
(g20
(I0
tp364
g22
tp365
Rp366
(I1
(I1
tp367
g6
I00
S'\x8b\x0b\xb65\xd6c\x7f?'
p368
tp369
bag19
(g20
(I0
tp370
g22
tp371
Rp372
(I1
(I1
tp373
g6
I00
S'\x8e\x0b\xb65\xd6c\x7f?'
p374
tp375
bag19
(g20
(I0
tp376
g22
tp377
Rp378
(I1
(I1
tp379
g6
I00
S'\x00\x00\x00\x00\x00\x00\x00\x00'
p380
tp381
baa(lp382
g19
(g20
(I0
tp383
g22
tp384
Rp385
(I1
(I1
tp386
g6
I00
S'\n\xb3\xe7\xe9\xdcB\x80?'
p387
tp388
bag19
(g20
(I0
tp389
g22
tp390
Rp391
(I1
(I1
tp392
g6
I00
S'\x0b\xb3\xe7\xe9\xdcB\x80?'
p393
tp394
bag19
(g20
(I0
tp395
g22
tp396
Rp397
(I1
(I1
tp398
g6
I00
S'\x00\x00\x00\x00\x00\x00\x00\x00'
p399
tp400
baa(lp401
g19
(g20
(I0
tp402
g22
tp403
Rp404
(I1
(I1
tp405
g6
I00
S'1\xe4E\xa4&O\x82?'
p406
tp407
bag19
(g20
(I0
tp408
g22
tp409
Rp410
(I1
(I1
tp411
g6
I00
S'2\xe4E\xa4&O\x82?'
p412
tp413
bag19
(g20
(I0
tp414
g22
tp415
Rp416
(I1
(I1
tp417
g6
I00
S'\x00\x00\x00\x00\x00\x00\x00\x00'
p418
tp419
baa(lp420
g19
(g20
(I0
tp421
g22
tp422
Rp423
(I1
(I1
tp424
g6
I00
S'`\x14\xed\xd2Z\xd7\x82?'
p425
tp426
bag19
(g20
(I0
tp427
g22
tp428
Rp429
(I1
(I1
tp430
g6
I00
S'a\x14\xed\xd2Z\xd7\x82?'
p431
tp432
bag19
(g20
(I0
tp433
g22
tp434
Rp435
(I1
(I1
tp436
g6
I00
S'\x00\x00\x00\x00\x00\x00\x00\x00'
p437
tp438
baa(lp439
g19
(g20
(I0
tp440
g22
tp441
Rp442
(I1
(I1
tp443
g6
I00
S'\x08\x062#\xd1W\x83?'
p444
tp445
bag19
(g20
(I0
tp446
g22
tp447
Rp448
(I1
(I1
tp449
g6
I00
S'\x08\x062#\xd1W\x83?'
p450
tp451
bag19
(g20
(I0
tp452
g22
tp453
Rp454
(I1
(I1
tp455
g6
I00
S'\x00\x00\x00\x00\x00\x00\x00\x00'
p456
tp457
baa(lp458
g19
(g20
(I0
tp459
g22
tp460
Rp461
(I1
(I1
tp462
g6
I00
S'\\H\xbe\xe6\xd2\xc3\x83?'
p463
tp464
bag19
(g20
(I0
tp465
g22
tp466
Rp467
(I1
(I1
tp468
g6
I00
S'\\H\xbe\xe6\xd2\xc3\x83?'
p469
tp470
bag19
(g20
(I0
tp471
g22
tp472
Rp473
(I1
(I1
tp474
g6
I00
S'\x00\x00\x00\x00\x00\x00\x00\x00'
p475
tp476
baa(lp477
g19
(g20
(I0
tp478
g22
tp479
Rp480
(I1
(I1
tp481
g6
I00
S'E`\x83+\xce\x85\x82?'
p482
tp483
bag19
(g20
(I0
tp484
g22
tp485
Rp486
(I1
(I1
tp487
g6
I00
S'E`\x83+\xce\x85\x82?'
p488
tp489
bag19
(g20
(I0
tp490
g22
tp491
Rp492
(I1
(I1
tp493
g6
I00
S'\x00\x00\x00\x00\x00\x00\x00\x00'
p494
tp495
baa(lp496
g19
(g20
(I0
tp497
g22
tp498
Rp499
(I1
(I1
tp500
g6
I00
S'\xd0\xcc?\xa0a\x9e\x86?'
p501
tp502
bag19
(g20
(I0
tp503
g22
tp504
Rp505
(I1
(I1
tp506
g6
I00
S'\xd0\xcc?\xa0a\x9e\x86?'
p507
tp508
bag19
(g20
(I0
tp509
g22
tp510
Rp511
(I1
(I1
tp512
g6
I00
S'\x00\x00\x00\x00\x00\x00\x00\x00'
p513
tp514
baa(lp515
g19
(g20
(I0
tp516
g22
tp517
Rp518
(I1
(I1
tp519
g6
I00
S'8\xe6\xb5\xa9[\xab\x86?'
p520
tp521
bag19
(g20
(I0
tp522
g22
tp523
Rp524
(I1
(I1
tp525
g6
I00
S'7\xe6\xb5\xa9[\xab\x86?'
p526
tp527
bag19
(g20
(I0
tp528
g22
tp529
Rp530
(I1
(I1
tp531
g6
I00
S'\x00\x00\x00\x00\x00\x00\x00\x00'
p532
tp533
baa(lp534
g19
(g20
(I0
tp535
g22
tp536
Rp537
(I1
(I1
tp538
g6
I00
S'\x1d\x8ffj\xf6\xc4\x86?'
p539
tp540
bag19
(g20
(I0
tp541
g22
tp542
Rp543
(I1
(I1
tp544
g6
I00
S'\x1c\x8ffj\xf6\xc4\x86?'
p545
tp546
bag19
(g20
(I0
tp547
g22
tp548
Rp549
(I1
(I1
tp550
g6
I00
S'\x00\x00\x00\x00\x00\x00\x00\x00'
p551
tp552
baa(lp553
g19
(g20
(I0
tp554
g22
tp555
Rp556
(I1
(I1
tp557
g6
I00
S'$\xef\xfd\xa5\x8a\xe7\x86?'
p558
tp559
bag19
(g20
(I0
tp560
g22
tp561
Rp562
(I1
(I1
tp563
g6
I00
S'"\xef\xfd\xa5\x8a\xe7\x86?'
p564
tp565
bag19
(g20
(I0
tp566
g22
tp567
Rp568
(I1
(I1
tp569
g6
I00
S'\x00\x00\x00\x00\x00\x00\x00\x00'
p570
tp571
baa(lp572
g19
(g20
(I0
tp573
g22
tp574
Rp575
(I1
(I1
tp576
g6
I00
S'Kg\xed4e\x10\x87?'
p577
tp578
bag19
(g20
(I0
tp579
g22
tp580
Rp581
(I1
(I1
tp582
g6
I00
S'Ig\xed4e\x10\x87?'
p583
tp584
bag19
(g20
(I0
tp585
g22
tp586
Rp587
(I1
(I1
tp588
g6
I00
S'\x00\x00\x00\x00\x00\x00\x00\x00'
p589
tp590
baa(lp591
g19
(g20
(I0
tp592
g22
tp593
Rp594
(I1
(I1
tp595
g6
I00
S'\xfa\xbd\x11\xaf\x7f=\x87?'
p596
tp597
bag19
(g20
(I0
tp598
g22
tp599
Rp600
(I1
(I1
tp601
g6
I00
S'\xf8\xbd\x11\xaf\x7f=\x87?'
p602
tp603
bag19
(g20
(I0
tp604
g22
tp605
Rp606
(I1
(I1
tp607
g6
I00
S'\x00\x00\x00\x00\x00\x00\x00\x00'
p608
tp609
baa(lp610
g19
(g20
(I0
tp611
g22
tp612
Rp613
(I1
(I1
tp614
g6
I00
S'\xc6\x7fWI\x07a\x85?'
p615
tp616
bag19
(g20
(I0
tp617
g22
tp618
Rp619
(I1
(I1
tp620
g6
I00
S'\xc4\x7fWI\x07a\x85?'
p621
tp622
bag19
(g20
(I0
tp623
g22
tp624
Rp625
(I1
(I1
tp626
g6
I00
S'\x00\x00\x00\x00\x00\x00\x00\x00'
p627
tp628
baa(lp629
g19
(g20
(I0
tp630
g22
tp631
Rp632
(I1
(I1
tp633
g6
I00
S'X\xb4\x08=c\x92\x85?'
p634
tp635
bag19
(g20
(I0
tp636
g22
tp637
Rp638
(I1
(I1
tp639
g6
I00
S'W\xb4\x08=c\x92\x85?'
p640
tp641
bag19
(g20
(I0
tp642
g22
tp643
Rp644
(I1
(I1
tp645
g6
I00
S'\x00\x00\x00\x00\x00\x00\x00\x00'
p646
tp647
baa(lp648
g19
(g20
(I0
tp649
g22
tp650
Rp651
(I1
(I1
tp652
g6
I00
S'\xfbr vc\xc4\x85?'
p653
tp654
bag19
(g20
(I0
tp655
g22
tp656
Rp657
(I1
(I1
tp658
g6
I00
S'\xfar vc\xc4\x85?'
p659
tp660
bag19
(g20
(I0
tp661
g22
tp662
Rp663
(I1
(I1
tp664
g6
I00
S'\x00\x00\x00\x00\x00\x00\x00\x00'
p665
tp666
baa(lp667
g19
(g20
(I0
tp668
g22
tp669
Rp670
(I1
(I1
tp671
g6
I00
S'b\xf1\xcar\x08N\x88?'
p672
tp673
bag19
(g20
(I0
tp674
g22
tp675
Rp676
(I1
(I1
tp677
g6
I00
S'a\xf1\xcar\x08N\x88?'
p678
tp679
bag19
(g20
(I0
tp680
g22
tp681
Rp682
(I1
(I1
tp683
g6
I00
S'\x00\x00\x00\x00\x00\x00\x00\x00'
p684
tp685
baa(lp686
g19
(g20
(I0
tp687
g22
tp688
Rp689
(I1
(I1
tp690
g6
I00
S'Hj\xc5\x0fKg\x86?'
p691
tp692
bag19
(g20
(I0
tp693
g22
tp694
Rp695
(I1
(I1
tp696
g6
I00
S'Hj\xc5\x0fKg\x86?'
p697
tp698
bag19
(g20
(I0
tp699
g22
tp700
Rp701
(I1
(I1
tp702
g6
I00
S'\x00\x00\x00\x00\x00\x00\x00\x00'
p703
tp704
baa(lp705
g19
(g20
(I0
tp706
g22
tp707
Rp708
(I1
(I1
tp709
g6
I00
S'\xa7\xe0,\x89\x19\x9a\x88?'
p710
tp711
bag19
(g20
(I0
tp712
g22
tp713
Rp714
(I1
(I1
tp715
g6
I00
S'\xa7\xe0,\x89\x19\x9a\x88?'
p716
tp717
bag19
(g20
(I0
tp718
g22
tp719
Rp720
(I1
(I1
tp721
g6
I00
S'\x00\x00\x00\x00\x00\x00\x00\x00'
p722
tp723
baa(lp724
g19
(g20
(I0
tp725
g22
tp726
Rp727
(I1
(I1
tp728
g6
I00
S'\xf2K\xd1\xadq\x19\x85?'
p729
tp730
bag19
(g20
(I0
tp731
g22
tp732
Rp733
(I1
(I1
tp734
g6
I00
S'\xf1K\xd1\xadq\x19\x85?'
p735
tp736
bag19
(g20
(I0
tp737
g22
tp738
Rp739
(I1
(I1
tp740
g6
I00
S'\x00\x00\x00\x00\x00\x00\x00\x00'
p741
tp742
baa(lp743
g19
(g20
(I0
tp744
g22
tp745
Rp746
(I1
(I1
tp747
g6
I00
S'\x19}/h\xbb%\x87?'
p748
tp749
bag19
(g20
(I0
tp750
g22
tp751
Rp752
(I1
(I1
tp753
g6
I00
S'\x18}/h\xbb%\x87?'
p754
tp755
bag19
(g20
(I0
tp756
g22
tp757
Rp758
(I1
(I1
tp759
g6
I00
S'\x00\x00\x00\x00\x00\x00\x00\x00'
p760
tp761
baa(lp762
g19
(g20
(I0
tp763
g22
tp764
Rp765
(I1
(I1
tp766
g6
I00
S'\xd5IZ\xbep@\x87?'
p767
tp768
bag19
(g20
(I0
tp769
g22
tp770
Rp771
(I1
(I1
tp772
g6
I00
S'\xd4IZ\xbep@\x87?'
p773
tp774
bag19
(g20
(I0
tp775
g22
tp776
Rp777
(I1
(I1
tp778
g6
I00
S'\x00\x00\x00\x00\x00\x00\x00\x00'
p779
tp780
baa(lp781
g19
(g20
(I0
tp782
g22
tp783
Rp784
(I1
(I1
tp785
g6
I00
S'(\xdf\xf2;\x18\\\x87?'
p786
tp787
bag19
(g20
(I0
tp788
g22
tp789
Rp790
(I1
(I1
tp791
g6
I00
S"'\xdf\xf2;\x18\\\x87?"
p792
tp793
bag19
(g20
(I0
tp794
g22
tp795
Rp796
(I1
(I1
tp797
g6
I00
S'\x00\x00\x00\x00\x00\x00\x00\x00'
p798
tp799
baa(lp800
g19
(g20
(I0
tp801
g22
tp802
Rp803
(I1
(I1
tp804
g6
I00
S'\xe95\xc3++x\x87?'
p805
tp806
bag19
(g20
(I0
tp807
g22
tp808
Rp809
(I1
(I1
tp810
g6
I00
S'\xe85\xc3++x\x87?'
p811
tp812
bag19
(g20
(I0
tp813
g22
tp814
Rp815
(I1
(I1
tp816
g6
I00
S'\x00\x00\x00\x00\x00\x00\x00\x00'
p817
tp818
baa(lp819
g19
(g20
(I0
tp820
g22
tp821
Rp822
(I1
(I1
tp823
g6
I00
S'D\x03\xa5i@\x94\x87?'
p824
tp825
bag19
(g20
(I0
tp826
g22
tp827
Rp828
(I1
(I1
tp829
g6
I00
S'C\x03\xa5i@\x94\x87?'
p830
tp831
bag19
(g20
(I0
tp832
g22
tp833
Rp834
(I1
(I1
tp835
g6
I00
S'\x00\x00\x00\x00\x00\x00\x00\x00'
p836
tp837
baa(lp838
g19
(g20
(I0
tp839
g22
tp840
Rp841
(I1
(I1
tp842
g6
I00
S'\xc2\xfafu\x06\xb0\x87?'
p843
tp844
bag19
(g20
(I0
tp845
g22
tp846
Rp847
(I1
(I1
tp848
g6
I00
S'\xc2\xfafu\x06\xb0\x87?'
p849
tp850
bag19
(g20
(I0
tp851
g22
tp852
Rp853
(I1
(I1
tp854
g6
I00
S'\x00\x00\x00\x00\x00\x00\x00\x00'
p855
tp856
baa(lp857
g19
(g20
(I0
tp858
g22
tp859
Rp860
(I1
(I1
tp861
g6
I00
S'\xb2\xd3s\xc6>\xcb\x87?'
p862
tp863
bag19
(g20
(I0
tp864
g22
tp865
Rp866
(I1
(I1
tp867
g6
I00
S'\xb2\xd3s\xc6>\xcb\x87?'
p868
tp869
bag19
(g20
(I0
tp870
g22
tp871
Rp872
(I1
(I1
tp873
g6
I00
S'\x00\x00\x00\x00\x00\x00\x00\x00'
p874
tp875
baa(lp876
g19
(g20
(I0
tp877
g22
tp878
Rp879
(I1
(I1
tp880
g6
I00
S'rY2\xcf\x03\xf2\x89?'
p881
tp882
bag19
(g20
(I0
tp883
g22
tp884
Rp885
(I1
(I1
tp886
g6
I00
S'rY2\xcf\x03\xf2\x89?'
p887
tp888
bag19
(g20
(I0
tp889
g22
tp890
Rp891
(I1
(I1
tp892
g6
I00
S'\x00\x00\x00\x00\x00\x00\x00\x00'
p893
tp894
baa(lp895
g19
(g20
(I0
tp896
g22
tp897
Rp898
(I1
(I1
tp899
g6
I00
S'\xd9\x11\x95(\x9f\x0b\x8a?'
p900
tp901
bag19
(g20
(I0
tp902
g22
tp903
Rp904
(I1
(I1
tp905
g6
I00
S'\xd8\x11\x95(\x9f\x0b\x8a?'
p906
tp907
bag19
(g20
(I0
tp908
g22
tp909
Rp910
(I1
(I1
tp911
g6
I00
S'\x00\x00\x00\x00\x00\x00\x00\x00'
p912
tp913
baa(lp914
g19
(g20
(I0
tp915
g22
tp916
Rp917
(I1
(I1
tp918
g6
I00
S'\t\xaa\x93\xd0\xf7\x17\x88?'
p919
tp920
bag19
(g20
(I0
tp921
g22
tp922
Rp923
(I1
(I1
tp924
g6
I00
S'\x08\xaa\x93\xd0\xf7\x17\x88?'
p925
tp926
bag19
(g20
(I0
tp927
g22
tp928
Rp929
(I1
(I1
tp930
g6
I00
S'\x00\x00\x00\x00\x00\x00\x00\x00'
p931
tp932
baa(lp933
g19
(g20
(I0
tp934
g22
tp935
Rp936
(I1
(I1
tp937
g6
I00
S'\xcc\x814:\x90/\x88?'
p938
tp939
bag19
(g20
(I0
tp940
g22
tp941
Rp942
(I1
(I1
tp943
g6
I00
S'\xcb\x814:\x90/\x88?'
p944
tp945
bag19
(g20
(I0
tp946
g22
tp947
Rp948
(I1
(I1
tp949
g6
I00
S'\x00\x00\x00\x00\x00\x00\x00\x00'
p950
tp951
baa(lp952
g19
(g20
(I0
tp953
g22
tp954
Rp955
(I1
(I1
tp956
g6
I00
S'\x9d!\xaa \x14F\x88?'
p957
tp958
bag19
(g20
(I0
tp959
g22
tp960
Rp961
(I1
(I1
tp962
g6
I00
S'\x9c!\xaa \x14F\x88?'
p963
tp964
bag19
(g20
(I0
tp965
g22
tp966
Rp967
(I1
(I1
tp968
g6
I00
S'\x00\x00\x00\x00\x00\x00\x00\x00'
p969
tp970
baa(lp971
g19
(g20
(I0
tp972
g22
tp973
Rp974
(I1
(I1
tp975
g6
I00
S'\xe1\x80\x9c-~[\x88?'
p976
tp977
bag19
(g20
(I0
tp978
g22
tp979
Rp980
(I1
(I1
tp981
g6
I00
S'\xe0\x80\x9c-~[\x88?'
p982
tp983
bag19
(g20
(I0
tp984
g22
tp985
Rp986
(I1
(I1
tp987
g6
I00
S'\x00\x00\x00\x00\x00\x00\x00\x00'
p988
tp989
baa(lp990
g19
(g20
(I0
tp991
g22
tp992
Rp993
(I1
(I1
tp994
g6
I00
S"\xdf{\x16'\xcdo\x88?"
p995
tp996
bag19
(g20
(I0
tp997
g22
tp998
Rp999
(I1
(I1
tp1000
g6
I00
S"\xde{\x16'\xcdo\x88?"
p1001
tp1002
bag19
(g20
(I0
tp1003
g22
tp1004
Rp1005
(I1
(I1
tp1006
g6
I00
S'\x00\x00\x00\x00\x00\x00\x00\x00'
p1007
tp1008
baa.