(lp0
(lp1
cnumpy.core.multiarray
scalar
p2
(cnumpy
dtype
p3
(S'f8'
p4
I0
I1
tp5
Rp6
(I3
S'<'
p7
NNNI-1
I-1
I0
tp8
bS'\x00\x00\x00\x00\x00@\x8f@'
p9
tp10
Rp11
ag2
(g6
S'\x00\x00\x00\x00\x00@\x8f@'
p12
tp13
Rp14
ag2
(g6
S'\x00\x00\x00\x00\x00@\x8f@'
p15
tp16
Rp17
aa(lp18
g2
(g6
S'\x00\x00\x00\x00\x00@\x8f@'
p19
tp20
Rp21
ag2
(g6
S'\x00\x00\x00\x00\x00@\x8f@'
p22
tp23
Rp24
ag2
(g6
S'\x00\x00\x00\x00\x00@\x8f@'
p25
tp26
Rp27
aa(lp28
cnumpy.core.multiarray
_reconstruct
p29
(cnumpy
ndarray
p30
(I0
tp31
S'b'
p32
tp33
Rp34
(I1
(I1
tp35
g6
I00
S'\x00\x00\x00\x00\x00\x00\x00\x00'
p36
tp37
bag29
(g30
(I0
tp38
g32
tp39
Rp40
(I1
(I1
tp41
g6
I00
S'\x00\x00\x00\x00\x00\x00\x00\x00'
p42
tp43
bag29
(g30
(I0
tp44
g32
tp45
Rp46
(I1
(I1
tp47
g6
I00
S'\x00\x00\x00\x00\x00\x00\x00\x00'
p48
tp49
baa(lp50
g34
ag40
ag46
aa(lp51
g29
(g30
(I0
tp52
g32
tp53
Rp54
(I1
(I1
tp55
g6
I00
S'WJNp\x94\xe9W?'
p56
tp57
bag29
(g30
(I0
tp58
g32
tp59
Rp60
(I1
(I1
tp61
g6
I00
S'WJNp\x94\xe9W?'
p62
tp63
bag29
(g30
(I0
tp64
g32
tp65
Rp66
(I1
(I1
tp67
g6
I00
S'\x00\x00\x00\x00\x00\x00\x00\x00'
p68
tp69
baa(lp70
g29
(g30
(I0
tp71
g32
tp72
Rp73
(I1
(I1
tp74
g6
I00
S'>\xd7\xdb\x81|\\P?'
p75
tp76
bag29
(g30
(I0
tp77
g32
tp78
Rp79
(I1
(I1
tp80
g6
I00
S'=\xd7\xdb\x81|\\P?'
p81
tp82
bag29
(g30
(I0
tp83
g32
tp84
Rp85
(I1
(I1
tp86
g6
I00
S'\x00\x00\x00\x00\x00\x00\x00\x00'
p87
tp88
baa(lp89
g29
(g30
(I0
tp90
g32
tp91
Rp92
(I1
(I1
tp93
g6
I00
S'v+\x16\x88\xa8\xf7P?'
p94
tp95
bag29
(g30
(I0
tp96
g32
tp97
Rp98
(I1
(I1
tp99
g6
I00
S'u+\x16\x88\xa8\xf7P?'
p100
tp101
bag29
(g30
(I0
tp102
g32
tp103
Rp104
(I1
(I1
tp105
g6
I00
S'\x00\x00\x00\x00\x00\x00\x00\x00'
p106
tp107
baa(lp108
g29
(g30
(I0
tp109
g32
tp110
Rp111
(I1
(I1
tp112
g6
I00
S'\xdcK\x8bcI[S?'
p113
tp114
bag29
(g30
(I0
tp115
g32
tp116
Rp117
(I1
(I1
tp118
g6
I00
S'\xdbK\x8bcI[S?'
p119
tp120
bag29
(g30
(I0
tp121
g32
tp122
Rp123
(I1
(I1
tp124
g6
I00
S'\x00\x00\x00\x00\x00\x00\x00\x00'
p125
tp126
baa(lp127
g29
(g30
(I0
tp128
g32
tp129
Rp130
(I1
(I1
tp131
g6
I00
S'\x03\xccr\xea\x03tR?'
p132
tp133
bag29
(g30
(I0
tp134
g32
tp135
Rp136
(I1
(I1
tp137
g6
I00
S'\x02\xccr\xea\x03tR?'
p138
tp139
bag29
(g30
(I0
tp140
g32
tp141
Rp142
(I1
(I1
tp143
g6
I00
S'\x00\x00\x00\x00\x00\x00\x00\x00'
p144
tp145
baa(lp146
g29
(g30
(I0
tp147
g32
tp148
Rp149
(I1
(I1
tp150
g6
I00
S's\xd8\xfaS\x11\x06R?'
p151
tp152
bag29
(g30
(I0
tp153
g32
tp154
Rp155
(I1
(I1
tp156
g6
I00
S't\xd8\xfaS\x11\x06R?'
p157
tp158
bag29
(g30
(I0
tp159
g32
tp160
Rp161
(I1
(I1
tp162
g6
I00
S'\x00\x00\x00\x00\x00\x00\x00\x00'
p163
tp164
baa(lp165
g29
(g30
(I0
tp166
g32
tp167
Rp168
(I1
(I1
tp169
g6
I00
S'\x9bg\x92@\xdbHW?'
p170
tp171
bag29
(g30
(I0
tp172
g32
tp173
Rp174
(I1
(I1
tp175
g6
I00
S'\x9cg\x92@\xdbHW?'
p176
tp177
bag29
(g30
(I0
tp178
g32
tp179
Rp180
(I1
(I1
tp181
g6
I00
S'\x00\x00\x00\x00\x00\x00\x00\x00'
p182
tp183
baa(lp184
g29
(g30
(I0
tp185
g32
tp186
Rp187
(I1
(I1
tp188
g6
I00
S'\x8c\x80\xf4\x81N\xcdL?'
p189
tp190
bag29
(g30
(I0
tp191
g32
tp192
Rp193
(I1
(I1
tp194
g6
I00
S'\x93\x80\xf4\x81N\xcdL?'
p195
tp196
bag29
(g30
(I0
tp197
g32
tp198
Rp199
(I1
(I1
tp200
g6
I00
S'\x00\x00\x00\x00\x00\x00\x00\x00'
p201
tp202
baa(lp203
g29
(g30
(I0
tp204
g32
tp205
Rp206
(I1
(I1
tp207
g6
I00
S'\xc8K\t\xda\x87\xe8R?'
p208
tp209
bag29
(g30
(I0
tp210
g32
tp211
Rp212
(I1
(I1
tp213
g6
I00
S'\xccK\t\xda\x87\xe8R?'
p214
tp215
bag29
(g30
(I0
tp216
g32
tp217
Rp218
(I1
(I1
tp219
g6
I00
S'\x00\x00\x00\x00\x00\x00\x00\x00'
p220
tp221
baa(lp222
g29
(g30
(I0
tp223
g32
tp224
Rp225
(I1
(I1
tp226
g6
I00
S'\xed\xe4?\x06\xab-Q?'
p227
tp228
bag29
(g30
(I0
tp229
g32
tp230
Rp231
(I1
(I1
tp232
g6
I00
S'\xf0\xe4?\x06\xab-Q?'
p233
tp234
bag29
(g30
(I0
tp235
g32
tp236
Rp237
(I1
(I1
tp238
g6
I00
S'\x00\x00\x00\x00\x00\x00\x00\x00'
p239
tp240
baa(lp241
g29
(g30
(I0
tp242
g32
tp243
Rp244
(I1
(I1
tp245
g6
I00
S'2|dS\x05\x85S?'
p246
tp247
bag29
(g30
(I0
tp248
g32
tp249
Rp250
(I1
(I1
tp251
g6
I00
S'6|dS\x05\x85S?'
p252
tp253
bag29
(g30
(I0
tp254
g32
tp255
Rp256
(I1
(I1
tp257
g6
I00
S'\x00\x00\x00\x00\x00\x00\x00\x00'
p258
tp259
baa(lp260
g29
(g30
(I0
tp261
g32
tp262
Rp263
(I1
(I1
tp264
g6
I00
S'\x1d\xfc\x1c\x03\x98\xd0T?'
p265
tp266
bag29
(g30
(I0
tp267
g32
tp268
Rp269
(I1
(I1
tp270
g6
I00
S' \xfc\x1c\x03\x98\xd0T?'
p271
tp272
bag29
(g30
(I0
tp273
g32
tp274
Rp275
(I1
(I1
tp276
g6
I00
S'\x00\x00\x00\x00\x00\x00\x00\x00'
p277
tp278
baa(lp279
g29
(g30
(I0
tp280
g32
tp281
Rp282
(I1
(I1
tp283
g6
I00
S'\xfa\xe6\xfd\x97x-S?'
p284
tp285
bag29
(g30
(I0
tp286
g32
tp287
Rp288
(I1
(I1
tp289
g6
I00
S'\xfc\xe6\xfd\x97x-S?'
p290
tp291
bag29
(g30
(I0
tp292
g32
tp293
Rp294
(I1
(I1
tp295
g6
I00
S'\x00\x00\x00\x00\x00\x00\x00\x00'
p296
tp297
baa(lp298
g29
(g30
(I0
tp299
g32
tp300
Rp301
(I1
(I1
tp302
g6
I00
S'a/vi\xcegR?'
p303
tp304
bag29
(g30
(I0
tp305
g32
tp306
Rp307
(I1
(I1
tp308
g6
I00
S'b/vi\xcegR?'
p309
tp310
bag29
(g30
(I0
tp311
g32
tp312
Rp313
(I1
(I1
tp314
g6
I00
S'\x00\x00\x00\x00\x00\x00\x00\x00'
p315
tp316
baa(lp317
g29
(g30
(I0
tp318
g32
tp319
Rp320
(I1
(I1
tp321
g6
I00
S'\xcdk\x112\xd3\xf2P?'
p322
tp323
bag29
(g30
(I0
tp324
g32
tp325
Rp326
(I1
(I1
tp327
g6
I00
S'\xcfk\x112\xd3\xf2P?'
p328
tp329
bag29
(g30
(I0
tp330
g32
tp331
Rp332
(I1
(I1
tp333
g6
I00
S'\x00\x00\x00\x00\x00\x00\x00\x00'
p334
tp335
baa(lp336
g29
(g30
(I0
tp337
g32
tp338
Rp339
(I1
(I1
tp340
g6
I00
S'\xd3fZ\xe0\xb1EP?'
p341
tp342
bag29
(g30
(I0
tp343
g32
tp344
Rp345
(I1
(I1
tp346
g6
I00
S'\xd4fZ\xe0\xb1EP?'
p347
tp348
bag29
(g30
(I0
tp349
g32
tp350
Rp351
(I1
(I1
tp352
g6
I00
S'\x00\x00\x00\x00\x00\x00\x00\x00'
p353
tp354
baa(lp355
g29
(g30
(I0
tp356
g32
tp357
Rp358
(I1
(I1
tp359
g6
I00
S'\xcc\x86\xc3v\x10\xe7O?'
p360
tp361
bag29
(g30
(I0
tp362
g32
tp363
Rp364
(I1
(I1
tp365
g6
I00
S'\xcd\x86\xc3v\x10\xe7O?'
p366
tp367
bag29
(g30
(I0
tp368
g32
tp369
Rp370
(I1
(I1
tp371
g6
I00
S'\x00\x00\x00\x00\x00\x00\x00\x00'
p372
tp373
baa(lp374
g29
(g30
(I0
tp375
g32
tp376
Rp377
(I1
(I1
tp378
g6
I00
S'N\xa5\xbf\xbc\xe8\x98O?'
p379
tp380
bag29
(g30
(I0
tp381
g32
tp382
Rp383
(I1
(I1
tp384
g6
I00
S'O\xa5\xbf\xbc\xe8\x98O?'
p385
tp386
bag29
(g30
(I0
tp387
g32
tp388
Rp389
(I1
(I1
tp390
g6
I00
S'\x00\x00\x00\x00\x00\x00\x00\x00'
p391
tp392
baa(lp393
g29
(g30
(I0
tp394
g32
tp395
Rp396
(I1
(I1
tp397
g6
I00
S'\x89\xae\xfc\xdb>tO?'
p398
tp399
bag29
(g30
(I0
tp400
g32
tp401
Rp402
(I1
(I1
tp403
g6
I00
S'\x8c\xae\xfc\xdb>tO?'
p404
tp405
bag29
(g30
(I0
tp406
g32
tp407
Rp408
(I1
(I1
tp409
g6
I00
S'\x00\x00\x00\x00\x00\x00\x00\x00'
p410
tp411
baa(lp412
g29
(g30
(I0
tp413
g32
tp414
Rp415
(I1
(I1
tp416
g6
I00
S'Y\x9f\x7f\xf4\xa0cO?'
p417
tp418
bag29
(g30
(I0
tp419
g32
tp420
Rp421
(I1
(I1
tp422
g6
I00
S'\\\x9f\x7f\xf4\xa0cO?'
p423
tp424
bag29
(g30
(I0
tp425
g32
tp426
Rp427
(I1
(I1
tp428
g6
I00
S'\x00\x00\x00\x00\x00\x00\x00\x00'
p429
tp430
baa(lp431
g29
(g30
(I0
tp432
g32
tp433
Rp434
(I1
(I1
tp435
g6
I00
S'\x80[\x94T\xa2\\O?'
p436
tp437
bag29
(g30
(I0
tp438
g32
tp439
Rp440
(I1
(I1
tp441
g6
I00
S'\x82[\x94T\xa2\\O?'
p442
tp443
bag29
(g30
(I0
tp444
g32
tp445
Rp446
(I1
(I1
tp447
g6
I00
S'\x00\x00\x00\x00\x00\x00\x00\x00'
p448
tp449
baa(lp450
g29
(g30
(I0
tp451
g32
tp452
Rp453
(I1
(I1
tp454
g6
I00
S'\xa7\xc4\xffY7\xa9R?'
p455
tp456
bag29
(g30
(I0
tp457
g32
tp458
Rp459
(I1
(I1
tp460
g6
I00
S'\xa8\xc4\xffY7\xa9R?'
p461
tp462
bag29
(g30
(I0
tp463
g32
tp464
Rp465
(I1
(I1
tp466
g6
I00
S'\x00\x00\x00\x00\x00\x00\x00\x00'
p467
tp468
baa(lp469
g29
(g30
(I0
tp470
g32
tp471
Rp472
(I1
(I1
tp473
g6
I00
S's\x12=\x98\xe0,R?'
p474
tp475
bag29
(g30
(I0
tp476
g32
tp477
Rp478
(I1
(I1
tp479
g6
I00
S'u\x12=\x98\xe0,R?'
p480
tp481
bag29
(g30
(I0
tp482
g32
tp483
Rp484
(I1
(I1
tp485
g6
I00
S'\x00\x00\x00\x00\x00\x00\x00\x00'
p486
tp487
baa(lp488
g29
(g30
(I0
tp489
g32
tp490
Rp491
(I1
(I1
tp492
g6
I00
S'n\xac\x0b\xcf\xaf\x7fQ?'
p493
tp494
bag29
(g30
(I0
tp495
g32
tp496
Rp497
(I1
(I1
tp498
g6
I00
S'p\xac\x0b\xcf\xaf\x7fQ?'
p499
tp500
bag29
(g30
(I0
tp501
g32
tp502
Rp503
(I1
(I1
tp504
g6
I00
S'\x00\x00\x00\x00\x00\x00\x00\x00'
p505
tp506
baa(lp507
g29
(g30
(I0
tp508
g32
tp509
Rp510
(I1
(I1
tp511
g6
I00
S'@t\xc2\xa8\x06\x07T?'
p512
tp513
bag29
(g30
(I0
tp514
g32
tp515
Rp516
(I1
(I1
tp517
g6
I00
S'Ct\xc2\xa8\x06\x07T?'
p518
tp519
bag29
(g30
(I0
tp520
g32
tp521
Rp522
(I1
(I1
tp523
g6
I00
S'\x00\x00\x00\x00\x00\x00\x00\x00'
p524
tp525
baa(lp526
g29
(g30
(I0
tp527
g32
tp528
Rp529
(I1
(I1
tp530
g6
I00
S't\x1d\xf4M\xad\xb6Q?'
p531
tp532
bag29
(g30
(I0
tp533
g32
tp534
Rp535
(I1
(I1
tp536
g6
I00
S'v\x1d\xf4M\xad\xb6Q?'
p537
tp538
bag29
(g30
(I0
tp539
g32
tp540
Rp541
(I1
(I1
tp542
g6
I00
S'\x00\x00\x00\x00\x00\x00\x00\x00'
p543
tp544
baa(lp545
g29
(g30
(I0
tp546
g32
tp547
Rp548
(I1
(I1
tp549
g6
I00
S'o\xa5\xb9r"\xb5Q?'
p550
tp551
bag29
(g30
(I0
tp552
g32
tp553
Rp554
(I1
(I1
tp555
g6
I00
S'q\xa5\xb9r"\xb5Q?'
p556
tp557
bag29
(g30
(I0
tp558
g32
tp559
Rp560
(I1
(I1
tp561
g6
I00
S'\x00\x00\x00\x00\x00\x00\x00\x00'
p562
tp563
baa(lp564
g29
(g30
(I0
tp565
g32
tp566
Rp567
(I1
(I1
tp568
g6
I00
S'\xc0\xdbz\x88\x1f\xd3S?'
p569
tp570
bag29
(g30
(I0
tp571
g32
tp572
Rp573
(I1
(I1
tp574
g6
I00
S'\xc2\xdbz\x88\x1f\xd3S?'
p575
tp576
bag29
(g30
(I0
tp577
g32
tp578
Rp579
(I1
(I1
tp580
g6
I00
S'\x00\x00\x00\x00\x00\x00\x00\x00'
p581
tp582
baa(lp583
g29
(g30
(I0
tp584
g32
tp585
Rp586
(I1
(I1
tp587
g6
I00
S'k\xa5w\x15\x93\xb8R?'
p588
tp589
bag29
(g30
(I0
tp590
g32
tp591
Rp592
(I1
(I1
tp593
g6
I00
S'n\xa5w\x15\x93\xb8R?'
p594
tp595
bag29
(g30
(I0
tp596
g32
tp597
Rp598
(I1
(I1
tp599
g6
I00
S'\x00\x00\x00\x00\x00\x00\x00\x00'
p600
tp601
baa(lp602
g29
(g30
(I0
tp603
g32
tp604
Rp605
(I1
(I1
tp606
g6
I00
S'\xdb26S\x180R?'
p607
tp608
bag29
(g30
(I0
tp609
g32
tp610
Rp611
(I1
(I1
tp612
g6
I00
S'\xdf26S\x180R?'
p613
tp614
bag29
(g30
(I0
tp615
g32
tp616
Rp617
(I1
(I1
tp618
g6
I00
S'\x00\x00\x00\x00\x00\x00\x00\x00'
p619
tp620
baa(lp621
g29
(g30
(I0
tp622
g32
tp623
Rp624
(I1
(I1
tp625
g6
I00
S'ZS\x95\xed\xa4\xecQ?'
p626
tp627
bag29
(g30
(I0
tp628
g32
tp629
Rp630
(I1
(I1
tp631
g6
I00
S'^S\x95\xed\xa4\xecQ?'
p632
tp633
bag29
(g30
(I0
tp634
g32
tp635
Rp636
(I1
(I1
tp637
g6
I00
S'\x00\x00\x00\x00\x00\x00\x00\x00'
p638
tp639
baa(lp640
g29
(g30
(I0
tp641
g32
tp642
Rp643
(I1
(I1
tp644
g6
I00
S'k\xcf\xf6\x05\x90\xefS?'
p645
tp646
bag29
(g30
(I0
tp647
g32
tp648
Rp649
(I1
(I1
tp650
g6
I00
S'o\xcf\xf6\x05\x90\xefS?'
p651
tp652
bag29
(g30
(I0
tp653
g32
tp654
Rp655
(I1
(I1
tp656
g6
I00
S'\x00\x00\x00\x00\x00\x00\x00\x00'
p657
tp658
baa(lp659
g29
(g30
(I0
tp660
g32
tp661
Rp662
(I1
(I1
tp663
g6
I00
S'\xcd\xceG\x0f\x076R?'
p664
tp665
bag29
(g30
(I0
tp666
g32
tp667
Rp668
(I1
(I1
tp669
g6
I00
S'\xd1\xceG\x0f\x076R?'
p670
tp671
bag29
(g30
(I0
tp672
g32
tp673
Rp674
(I1
(I1
tp675
g6
I00
S'\x00\x00\x00\x00\x00\x00\x00\x00'
p676
tp677
baa(lp678
g29
(g30
(I0
tp679
g32
tp680
Rp681
(I1
(I1
tp682
g6
I00
S'/\xd49\xf3\xb1GS?'
p683
tp684
bag29
(g30
(I0
tp685
g32
tp686
Rp687
(I1
(I1
tp688
g6
I00
S'3\xd49\xf3\xb1GS?'
p689
tp690
bag29
(g30
(I0
tp691
g32
tp692
Rp693
(I1
(I1
tp694
g6
I00
S'\x00\x00\x00\x00\x00\x00\x00\x00'
p695
tp696
baa(lp697
g29
(g30
(I0
tp698
g32
tp699
Rp700
(I1
(I1
tp701
g6
I00
S'+\xdaj;UYT?'
p702
tp703
bag29
(g30
(I0
tp704
g32
tp705
Rp706
(I1
(I1
tp707
g6
I00
S'/\xdaj;UYT?'
p708
tp709
bag29
(g30
(I0
tp710
g32
tp711
Rp712
(I1
(I1
tp713
g6
I00
S'\x00\x00\x00\x00\x00\x00\x00\x00'
p714
tp715
baa(lp716
g29
(g30
(I0
tp717
g32
tp718
Rp719
(I1
(I1
tp720
g6
I00
S'i\x8dT\xb8\xbb~P?'
p721
tp722
bag29
(g30
(I0
tp723
g32
tp724
Rp725
(I1
(I1
tp726
g6
I00
S'm\x8dT\xb8\xbb~P?'
p727
tp728
bag29
(g30
(I0
tp729
g32
tp730
Rp731
(I1
(I1
tp732
g6
I00
S'\x00\x00\x00\x00\x00\x00\x00\x00'
p733
tp734
baa(lp735
g29
(g30
(I0
tp736
g32
tp737
Rp738
(I1
(I1
tp739
g6
I00
S'_P\xb4Z\x05\x17P?'
p740
tp741
bag29
(g30
(I0
tp742
g32
tp743
Rp744
(I1
(I1
tp745
g6
I00
S'dP\xb4Z\x05\x17P?'
p746
tp747
bag29
(g30
(I0
tp748
g32
tp749
Rp750
(I1
(I1
tp751
g6
I00
S'\x00\x00\x00\x00\x00\x00\x00\x00'
p752
tp753
baa(lp754
g29
(g30
(I0
tp755
g32
tp756
Rp757
(I1
(I1
tp758
g6
I00
S'>\xb8\x93\x9f\x1b\xd0O?'
p759
tp760
bag29
(g30
(I0
tp761
g32
tp762
Rp763
(I1
(I1
tp764
g6
I00
S'H\xb8\x93\x9f\x1b\xd0O?'
p765
tp766
bag29
(g30
(I0
tp767
g32
tp768
Rp769
(I1
(I1
tp770
g6
I00
S'\x00\x00\x00\x00\x00\x00\x00\x00'
p771
tp772
baa(lp773
g29
(g30
(I0
tp774
g32
tp775
Rp776
(I1
(I1
tp777
g6
I00
S'\xc7\xbe\xcc\x1fd\xceP?'
p778
tp779
bag29
(g30
(I0
tp780
g32
tp781
Rp782
(I1
(I1
tp783
g6
I00
S'\xcc\xbe\xcc\x1fd\xceP?'
p784
tp785
bag29
(g30
(I0
tp786
g32
tp787
Rp788
(I1
(I1
tp789
g6
I00
S'\x00\x00\x00\x00\x00\x00\x00\x00'
p790
tp791
baa(lp792
g29
(g30
(I0
tp793
g32
tp794
Rp795
(I1
(I1
tp796
g6
I00
S'\x01P\xa2W\xf2EQ?'
p797
tp798
bag29
(g30
(I0
tp799
g32
tp800
Rp801
(I1
(I1
tp802
g6
I00
S'\x03P\xa2W\xf2EQ?'
p803
tp804
bag29
(g30
(I0
tp805
g32
tp806
Rp807
(I1
(I1
tp808
g6
I00
S'\x00\x00\x00\x00\x00\x00\x00\x00'
p809
tp810
baa(lp811
g29
(g30
(I0
tp812
g32
tp813
Rp814
(I1
(I1
tp815
g6
I00
S'V\xa2\xf4\xa6\xda\x0cQ?'
p816
tp817
bag29
(g30
(I0
tp818
g32
tp819
Rp820
(I1
(I1
tp821
g6
I00
S'W\xa2\xf4\xa6\xda\x0cQ?'
p822
tp823
bag29
(g30
(I0
tp824
g32
tp825
Rp826
(I1
(I1
tp827
g6
I00
S'\x00\x00\x00\x00\x00\x00\x00\x00'
p828
tp829
baa(lp830
g29
(g30
(I0
tp831
g32
tp832
Rp833
(I1
(I1
tp834
g6
I00
S'\x00\xc6\x9fJb\x00O?'
p835
tp836
bag29
(g30
(I0
tp837
g32
tp838
Rp839
(I1
(I1
tp840
g6
I00
S'\x05\xc6\x9fJb\x00O?'
p841
tp842
bag29
(g30
(I0
tp843
g32
tp844
Rp845
(I1
(I1
tp846
g6
I00
S'\x00\x00\x00\x00\x00\x00\x00\x00'
p847
tp848
baa(lp849
g29
(g30
(I0
tp850
g32
tp851
Rp852
(I1
(I1
tp853
g6
I00
S'\xb4Y:\xa6\xe3UQ?'
p854
tp855
bag29
(g30
(I0
tp856
g32
tp857
Rp858
(I1
(I1
tp859
g6
I00
S'\xb6Y:\xa6\xe3UQ?'
p860
tp861
bag29
(g30
(I0
tp862
g32
tp863
Rp864
(I1
(I1
tp865
g6
I00
S'\x00\x00\x00\x00\x00\x00\x00\x00'
p866
tp867
baa(lp868
g29
(g30
(I0
tp869
g32
tp870
Rp871
(I1
(I1
tp872
g6
I00
S'.\x0bO\x17\xd9\x8fT?'
p873
tp874
bag29
(g30
(I0
tp875
g32
tp876
Rp877
(I1
(I1
tp878
g6
I00
S'0\x0bO\x17\xd9\x8fT?'
p879
tp880
bag29
(g30
(I0
tp881
g32
tp882
Rp883
(I1
(I1
tp884
g6
I00
S'\x00\x00\x00\x00\x00\x00\x00\x00'
p885
tp886
baa(lp887
g29
(g30
(I0
tp888
g32
tp889
Rp890
(I1
(I1
tp891
g6
I00
S'\xf5\xd0oF\xa5\xd5`?'
p892
tp893
bag29
(g30
(I0
tp894
g32
tp895
Rp896
(I1
(I1
tp897
g6
I00
S'\xf6\xd0oF\xa5\xd5`?'
p898
tp899
bag29
(g30
(I0
tp900
g32
tp901
Rp902
(I1
(I1
tp903
g6
I00
S'\x00\x00\x00\x00\x00\x00\x00\x00'
p904
tp905
baa(lp906
g29
(g30
(I0
tp907
g32
tp908
Rp909
(I1
(I1
tp910
g6
I00
S'\x12\xb1iQ\xf9\x83[?'
p911
tp912
bag29
(g30
(I0
tp913
g32
tp914
Rp915
(I1
(I1
tp916
g6
I00
S'\x14\xb1iQ\xf9\x83[?'
p917
tp918
bag29
(g30
(I0
tp919
g32
tp920
Rp921
(I1
(I1
tp922
g6
I00
S'\x00\x00\x00\x00\x00\x00\x00\x00'
p923
tp924
baa(lp925
g29
(g30
(I0
tp926
g32
tp927
Rp928
(I1
(I1
tp929
g6
I00
S'\x8f\x1c\xde5\xbb\x99W?'
p930
tp931
bag29
(g30
(I0
tp932
g32
tp933
Rp934
(I1
(I1
tp935
g6
I00
S'\x92\x1c\xde5\xbb\x99W?'
p936
tp937
bag29
(g30
(I0
tp938
g32
tp939
Rp940
(I1
(I1
tp941
g6
I00
S'\x00\x00\x00\x00\x00\x00\x00\x00'
p942
tp943
baa(lp944
g29
(g30
(I0
tp945
g32
tp946
Rp947
(I1
(I1
tp948
g6
I00
S':\xc7v\xa7.\xf6Z?'
p949
tp950
bag29
(g30
(I0
tp951
g32
tp952
Rp953
(I1
(I1
tp954
g6
I00
S'<\xc7v\xa7.\xf6Z?'
p955
tp956
bag29
(g30
(I0
tp957
g32
tp958
Rp959
(I1
(I1
tp960
g6
I00
S'\x00\x00\x00\x00\x00\x00\x00\x00'
p961
tp962
baa(lp963
g29
(g30
(I0
tp964
g32
tp965
Rp966
(I1
(I1
tp967
g6
I00
S'\x0e_\xc4\\\xf7\x1cV?'
p968
tp969
bag29
(g30
(I0
tp970
g32
tp971
Rp972
(I1
(I1
tp973
g6
I00
S'\x10_\xc4\\\xf7\x1cV?'
p974
tp975
bag29
(g30
(I0
tp976
g32
tp977
Rp978
(I1
(I1
tp979
g6
I00
S'\x00\x00\x00\x00\x00\x00\x00\x00'
p980
tp981
baa(lp982
g29
(g30
(I0
tp983
g32
tp984
Rp985
(I1
(I1
tp986
g6
I00
S'k\xfa\xf9h\x10\x80U?'
p987
tp988
bag29
(g30
(I0
tp989
g32
tp990
Rp991
(I1
(I1
tp992
g6
I00
S'n\xfa\xf9h\x10\x80U?'
p993
tp994
bag29
(g30
(I0
tp995
g32
tp996
Rp997
(I1
(I1
tp998
g6
I00
S'\x00\x00\x00\x00\x00\x00\x00\x00'
p999
tp1000
baa(lp1001
g29
(g30
(I0
tp1002
g32
tp1003
Rp1004
(I1
(I1
tp1005
g6
I00
S'b\xd7ye\xa9C]?'
p1006
tp1007
bag29
(g30
(I0
tp1008
g32
tp1009
Rp1010
(I1
(I1
tp1011
g6
I00
S'f\xd7ye\xa9C]?'
p1012
tp1013
bag29
(g30
(I0
tp1014
g32
tp1015
Rp1016
(I1
(I1
tp1017
g6
I00
S'\x00\x00\x00\x00\x00\x00\x00\x00'
p1018
tp1019
baa(lp1020
g29
(g30
(I0
tp1021
g32
tp1022
Rp1023
(I1
(I1
tp1024
g6
I00
S't1\x11\x07\xcd\x9bX?'
p1025
tp1026
bag29
(g30
(I0
tp1027
g32
tp1028
Rp1029
(I1
(I1
tp1030
g6
I00
S'x1\x11\x07\xcd\x9bX?'
p1031
tp1032
bag29
(g30
(I0
tp1033
g32
tp1034
Rp1035
(I1
(I1
tp1036
g6
I00
S'\x00\x00\x00\x00\x00\x00\x00\x00'
p1037
tp1038
baa(lp1039
g29
(g30
(I0
tp1040
g32
tp1041
Rp1042
(I1
(I1
tp1043
g6
I00
S'\x11\x1ae-c\xedY?'
p1044
tp1045
bag29
(g30
(I0
tp1046
g32
tp1047
Rp1048
(I1
(I1
tp1049
g6
I00
S'\x14\x1ae-c\xedY?'
p1050
tp1051
bag29
(g30
(I0
tp1052
g32
tp1053
Rp1054
(I1
(I1
tp1055
g6
I00
S'\x00\x00\x00\x00\x00\x00\x00\x00'
p1056
tp1057
baa(lp1058
g29
(g30
(I0
tp1059
g32
tp1060
Rp1061
(I1
(I1
tp1062
g6
I00
S',\xea\xb1\x16\xed\xc8Z?'
p1063
tp1064
bag29
(g30
(I0
tp1065
g32
tp1066
Rp1067
(I1
(I1
tp1068
g6
I00
S'0\xea\xb1\x16\xed\xc8Z?'
p1069
tp1070
bag29
(g30
(I0
tp1071
g32
tp1072
Rp1073
(I1
(I1
tp1074
g6
I00
S'\x00\x00\x00\x00\x00\x00\x00\x00'
p1075
tp1076
baa(lp1077
g29
(g30
(I0
tp1078
g32
tp1079
Rp1080
(I1
(I1
tp1081
g6
I00
S'\xa0\x14\xbc\xe8R\xab`?'
p1082
tp1083
bag29
(g30
(I0
tp1084
g32
tp1085
Rp1086
(I1
(I1
tp1087
g6
I00
S'\xa2\x14\xbc\xe8R\xab`?'
p1088
tp1089
bag29
(g30
(I0
tp1090
g32
tp1091
Rp1092
(I1
(I1
tp1093
g6
I00
S'\x00\x00\x00\x00\x00\x00\x00\x00'
p1094
tp1095
baa(lp1096
g29
(g30
(I0
tp1097
g32
tp1098
Rp1099
(I1
(I1
tp1100
g6
I00
S'J\xc7\xa3\x1d\xc6\x7f_?'
p1101
tp1102
bag29
(g30
(I0
tp1103
g32
tp1104
Rp1105
(I1
(I1
tp1106
g6
I00
S'M\xc7\xa3\x1d\xc6\x7f_?'
p1107
tp1108
bag29
(g30
(I0
tp1109
g32
tp1110
Rp1111
(I1
(I1
tp1112
g6
I00
S'\x00\x00\x00\x00\x00\x00\x00\x00'
p1113
tp1114
baa(lp1115
g29
(g30
(I0
tp1116
g32
tp1117
Rp1118
(I1
(I1
tp1119
g6
I00
S'\x00\x9fY\xdfsC^?'
p1120
tp1121
bag29
(g30
(I0
tp1122
g32
tp1123
Rp1124
(I1
(I1
tp1125
g6
I00
S'\x02\x9fY\xdfsC^?'
p1126
tp1127
bag29
(g30
(I0
tp1128
g32
tp1129
Rp1130
(I1
(I1
tp1131
g6
I00
S'\x00\x00\x00\x00\x00\x00\x00\x00'
p1132
tp1133
baa(lp1134
g29
(g30
(I0
tp1135
g32
tp1136
Rp1137
(I1
(I1
tp1138
g6
I00
S')b\x03\xfa\xe8\xac_?'
p1139
tp1140
bag29
(g30
(I0
tp1141
g32
tp1142
Rp1143
(I1
(I1
tp1144
g6
I00
S'+b\x03\xfa\xe8\xac_?'
p1145
tp1146
bag29
(g30
(I0
tp1147
g32
tp1148
Rp1149
(I1
(I1
tp1150
g6
I00
S'\x00\x00\x00\x00\x00\x00\x00\x00'
p1151
tp1152
baa(lp1153
g29
(g30
(I0
tp1154
g32
tp1155
Rp1156
(I1
(I1
tp1157
g6
I00
S'\x9c6M\xbevp_?'
p1158
tp1159
bag29
(g30
(I0
tp1160
g32
tp1161
Rp1162
(I1
(I1
tp1163
g6
I00
S'\x9d6M\xbevp_?'
p1164
tp1165
bag29
(g30
(I0
tp1166
g32
tp1167
Rp1168
(I1
(I1
tp1169
g6
I00
S'\x00\x00\x00\x00\x00\x00\x00\x00'
p1170
tp1171
baa(lp1172
g29
(g30
(I0
tp1173
g32
tp1174
Rp1175
(I1
(I1
tp1176
g6
I00
S'-\xccB\x97\x10;`?'
p1177
tp1178
bag29
(g30
(I0
tp1179
g32
tp1180
Rp1181
(I1
(I1
tp1182
g6
I00
S'-\xccB\x97\x10;`?'
p1183
tp1184
bag29
(g30
(I0
tp1185
g32
tp1186
Rp1187
(I1
(I1
tp1188
g6
I00
S'\x00\x00\x00\x00\x00\x00\x00\x00'
p1189
tp1190
baa(lp1191
g29
(g30
(I0
tp1192
g32
tp1193
Rp1194
(I1
(I1
tp1195
g6
I00
S'\x01\xf8\xa7\xf4\xec\x81c?'
p1196
tp1197
bag29
(g30
(I0
tp1198
g32
tp1199
Rp1200
(I1
(I1
tp1201
g6
I00
S'\x01\xf8\xa7\xf4\xec\x81c?'
p1202
tp1203
bag29
(g30
(I0
tp1204
g32
tp1205
Rp1206
(I1
(I1
tp1207
g6
I00
S'\x00\x00\x00\x00\x00\x00\x00\x00'
p1208
tp1209
baa(lp1210
g29
(g30
(I0
tp1211
g32
tp1212
Rp1213
(I1
(I1
tp1214
g6
I00
S'\x8b\x17\x0bR\xc9\xc8f?'
p1215
tp1216
bag29
(g30
(I0
tp1217
g32
tp1218
Rp1219
(I1
(I1
tp1220
g6
I00
S'\x8b\x17\x0bR\xc9\xc8f?'
p1221
tp1222
bag29
(g30
(I0
tp1223
g32
tp1224
Rp1225
(I1
(I1
tp1226
g6
I00
S'\x00\x00\x00\x00\x00\x00\x00\x00'
p1227
tp1228
baa(lp1229
g29
(g30
(I0
tp1230
g32
tp1231
Rp1232
(I1
(I1
tp1233
g6
I00
S'\x157n\xaf\xa5\x0fj?'
p1234
tp1235
bag29
(g30
(I0
tp1236
g32
tp1237
Rp1238
(I1
(I1
tp1239
g6
I00
S'\x157n\xaf\xa5\x0fj?'
p1240
tp1241
bag29
(g30
(I0
tp1242
g32
tp1243
Rp1244
(I1
(I1
tp1245
g6
I00
S'\x00\x00\x00\x00\x00\x00\x00\x00'
p1246
tp1247
baa(lp1248
g29
(g30
(I0
tp1249
g32
tp1250
Rp1251
(I1
(I1
tp1252
g6
I00
S'\x9fV\xd1\x0c\x82Vm?'
p1253
tp1254
bag29
(g30
(I0
tp1255
g32
tp1256
Rp1257
(I1
(I1
tp1258
g6
I00
S'\x9fV\xd1\x0c\x82Vm?'
p1259
tp1260
bag29
(g30
(I0
tp1261
g32
tp1262
Rp1263
(I1
(I1
tp1264
g6
I00
S'\x00\x00\x00\x00\x00\x00\x00\x00'
p1265
tp1266
baa(lp1267
g29
(g30
(I0
tp1268
g32
tp1269
Rp1270
(I1
(I1
tp1271
g6
I00
S'\x14;\x1a5\xafNp?'
p1272
tp1273
bag29
(g30
(I0
tp1274
g32
tp1275
Rp1276
(I1
(I1
tp1277
g6
I00
S'\x14;\x1a5\xafNp?'
p1278
tp1279
bag29
(g30
(I0
tp1280
g32
tp1281
Rp1282
(I1
(I1
tp1283
g6
I00
S'\x00\x00\x00\x00\x00\x00\x00\x00'
p1284
tp1285
baa(lp1286
g29
(g30
(I0
tp1287
g32
tp1288
Rp1289
(I1
(I1
tp1290
g6
I00
S'\xfe\xd0\xccc\x1d\xf2q?'
p1291
tp1292
bag29
(g30
(I0
tp1293
g32
tp1294
Rp1295
(I1
(I1
tp1296
g6
I00
S'\xfe\xd0\xccc\x1d\xf2q?'
p1297
tp1298
bag29
(g30
(I0
tp1299
g32
tp1300
Rp1301
(I1
(I1
tp1302
g6
I00
S'\x00\x00\x00\x00\x00\x00\x00\x00'
p1303
tp1304
baa(lp1305
g29
(g30
(I0
tp1306
g32
tp1307
Rp1308
(I1
(I1
tp1309
g6
I00
S'\xc3`~\x92\x8b\x95s?'
p1310
tp1311
bag29
(g30
(I0
tp1312
g32
tp1313
Rp1314
(I1
(I1
tp1315
g6
I00
S'\xc3`~\x92\x8b\x95s?'
p1316
tp1317
bag29
(g30
(I0
tp1318
g32
tp1319
Rp1320
(I1
(I1
tp1321
g6
I00
S'\x00\x00\x00\x00\x00\x00\x00\x00'
p1322
tp1323
baa(lp1324
g29
(g30
(I0
tp1325
g32
tp1326
Rp1327
(I1
(I1
tp1328
g6
I00
S'\x88\xf0/\xc1\xf98u?'
p1329
tp1330
bag29
(g30
(I0
tp1331
g32
tp1332
Rp1333
(I1
(I1
tp1334
g6
I00
S'\x88\xf0/\xc1\xf98u?'
p1335
tp1336
bag29
(g30
(I0
tp1337
g32
tp1338
Rp1339
(I1
(I1
tp1340
g6
I00
S'\x00\x00\x00\x00\x00\x00\x00\x00'
p1341
tp1342
baa(lp1343
g29
(g30
(I0
tp1344
g32
tp1345
Rp1346
(I1
(I1
tp1347
g6
I00
S'M\x80\xe1\xefg\xdcv?'
p1348
tp1349
bag29
(g30
(I0
tp1350
g32
tp1351
Rp1352
(I1
(I1
tp1353
g6
I00
S'M\x80\xe1\xefg\xdcv?'
p1354
tp1355
bag29
(g30
(I0
tp1356
g32
tp1357
Rp1358
(I1
(I1
tp1359
g6
I00
S'\x00\x00\x00\x00\x00\x00\x00\x00'
p1360
tp1361
baa(lp1362
g29
(g30
(I0
tp1363
g32
tp1364
Rp1365
(I1
(I1
tp1366
g6
I00
S'\x12\x10\x93\x1e\xd6\x7fx?'
p1367
tp1368
bag29
(g30
(I0
tp1369
g32
tp1370
Rp1371
(I1
(I1
tp1372
g6
I00
S'\x12\x10\x93\x1e\xd6\x7fx?'
p1373
tp1374
bag29
(g30
(I0
tp1375
g32
tp1376
Rp1377
(I1
(I1
tp1378
g6
I00
S'\x00\x00\x00\x00\x00\x00\x00\x00'
p1379
tp1380
baa(lp1381
g29
(g30
(I0
tp1382
g32
tp1383
Rp1384
(I1
(I1
tp1385
g6
I00
S'\xfc\xa5EMD#z?'
p1386
tp1387
bag29
(g30
(I0
tp1388
g32
tp1389
Rp1390
(I1
(I1
tp1391
g6
I00
S'\xfc\xa5EMD#z?'
p1392
tp1393
bag29
(g30
(I0
tp1394
g32
tp1395
Rp1396
(I1
(I1
tp1397
g6
I00
S'\x00\x00\x00\x00\x00\x00\x00\x00'
p1398
tp1399
baa(lp1400
g29
(g30
(I0
tp1401
g32
tp1402
Rp1403
(I1
(I1
tp1404
g6
I00
S'\xc15\xf7{\xb2\xc6{?'
p1405
tp1406
bag29
(g30
(I0
tp1407
g32
tp1408
Rp1409
(I1
(I1
tp1410
g6
I00
S'\xc15\xf7{\xb2\xc6{?'
p1411
tp1412
bag29
(g30
(I0
tp1413
g32
tp1414
Rp1415
(I1
(I1
tp1416
g6
I00
S'\x00\x00\x00\x00\x00\x00\x00\x00'
p1417
tp1418
baa(lp1419
g29
(g30
(I0
tp1420
g32
tp1421
Rp1422
(I1
(I1
tp1423
g6
I00
S'\x86\xc5\xa8\xaa j}?'
p1424
tp1425
bag29
(g30
(I0
tp1426
g32
tp1427
Rp1428
(I1
(I1
tp1429
g6
I00
S'\x86\xc5\xa8\xaa j}?'
p1430
tp1431
bag29
(g30
(I0
tp1432
g32
tp1433
Rp1434
(I1
(I1
tp1435
g6
I00
S'\x00\x00\x00\x00\x00\x00\x00\x00'
p1436
tp1437
baa(lp1438
g29
(g30
(I0
tp1439
g32
tp1440
Rp1441
(I1
(I1
tp1442
g6
I00
S'KUZ\xd9\x8e\r\x7f?'
p1443
tp1444
bag29
(g30
(I0
tp1445
g32
tp1446
Rp1447
(I1
(I1
tp1448
g6
I00
S'KUZ\xd9\x8e\r\x7f?'
p1449
tp1450
bag29
(g30
(I0
tp1451
g32
tp1452
Rp1453
(I1
(I1
tp1454
g6
I00
S'\x00\x00\x00\x00\x00\x00\x00\x00'
p1455
tp1456
baa(lp1457
g29
(g30
(I0
tp1458
g32
tp1459
Rp1460
(I1
(I1
tp1461
g6
I00
S'\x88\xf2\x05\x84~X\x80?'
p1462
tp1463
bag29
(g30
(I0
tp1464
g32
tp1465
Rp1466
(I1
(I1
tp1467
g6
I00
S'\x88\xf2\x05\x84~X\x80?'
p1468
tp1469
bag29
(g30
(I0
tp1470
g32
tp1471
Rp1472
(I1
(I1
tp1473
g6
I00
S'\x00\x00\x00\x00\x00\x00\x00\x00'
p1474
tp1475
baa(lp1476
g29
(g30
(I0
tp1477
g32
tp1478
Rp1479
(I1
(I1
tp1480
g6
I00
S'}=_\x9b5*\x81?'
p1481
tp1482
bag29
(g30
(I0
tp1483
g32
tp1484
Rp1485
(I1
(I1
tp1486
g6
I00
S'}=_\x9b5*\x81?'
p1487
tp1488
bag29
(g30
(I0
tp1489
g32
tp1490
Rp1491
(I1
(I1
tp1492
g6
I00
S'\x00\x00\x00\x00\x00\x00\x00\x00'
p1493
tp1494
baa(lp1495
g29
(g30
(I0
tp1496
g32
tp1497
Rp1498
(I1
(I1
tp1499
g6
I00
S'`\x05\xb8\xb2\xec\xfb\x81?'
p1500
tp1501
bag29
(g30
(I0
tp1502
g32
tp1503
Rp1504
(I1
(I1
tp1505
g6
I00
S'`\x05\xb8\xb2\xec\xfb\x81?'
p1506
tp1507
bag29
(g30
(I0
tp1508
g32
tp1509
Rp1510
(I1
(I1
tp1511
g6
I00
S'\x00\x00\x00\x00\x00\x00\x00\x00'
p1512
tp1513
baa(lp1514
g29
(g30
(I0
tp1515
g32
tp1516
Rp1517
(I1
(I1
tp1518
g6
I00
S'B\xcd\x10\xca\xa3\xcd\x82?'
p1519
tp1520
bag29
(g30
(I0
tp1521
g32
tp1522
Rp1523
(I1
(I1
tp1524
g6
I00
S'B\xcd\x10\xca\xa3\xcd\x82?'
p1525
tp1526
bag29
(g30
(I0
tp1527
g32
tp1528
Rp1529
(I1
(I1
tp1530
g6
I00
S'\x00\x00\x00\x00\x00\x00\x00\x00'
p1531
tp1532
baa(lp1533
g29
(g30
(I0
tp1534
g32
tp1535
Rp1536
(I1
(I1
tp1537
g6
I00
S'$\x95i\xe1Z\x9f\x83?'
p1538
tp1539
bag29
(g30
(I0
tp1540
g32
tp1541
Rp1542
(I1
(I1
tp1543
g6
I00
S'$\x95i\xe1Z\x9f\x83?'
p1544
tp1545
bag29
(g30
(I0
tp1546
g32
tp1547
Rp1548
(I1
(I1
tp1549
g6
I00
S'\x00\x00\x00\x00\x00\x00\x00\x00'
p1550
tp1551
baa(lp1552
g29
(g30
(I0
tp1553
g32
tp1554
Rp1555
(I1
(I1
tp1556
g6
I00
S'\x06]\xc2\xf8\x11q\x84?'
p1557
tp1558
bag29
(g30
(I0
tp1559
g32
tp1560
Rp1561
(I1
(I1
tp1562
g6
I00
S'\x06]\xc2\xf8\x11q\x84?'
p1563
tp1564
bag29
(g30
(I0
tp1565
g32
tp1566
Rp1567
(I1
(I1
tp1568
g6
I00
S'\x00\x00\x00\x00\x00\x00\x00\x00'
p1569
tp1570
baa(lp1571
g29
(g30
(I0
tp1572
g32
tp1573
Rp1574
(I1
(I1
tp1575
g6
I00
S'\xfb\xa7\x1b\x10\xc9B\x85?'
p1576
tp1577
bag29
(g30
(I0
tp1578
g32
tp1579
Rp1580
(I1
(I1
tp1581
g6
I00
S'\xfb\xa7\x1b\x10\xc9B\x85?'
p1582
tp1583
bag29
(g30
(I0
tp1584
g32
tp1585
Rp1586
(I1
(I1
tp1587
g6
I00
S'\x00\x00\x00\x00\x00\x00\x00\x00'
p1588
tp1589
baa(lp1590
g29
(g30
(I0
tp1591
g32
tp1592
Rp1593
(I1
(I1
tp1594
g6
I00
S"\xdeot'\x80\x14\x86?"
p1595
tp1596
bag29
(g30
(I0
tp1597
g32
tp1598
Rp1599
(I1
(I1
tp1600
g6
I00
S"\xdeot'\x80\x14\x86?"
p1601
tp1602
bag29
(g30
(I0
tp1603
g32
tp1604
Rp1605
(I1
(I1
tp1606
g6
I00
S'\x00\x00\x00\x00\x00\x00\x00\x00'
p1607
tp1608
baa(lp1609
g29
(g30
(I0
tp1610
g32
tp1611
Rp1612
(I1
(I1
tp1613
g6
I00
S'\xc07\xcd>7\xe6\x86?'
p1614
tp1615
bag29
(g30
(I0
tp1616
g32
tp1617
Rp1618
(I1
(I1
tp1619
g6
I00
S'\xc07\xcd>7\xe6\x86?'
p1620
tp1621
bag29
(g30
(I0
tp1622
g32
tp1623
Rp1624
(I1
(I1
tp1625
g6
I00
S'\x00\x00\x00\x00\x00\x00\x00\x00'
p1626
tp1627
baa(lp1628
g29
(g30
(I0
tp1629
g32
tp1630
Rp1631
(I1
(I1
tp1632
g6
I00
S'\xa2\xff%V\xee\xb7\x87?'
p1633
tp1634
bag29
(g30
(I0
tp1635
g32
tp1636
Rp1637
(I1
(I1
tp1638
g6
I00
S'\xa2\xff%V\xee\xb7\x87?'
p1639
tp1640
bag29
(g30
(I0
tp1641
g32
tp1642
Rp1643
(I1
(I1
tp1644
g6
I00
S'\x00\x00\x00\x00\x00\x00\x00\x00'
p1645
tp1646
baa(lp1647
g29
(g30
(I0
tp1648
g32
tp1649
Rp1650
(I1
(I1
tp1651
g6
I00
S'\x84\xc7~m\xa5\x89\x88?'
p1652
tp1653
bag29
(g30
(I0
tp1654
g32
tp1655
Rp1656
(I1
(I1
tp1657
g6
I00
S'\x84\xc7~m\xa5\x89\x88?'
p1658
tp1659
bag29
(g30
(I0
tp1660
g32
tp1661
Rp1662
(I1
(I1
tp1663
g6
I00
S'\x00\x00\x00\x00\x00\x00\x00\x00'
p1664
tp1665
baa(lp1666
g29
(g30
(I0
tp1667
g32
tp1668
Rp1669
(I1
(I1
tp1670
g6
I00
S'y\x12\xd8\x84\\[\x89?'
p1671
tp1672
bag29
(g30
(I0
tp1673
g32
tp1674
Rp1675
(I1
(I1
tp1676
g6
I00
S'y\x12\xd8\x84\\[\x89?'
p1677
tp1678
bag29
(g30
(I0
tp1679
g32
tp1680
Rp1681
(I1
(I1
tp1682
g6
I00
S'\x00\x00\x00\x00\x00\x00\x00\x00'
p1683
tp1684
baa(lp1685
g29
(g30
(I0
tp1686
g32
tp1687
Rp1688
(I1
(I1
tp1689
g6
I00
S'\xdf\x88Q\x1f\x1e\xd1\x89?'
p1690
tp1691
bag29
(g30
(I0
tp1692
g32
tp1693
Rp1694
(I1
(I1
tp1695
g6
I00
S'\x00\x0c\xcaIQ\xb7\x89?'
p1696
tp1697
bag29
(g30
(I0
tp1698
g32
tp1699
Rp1700
(I1
(I1
tp1701
g6
I00
S'P\xfc\x18\xeb\xe26\x1a?'
p1702
tp1703
baa(lp1704
g29
(g30
(I0
tp1705
g32
tp1706
Rp1707
(I1
(I1
tp1708
g6
I00
S'\xa3w\x90S*>\x8a?'
p1709
tp1710
bag29
(g30
(I0
tp1711
g32
tp1712
Rp1713
(I1
(I1
tp1714
g6
I00
S'\xf4~\xf6\x8e\xfa\x1b\x8a?'
p1715
tp1716
bag29
(g30
(I0
tp1717
g32
tp1718
Rp1719
(I1
(I1
tp1720
g6
I00
S'P\xfc\x18\xeb\xe26*?'
p1721
tp1722
baa(lp1723
g29
(g30
(I0
tp1724
g32
tp1725
Rp1726
(I1
(I1
tp1727
g6
I00
S'r\x91Z\xfe\xfb\x9e\x8a?'
p1728
tp1729
bag29
(g30
(I0
tp1730
g32
tp1731
Rp1732
(I1
(I1
tp1733
g6
I00
S'`\x98\x89\xc3\xda\x8c\x8a?'
p1734
tp1735
bag29
(g30
(I0
tp1736
g32
tp1737
Rp1738
(I1
(I1
tp1739
g6
I00
S'<\xbdR0*\xa93?'
p1740
tp1741
baa(lp1742
g29
(g30
(I0
tp1743
g32
tp1744
Rp1745
(I1
(I1
tp1746
g6
I00
S'S:\x81\x1cC\xf0\x8a?'
p1747
tp1748
bag29
(g30
(I0
tp1749
g32
tp1750
Rp1751
(I1
(I1
tp1752
g6
I00
S'\xa2\xd1\xeaF=\r\x8b?'
p1753
tp1754
bag29
(g30
(I0
tp1755
g32
tp1756
Rp1757
(I1
(I1
tp1758
g6
I00
S'P\xfc\x18\xeb\xe26:?'
p1759
tp1760
baa(lp1761
g29
(g30
(I0
tp1762
g32
tp1763
Rp1764
(I1
(I1
tp1765
g6
I00
S'\xe3\xf2\xdd\x00\xb00\x8b?'
p1766
tp1767
bag29
(g30
(I0
tp1768
g32
tp1769
Rp1770
(I1
(I1
tp1771
g6
I00
S'3\x04\x98\np\x9e\x8b?'
p1772
tp1773
bag29
(g30
(I0
tp1774
g32
tp1775
Rp1776
(I1
(I1
tp1777
g6
I00
S'\xfc\xa9\xf1\xd2Mb@?'
p1778
tp1779
baa(lp1780
g29
(g30
(I0
tp1781
g32
tp1782
Rp1783
(I1
(I1
tp1784
g6
I00
S'\xb4\xa6K\x1eyb\x8b?'
p1785
tp1786
bag29
(g30
(I0
tp1787
g32
tp1788
Rp1789
(I1
(I1
tp1790
g6
I00
S'\xba\xb4\xc1\x14C>\x8c?'
p1791
tp1792
bag29
(g30
(I0
tp1793
g32
tp1794
Rp1795
(I1
(I1
tp1796
g6
I00
S'\x86\xc9T0*\xa9C?'
p1797
tp1798
baa(lp1799
g29
(g30
(I0
tp1800
g32
tp1801
Rp1802
(I1
(I1
tp1803
g6
I00
S'\xbc\x9b\x05\xfe\xfa\x86\x8b?'
p1804
tp1805
bag29
(g30
(I0
tp1806
g32
tp1807
Rp1808
(I1
(I1
tp1809
g6
I00
S'\x1f=\xe4\xb4\\\xeb\x8c?'
p1810
tp1811
bag29
(g30
(I0
tp1812
g32
tp1813
Rp1814
(I1
(I1
tp1815
g6
I00
S'\x10\xe9\xb7\x8d\x06\xf0F?'
p1816
tp1817
baa(lp1818
g29
(g30
(I0
tp1819
g32
tp1820
Rp1821
(I1
(I1
tp1822
g6
I00
S'\xc7\xd6\x8c\x93\xe4\x9f\x8b?'
p1823
tp1824
bag29
(g30
(I0
tp1825
g32
tp1826
Rp1827
(I1
(I1
tp1828
g6
I00
S'\x82\x7f9\x9f\x0e\xa4\x8d?'
p1829
tp1830
bag29
(g30
(I0
tp1831
g32
tp1832
Rp1833
(I1
(I1
tp1834
g6
I00
S'\x9a\x08\x1b\xeb\xe26J?'
p1835
tp1836
baa(lp1837
g29
(g30
(I0
tp1838
g32
tp1839
Rp1840
(I1
(I1
tp1841
g6
I00
S'\xcb\xb4\x87x-\xaf\x8b?'
p1842
tp1843
bag29
(g30
(I0
tp1844
g32
tp1845
Rp1846
(I1
(I1
tp1847
g6
I00
S'\xec\x1e\x1b:af\x8e?'
p1848
tp1849
bag29
(g30
(I0
tp1850
g32
tp1851
Rp1852
(I1
(I1
tp1853
g6
I00
S'$(~H\xbf}M?'
p1854
tp1855
baa(lp1856
g29
(g30
(I0
tp1857
g32
tp1858
Rp1859
(I1
(I1
tp1860
g6
I00
S'MR\xf4\xf6\t\xb7\x8b?'
p1861
tp1862
bag29
(g30
(I0
tp1863
g32
tp1864
Rp1865
(I1
(I1
tp1866
g6
I00
S'\xc8\x81\x8b; 0\x8f?'
p1867
tp1868
bag29
(g30
(I0
tp1869
g32
tp1870
Rp1871
(I1
(I1
tp1872
g6
I00
S'\xfc\xa9\xf1\xd2MbP?'
p1873
tp1874
baa(lp1875
g29
(g30
(I0
tp1876
g32
tp1877
Rp1878
(I1
(I1
tp1879
g6
I00
S'\x04\x7f\x1f$\xdd\xb9\x8b?'
p1880
tp1881
bag29
(g30
(I0
tp1882
g32
tp1883
Rp1884
(I1
(I1
tp1885
g6
I00
S'~\xd2<\x8e\xe8\xfe\x8f?'
p1886
tp1887
bag29
(g30
(I0
tp1888
g32
tp1889
Rp1890
(I1
(I1
tp1891
g6
I00
S'\xc19\xa3\x01\xbc\x05R?'
p1892
tp1893
baa(lp1894
g29
(g30
(I0
tp1895
g32
tp1896
Rp1897
(I1
(I1
tp1898
g6
I00
S'\xc0\xfa\x12\x04g\xcdr?'
p1899
tp1900
bag29
(g30
(I0
tp1901
g32
tp1902
Rp1903
(I1
(I1
tp1904
g6
I00
S'\x97+\xdc|\xb9\xe9x?'
p1905
tp1906
bag29
(g30
(I0
tp1907
g32
tp1908
Rp1909
(I1
(I1
tp1910
g6
I00
S'\xf9>\x9be\xb2\xfaQ?'
p1911
tp1912
baa(lp1913
g29
(g30
(I0
tp1914
g32
tp1915
Rp1916
(I1
(I1
tp1917
g6
I00
S'\xf46T\xe7u\xa6h?'
p1918
tp1919
bag29
(g30
(I0
tp1920
g32
tp1921
Rp1922
(I1
(I1
tp1923
g6
I00
S'\x9c\x0b\xc8)\xe1Es?'
p1924
tp1925
bag29
(g30
(I0
tp1926
g32
tp1927
Rp1928
(I1
(I1
tp1929
g6
I00
S'D\xfc\xaeqG*R?'
p1930
tp1931
baa(lp1932
g29
(g30
(I0
tp1933
g32
tp1934
Rp1935
(I1
(I1
tp1936
g6
I00
S'/\xf3\xf8<\x11\xc8b?'
p1937
tp1938
bag29
(g30
(I0
tp1939
g32
tp1940
Rp1941
(I1
(I1
tp1942
g6
I00
S'\xf8\xb5\xbefwvq?'
p1943
tp1944
bag29
(g30
(I0
tp1945
g32
tp1946
Rp1947
(I1
(I1
tp1948
g6
I00
S'&\x88\x02T||R?'
p1949
tp1950
baa(lp1951
g29
(g30
(I0
tp1952
g32
tp1953
Rp1954
(I1
(I1
tp1955
g6
I00
S'Y\x14\xa5\xb2\x8a\xd9^?'
p1956
tp1957
bag29
(g30
(I0
tp1958
g32
tp1959
Rp1960
(I1
(I1
tp1961
g6
I00
S')8x\x012\xf5p?'
p1962
tp1963
bag29
(g30
(I0
tp1964
g32
tp1965
Rp1966
(I1
(I1
tp1967
g6
I00
S'\xd1\xc6&\x94\xee\xe5R?'
p1968
tp1969
baa(lp1970
g29
(g30
(I0
tp1971
g32
tp1972
Rp1973
(I1
(I1
tp1974
g6
I00
S'\xc3\x7f\xf2\x02\xdd\x85Z?'
p1975
tp1976
bag29
(g30
(I0
tp1977
g32
tp1978
Rp1979
(I1
(I1
tp1980
g6
I00
S'\x18L\xb2s\x11\xecp?'
p1981
tp1982
bag29
(g30
(I0
tp1983
g32
tp1984
Rp1985
(I1
(I1
tp1986
g6
I00
S'7\x14\xa4\xbb\xf4%S?'
p1987
tp1988
baa(lp1989
g29
(g30
(I0
tp1990
g32
tp1991
Rp1992
(I1
(I1
tp1993
g6
I00
S'\x13od\xbb\x10\x9aW?'
p1994
tp1995
bag29
(g30
(I0
tp1996
g32
tp1997
Rp1998
(I1
(I1
tp1999
g6
I00
S'\x12i\x99\x7f\x11-q?'
p2000
tp2001
bag29
(g30
(I0
tp2002
g32
tp2003
Rp2004
(I1
(I1
tp2005
g6
I00
S'C3\x02|\xfe\x87S?'
p2006
tp2007
baa(lp2008
g29
(g30
(I0
tp2009
g32
tp2010
Rp2011
(I1
(I1
tp2012
g6
I00
S'>\xb7\x8b\xf7\x8d\x96U?'
p2013
tp2014
bag29
(g30
(I0
tp2015
g32
tp2016
Rp2017
(I1
(I1
tp2018
g6
I00
S'"\x9e7\x1c\x7f\x92q?'
p2019
tp2020
bag29
(g30
(I0
tp2021
g32
tp2022
Rp2023
(I1
(I1
tp2024
g6
I00
S'`W)\x8ep\x04T?'
p2025
tp2026
baa(lp2027
g29
(g30
(I0
tp2028
g32
tp2029
Rp2030
(I1
(I1
tp2031
g6
I00
S'\x06t]\xed\x1e?T?'
p2032
tp2033
bag29
(g30
(I0
tp2034
g32
tp2035
Rp2036
(I1
(I1
tp2037
g6
I00
S'e\t\xc1\x8fW\x04r?'
p2038
tp2039
bag29
(g30
(I0
tp2040
g32
tp2041
Rp2042
(I1
(I1
tp2043
g6
I00
S'j\x97\xf9/\xe2\x95T?'
p2044
tp2045
baa(lp2046
g29
(g30
(I0
tp2047
g32
tp2048
Rp2049
(I1
(I1
tp2050
g6
I00
S'\x03\xc5S\xc2\x0fpS?'
p2051
tp2052
bag29
(g30
(I0
tp2053
g32
tp2054
Rp2055
(I1
(I1
tp2056
g6
I00
S'F\x10\xbc\xdf\xa0sr?'
p2057
tp2058
bag29
(g30
(I0
tp2059
g32
tp2060
Rp2061
(I1
(I1
tp2062
g6
I00
S'\xb6\xe6\xbaQ\r8U?'
p2063
tp2064
baa(lp2065
g29
(g30
(I0
tp2066
g32
tp2067
Rp2068
(I1
(I1
tp2069
g6
I00
S'\xc0\x11\xc1\x05\xb7\x11S?'
p2070
tp2071
bag29
(g30
(I0
tp2072
g32
tp2073
Rp2074
(I1
(I1
tp2075
g6
I00
S'\r\xa3\xe7"\xb1\xd6r?'
p2076
tp2077
bag29
(g30
(I0
tp2078
g32
tp2079
Rp2080
(I1
(I1
tp2081
g6
I00
S'\x8c\xe3\xda\x0bH\xe7U?'
p2082
tp2083
baa(lp2084
g29
(g30
(I0
tp2085
g32
tp2086
Rp2087
(I1
(I1
tp2088
g6
I00
S'\x98\x9d3\xcd;\x12S?'
p2089
tp2090
bag29
(g30
(I0
tp2091
g32
tp2092
Rp2093
(I1
(I1
tp2094
g6
I00
S"\xad\xe9\xb8\xcag's?"
p2095
tp2096
bag29
(g30
(I0
tp2097
g32
tp2098
Rp2099
(I1
(I1
tp2100
g6
I00
S'\xb5$\xb0\xcc=\xa0V?'
p2101
tp2102
baa(lp2103
g29
(g30
(I0
tp2104
g32
tp2105
Rp2106
(I1
(I1
tp2107
g6
I00
S'=\xb3\xb1\xd9RbS?'
p2108
tp2109
bag29
(g30
(I0
tp2110
g32
tp2111
Rp2112
(I1
(I1
tp2113
g6
I00
S'\xc1U=\x01Ebs?'
p2114
tp2115
bag29
(g30
(I0
tp2116
g32
tp2117
Rp2118
(I1
(I1
tp2119
g6
I00
S'\xf8\x83\xa7\xb7\xcb_W?'
p2120
tp2121
baa(lp2122
g29
(g30
(I0
tp2123
g32
tp2124
Rp2125
(I1
(I1
tp2126
g6
I00
S';h;5\x94\xf3S?'
p2127
tp2128
bag29
(g30
(I0
tp2129
g32
tp2130
Rp2131
(I1
(I1
tp2132
g6
I00
S'\xa0\xe0\x1d\xe7\xe6\x85s?'
p2133
tp2134
bag29
(g30
(I0
tp2135
g32
tp2136
Rp2137
(I1
(I1
tp2138
g6
I00
S'\xd1\xc7\xcbf\xf3"X?'
p2139
tp2140
baa(lp2141
g29
(g30
(I0
tp2142
g32
tp2143
Rp2144
(I1
(I1
tp2145
g6
I00
S'<\xbc\x0cCs\xaeU?'
p2146
tp2147
bag29
(g30
(I0
tp2148
g32
tp2149
Rp2150
(I1
(I1
tp2151
g6
I00
S'\x17\x8a\xea\xab`\xb2s?'
p2152
tp2153
bag29
(g30
(I0
tp2154
g32
tp2155
Rp2156
(I1
(I1
tp2157
g6
I00
S'\x83\xaf6\xee\x18\x1aY?'
p2158
tp2159
baa(lp2160
g29
(g30
(I0
tp2161
g32
tp2162
Rp2163
(I1
(I1
tp2164
g6
I00
S'\xfe%G\x87\x83{W?'
p2165
tp2166
bag29
(g30
(I0
tp2167
g32
tp2168
Rp2169
(I1
(I1
tp2170
g6
I00
S'\xe9\x88\xebh\xa4\xbcs?'
p2171
tp2172
bag29
(g30
(I0
tp2173
g32
tp2174
Rp2175
(I1
(I1
tp2176
g6
I00
S'\xdd\xc5\xcb\x99\xee\x05Z?'
p2177
tp2178
baa(lp2179
g29
(g30
(I0
tp2180
g32
tp2181
Rp2182
(I1
(I1
tp2183
g6
I00
S'=\xfd\xc2\xe52\xf6W?'
p2184
tp2185
bag29
(g30
(I0
tp2186
g32
tp2187
Rp2188
(I1
(I1
tp2189
g6
I00
S'\x92\x15+\x15\xac\x8bs?'
p2190
tp2191
bag29
(g30
(I0
tp2192
g32
tp2193
Rp2194
(I1
(I1
tp2195
g6
I00
S'1\xc5\xf4\x87J\xafZ?'
p2196
tp2197
baa(lp2198
g29
(g30
(I0
tp2199
g32
tp2200
Rp2201
(I1
(I1
tp2202
g6
I00
S'\x03\x96\x95\x9bL\xa1X?'
p2203
tp2204
bag29
(g30
(I0
tp2205
g32
tp2206
Rp2207
(I1
(I1
tp2208
g6
I00
S'"\xb5S\xc3RSs?'
p2209
tp2210
bag29
(g30
(I0
tp2211
g32
tp2212
Rp2213
(I1
(I1
tp2214
g6
I00
S'\xfeV\xeal\xadV[?'
p2215
tp2216
baa(lp2217
g29
(g30
(I0
tp2218
g32
tp2219
Rp2220
(I1
(I1
tp2221
g6
I00
S'J8\xb5\xa2\x8b\xf9Z?'
p2222
tp2223
bag29
(g30
(I0
tp2224
g32
tp2225
Rp2226
(I1
(I1
tp2227
g6
I00
S'\xfe\x18a\xf3\x9d)s?'
p2228
tp2229
bag29
(g30
(I0
tp2230
g32
tp2231
Rp2232
(I1
(I1
tp2233
g6
I00
S'k\xeb\x03\xe7\xa81\\?'
p2234
tp2235
baa(lp2236
g29
(g30
(I0
tp2237
g32
tp2238
Rp2239
(I1
(I1
tp2240
g6
I00
S'\xc0[Kl;\x07]?'
p2241
tp2242
bag29
(g30
(I0
tp2243
g32
tp2244
Rp2245
(I1
(I1
tp2246
g6
I00
S'\x87\xc2\xb0\x1f\xbb\xf1r?'
p2247
tp2248
bag29
(g30
(I0
tp2249
g32
tp2250
Rp2251
(I1
(I1
tp2252
g6
I00
S'\xbb&8\x15\xfb\xfc\\?'
p2253
tp2254
baa(lp2255
g29
(g30
(I0
tp2256
g32
tp2257
Rp2258
(I1
(I1
tp2259
g6
I00
S'\x95\t\xab\x8b\n\xc9^?'
p2260
tp2261
bag29
(g30
(I0
tp2262
g32
tp2263
Rp2264
(I1
(I1
tp2265
g6
I00
S'\xebT\x13[3\xb3r?'
p2266
tp2267
bag29
(g30
(I0
tp2268
g32
tp2269
Rp2270
(I1
(I1
tp2271
g6
I00
S'x\t\x07\xa7\x16\xb9]?'
p2272
tp2273
baa(lp2274
g29
(g30
(I0
tp2275
g32
tp2276
Rp2277
(I1
(I1
tp2278
g6
I00
S'\xb4\xbd\x01/:\x1e`?'
p2279
tp2280
bag29
(g30
(I0
tp2281
g32
tp2282
Rp2283
(I1
(I1
tp2284
g6
I00
S'\r[\x9bP\xc1ur?'
p2285
tp2286
bag29
(g30
(I0
tp2287
g32
tp2288
Rp2289
(I1
(I1
tp2290
g6
I00
S'>\xd8b\xbc\xa2f^?'
p2291
tp2292
baa(lp2293
g29
(g30
(I0
tp2294
g32
tp2295
Rp2296
(I1
(I1
tp2297
g6
I00
S'\xc0\x00\xb8-e\xb0`?'
p2298
tp2299
bag29
(g30
(I0
tp2300
g32
tp2301
Rp2302
(I1
(I1
tp2303
g6
I00
S'\xf3\xb1\x9b\xff\xf5?r?'
p2304
tp2305
bag29
(g30
(I0
tp2306
g32
tp2307
Rp2308
(I1
(I1
tp2309
g6
I00
S'\xf8\xb6\x11\xd5\x81\x06_?'
p2310
tp2311
baa(lp2312
g29
(g30
(I0
tp2313
g32
tp2314
Rp2315
(I1
(I1
tp2316
g6
I00
S'\x02{\x97^I\x1ba?'
p2317
tp2318
bag29
(g30
(I0
tp2319
g32
tp2320
Rp2321
(I1
(I1
tp2322
g6
I00
S'\x90\xa3\xdbn\x18\x17r?'
p2323
tp2324
bag29
(g30
(I0
tp2325
g32
tp2326
Rp2327
(I1
(I1
tp2328
g6
I00
S'C\x0c\xe5z\xcb\x99_?'
p2329
tp2330
baa(lp2331
g29
(g30
(I0
tp2332
g32
tp2333
Rp2334
(I1
(I1
tp2335
g6
I00
S"\xc5n\xa7'\\ga?"
p2336
tp2337
bag29
(g30
(I0
tp2338
g32
tp2339
Rp2340
(I1
(I1
tp2341
g6
I00
S'\t\xd5\x86\xc1p\xfbq?'
p2342
tp2343
bag29
(g30
(I0
tp2344
g32
tp2345
Rp2346
(I1
(I1
tp2347
g6
I00
S'\x80$\xdfi\xdf\x10`?'
p2348
tp2349
baa(lp2350
g29
(g30
(I0
tp2351
g32
tp2352
Rp2353
(I1
(I1
tp2354
g6
I00
S'\x90\xa2\xfc\xf9=\x84`?'
p2355
tp2356
bag29
(g30
(I0
tp2357
g32
tp2358
Rp2359
(I1
(I1
tp2360
g6
I00
S'\xfe\xb3\x1e\x07\xd5\xe9q?'
p2361
tp2362
bag29
(g30
(I0
tp2363
g32
tp2364
Rp2365
(I1
(I1
tp2366
g6
I00
S'\xc8\xb7y\x14R.`?'
p2367
tp2368
baa(lp2369
g29
(g30
(I0
tp2370
g32
tp2371
Rp2372
(I1
(I1
tp2373
g6
I00
S'\x06\xb4\x1d\n\x95M\\?'
p2374
tp2375
bag29
(g30
(I0
tp2376
g32
tp2377
Rp2378
(I1
(I1
tp2379
g6
I00
S'%3\xdf4\xf5as?'
p2380
tp2381
bag29
(g30
(I0
tp2382
g32
tp2383
Rp2384
(I1
(I1
tp2385
g6
I00
S'\x8e\x9c\xba\xa5hL^?'
p2386
tp2387
baa(lp2388
g29
(g30
(I0
tp2389
g32
tp2390
Rp2391
(I1
(I1
tp2392
g6
I00
S'\x1aw\xb6\x02\x90\x89`?'
p2393
tp2394
bag29
(g30
(I0
tp2395
g32
tp2396
Rp2397
(I1
(I1
tp2398
g6
I00
S'\xbd\x81-\xd9\xda\x1bv?'
p2399
tp2400
bag29
(g30
(I0
tp2401
g32
tp2402
Rp2403
(I1
(I1
tp2404
g6
I00
S'\x94\x14j\x1b\xe9\x8e]?'
p2405
tp2406
baa(lp2407
g2391
ag2397
ag2403
aa(lp2408
g29
(g30
(I0
tp2409
g32
tp2410
Rp2411
(I1
(I1
tp2412
g6
I00
S'%Ybi\x8c\xe4_?'
p2413
tp2414
bag29
(g30
(I0
tp2415
g32
tp2416
Rp2417
(I1
(I1
tp2418
g6
I00
S'+OfK|\x08w?'
p2419
tp2420
bag29
(g30
(I0
tp2421
g32
tp2422
Rp2423
(I1
(I1
tp2424
g6
I00
S'\x95\xfb\xd7\xea\x12\xf8\\?'
p2425
tp2426
baa(lp2427
g29
(g30
(I0
tp2428
g32
tp2429
Rp2430
(I1
(I1
tp2431
g6
I00
S'\xe8Od\x96\xd5\x15_?'
p2432
tp2433
bag29
(g30
(I0
tp2434
g32
tp2435
Rp2436
(I1
(I1
tp2437
g6
I00
S'\n\xc3\xd5\xd0\xf9\xcew?'
p2438
tp2439
bag29
(g30
(I0
tp2440
g32
tp2441
Rp2442
(I1
(I1
tp2443
g6
I00
S'\xb7\xf1 \xdc+~\\?'
p2444
tp2445
baa(lp2446
g29
(g30
(I0
tp2447
g32
tp2448
Rp2449
(I1
(I1
tp2450
g6
I00
S'\xf6\xee\xca{\xb0Z`?'
p2451
tp2452
bag29
(g30
(I0
tp2453
g32
tp2454
Rp2455
(I1
(I1
tp2456
g6
I00
S'\xdd&v%1\xdcx?'
p2457
tp2458
bag29
(g30
(I0
tp2459
g32
tp2460
Rp2461
(I1
(I1
tp2462
g6
I00
S'\x07\x95\x81\xa2q\x19\\?'
p2463
tp2464
baa(lp2465
g29
(g30
(I0
tp2466
g32
tp2467
Rp2468
(I1
(I1
tp2469
g6
I00
S'\x97n\xa7\xa6]\xe4`?'
p2470
tp2471
bag29
(g30
(I0
tp2472
g32
tp2473
Rp2474
(I1
(I1
tp2475
g6
I00
S't\xc0\xd6-\x1e\xb4y?'
p2476
tp2477
bag29
(g30
(I0
tp2478
g32
tp2479
Rp2480
(I1
(I1
tp2481
g6
I00
S'\x01C*]\x04\xc6[?'
p2482
tp2483
baa(lp2484
g29
(g30
(I0
tp2485
g32
tp2486
Rp2487
(I1
(I1
tp2488
g6
I00
S'M\x17@v\xd7;a?'
p2489
tp2490
bag29
(g30
(I0
tp2491
g32
tp2492
Rp2493
(I1
(I1
tp2494
g6
I00
S']l\xcbgC\\z?'
p2495
tp2496
bag29
(g30
(I0
tp2497
g32
tp2498
Rp2499
(I1
(I1
tp2500
g6
I00
S'\xcb\xdb\x9f\x1a\xad\x81[?'
p2501
tp2502
baa(lp2503
g29
(g30
(I0
tp2504
g32
tp2505
Rp2506
(I1
(I1
tp2507
g6
I00
S'J\xa8Hn\xa4=`?'
p2508
tp2509
bag29
(g30
(I0
tp2510
g32
tp2511
Rp2512
(I1
(I1
tp2513
g6
I00
S'8\x1fg\xf5EVz?'
p2514
tp2515
bag29
(g30
(I0
tp2516
g32
tp2517
Rp2518
(I1
(I1
tp2519
g6
I00
S'\x8d\x0e4n\x81H[?'
p2520
tp2521
baa(lp2522
g29
(g30
(I0
tp2523
g32
tp2524
Rp2525
(I1
(I1
tp2526
g6
I00
S'\x9b\xeb-2\xd38_?'
p2527
tp2528
bag29
(g30
(I0
tp2529
g32
tp2530
Rp2531
(I1
(I1
tp2532
g6
I00
S'\xe9\xe9\x9a\x01\xd7`z?'
p2533
tp2534
bag29
(g30
(I0
tp2535
g32
tp2536
Rp2537
(I1
(I1
tp2538
g6
I00
S'v5mX=\x17[?'
p2539
tp2540
baa(lp2541
g29
(g30
(I0
tp2542
g32
tp2543
Rp2544
(I1
(I1
tp2545
g6
I00
S'^2\x0c.\xb9S`?'
p2546
tp2547
bag29
(g30
(I0
tp2548
g32
tp2549
Rp2550
(I1
(I1
tp2551
g6
I00
S'\xc4\xed\xee\xa5/\xf6z?'
p2552
tp2553
bag29
(g30
(I0
tp2554
g32
tp2555
Rp2556
(I1
(I1
tp2557
g6
I00
S'{\x08\x17R\x0f\xedZ?'
p2558
tp2559
baa(lp2560
g29
(g30
(I0
tp2561
g32
tp2562
Rp2563
(I1
(I1
tp2564
g6
I00
S'\x82P\x1c5F@_?'
p2565
tp2566
bag29
(g30
(I0
tp2567
g32
tp2568
Rp2569
(I1
(I1
tp2570
g6
I00
S'4\xbe\xa3 \xdd\xd3z?'
p2571
tp2572
bag29
(g30
(I0
tp2573
g32
tp2574
Rp2575
(I1
(I1
tp2576
g6
I00
S'\x9fr\xa1\xd2a\xc9Z?'
p2577
tp2578
baa(lp2579
g29
(g30
(I0
tp2580
g32
tp2581
Rp2582
(I1
(I1
tp2583
g6
I00
S'\xeb\xc7U\x17\xe5T^?'
p2584
tp2585
bag29
(g30
(I0
tp2586
g32
tp2587
Rp2588
(I1
(I1
tp2589
g6
I00
S'@`u\x87\x16\xbez?'
p2590
tp2591
bag29
(g30
(I0
tp2592
g32
tp2593
Rp2594
(I1
(I1
tp2595
g6
I00
S'\x9fs\xd8y\xb7\xabZ?'
p2596
tp2597
baa(lp2598
g29
(g30
(I0
tp2599
g32
tp2600
Rp2601
(I1
(I1
tp2602
g6
I00
S'\xfa\x05\xcc/\xc6\xf5_?'
p2603
tp2604
bag29
(g30
(I0
tp2605
g32
tp2606
Rp2607
(I1
(I1
tp2608
g6
I00
S'd\xc8\xe9\xf4\xa3={?'
p2609
tp2610
bag29
(g30
(I0
tp2611
g32
tp2612
Rp2613
(I1
(I1
tp2614
g6
I00
S'\xe4\xda\x92%n\x90Z?'
p2615
tp2616
baa(lp2617
g29
(g30
(I0
tp2618
g32
tp2619
Rp2620
(I1
(I1
tp2621
g6
I00
S'\xf4\xd3\xf2\xc3\xf7\x83`?'
p2622
tp2623
bag29
(g30
(I0
tp2624
g32
tp2625
Rp2626
(I1
(I1
tp2627
g6
I00
S'\xe8\xf3\x18+~\x90{?'
p2628
tp2629
bag29
(g30
(I0
tp2630
g32
tp2631
Rp2632
(I1
(I1
tp2633
g6
I00
S'wGQ\xa6\xd1zZ?'
p2634
tp2635
baa(lp2636
g29
(g30
(I0
tp2637
g32
tp2638
Rp2639
(I1
(I1
tp2640
g6
I00
S'~\xd7\xcd\xc2\x02\xda`?'
p2641
tp2642
bag29
(g30
(I0
tp2643
g32
tp2644
Rp2645
(I1
(I1
tp2646
g6
I00
S'db\x96\xc07\xbf{?'
p2647
tp2648
bag29
(g30
(I0
tp2649
g32
tp2650
Rp2651
(I1
(I1
tp2652
g6
I00
S'*\x9b\xf5\x95\x8djZ?'
p2653
tp2654
baa(lp2655
g29
(g30
(I0
tp2656
g32
tp2657
Rp2658
(I1
(I1
tp2659
g6
I00
S'\x10\xe6\x88\xd1>\x0ca?'
p2660
tp2661
bag29
(g30
(I0
tp2662
g32
tp2663
Rp2664
(I1
(I1
tp2665
g6
I00
S'=\xe3^\xfa&\xd0{?'
p2666
tp2667
bag29
(g30
(I0
tp2668
g32
tp2669
Rp2670
(I1
(I1
tp2671
g6
I00
S'\x158\xec\x9c*_Z?'
p2672
tp2673
baa(lp2674
g29
(g30
(I0
tp2675
g32
tp2676
Rp2677
(I1
(I1
tp2678
g6
I00
S't\xb1g\x03^%a?'
p2679
tp2680
bag29
(g30
(I0
tp2681
g32
tp2682
Rp2683
(I1
(I1
tp2684
g6
I00
S'\x98F\x19=^\xc7{?'
p2685
tp2686
bag29
(g30
(I0
tp2687
g32
tp2688
Rp2689
(I1
(I1
tp2690
g6
I00
S'\xc1\x01\x8f\x00\x06XZ?'
p2691
tp2692
baa(lp2693
g29
(g30
(I0
tp2694
g32
tp2695
Rp2696
(I1
(I1
tp2697
g6
I00
S'<\xf5}l\x87,a?'
p2698
tp2699
bag29
(g30
(I0
tp2700
g32
tp2701
Rp2702
(I1
(I1
tp2703
g6
I00
S'\x16)\xd0\xe2\xf3\xa6{?'
p2704
tp2705
bag29
(g30
(I0
tp2706
g32
tp2707
Rp2708
(I1
(I1
tp2709
g6
I00
S'\xa2\xea\xc3\xccDTZ?'
p2710
tp2711
baa(lp2712
g29
(g30
(I0
tp2713
g32
tp2714
Rp2715
(I1
(I1
tp2716
g6
I00
S'\x0fy\x1dTL\xa3_?'
p2717
tp2718
bag29
(g30
(I0
tp2719
g32
tp2720
Rp2721
(I1
(I1
tp2722
g6
I00
S'\x9e\xfb\xf3&\x8b\xa0z?'
p2723
tp2724
bag29
(g30
(I0
tp2725
g32
tp2726
Rp2727
(I1
(I1
tp2728
g6
I00
S'\x0c{\xe0ilSZ?'
p2729
tp2730
baa(lp2731
g29
(g30
(I0
tp2732
g32
tp2733
Rp2734
(I1
(I1
tp2735
g6
I00
S'2\xe9\xfb\xb8I9`?'
p2736
tp2737
bag29
(g30
(I0
tp2738
g32
tp2739
Rp2740
(I1
(I1
tp2741
g6
I00
S'([\r\x01\x0f\x97z?'
p2742
tp2743
bag29
(g30
(I0
tp2744
g32
tp2745
Rp2746
(I1
(I1
tp2747
g6
I00
S'\xc9\x93Pd^RZ?'
p2748
tp2749
baa(lp2750
g29
(g30
(I0
tp2751
g32
tp2752
Rp2753
(I1
(I1
tp2754
g6
I00
S'pb#r\x85|Z?'
p2755
tp2756
bag29
(g30
(I0
tp2757
g32
tp2758
Rp2759
(I1
(I1
tp2760
g6
I00
S'\xd7\xd3j=\xc7dx?'
p2761
tp2762
bag29
(g30
(I0
tp2763
g32
tp2764
Rp2765
(I1
(I1
tp2766
g6
I00
S'\x83\x03\xf7\xddZMZ?'
p2767
tp2768
baa(lp2769
g29
(g30
(I0
tp2770
g32
tp2771
Rp2772
(I1
(I1
tp2773
g6
I00
S'\xc2\xd0t\x16\x1f\x85`?'
p2774
tp2775
bag29
(g30
(I0
tp2776
g32
tp2777
Rp2778
(I1
(I1
tp2779
g6
I00
S'\x9cc\x1cl5\x08z?'
p2780
tp2781
bag29
(g30
(I0
tp2782
g32
tp2783
Rp2784
(I1
(I1
tp2785
g6
I00
S'\x83\x03\xf7\xddZMZ?'
p2786
tp2787
baa(lp2788
g29
(g30
(I0
tp2789
g32
tp2790
Rp2791
(I1
(I1
tp2792
g6
I00
S'G_2c\xc8\x82`?'
p2793
tp2794
bag29
(g30
(I0
tp2795
g32
tp2796
Rp2797
(I1
(I1
tp2798
g6
I00
S'I\xb8\x86\x82\xbf\x90y?'
p2799
tp2800
bag29
(g30
(I0
tp2801
g32
tp2802
Rp2803
(I1
(I1
tp2804
g6
I00
S'\xee]\xd4/\xe6EZ?'
p2805
tp2806
baa(lp2807
g29
(g30
(I0
tp2808
g32
tp2809
Rp2810
(I1
(I1
tp2811
g6
I00
S'M \x070ip`?'
p2812
tp2813
bag29
(g30
(I0
tp2814
g32
tp2815
Rp2816
(I1
(I1
tp2817
g6
I00
S'\x082\x12#\xde\xffx?'
p2818
tp2819
bag29
(g30
(I0
tp2820
g32
tp2821
Rp2822
(I1
(I1
tp2823
g6
I00
S')\x8d\x04\xbc!9Z?'
p2824
tp2825
baa(lp2826
g29
(g30
(I0
tp2827
g32
tp2828
Rp2829
(I1
(I1
tp2830
g6
I00
S'&\x9d\x17w\xf4R`?'
p2831
tp2832
bag29
(g30
(I0
tp2833
g32
tp2834
Rp2835
(I1
(I1
tp2836
g6
I00
S'\x85\xff\xfa\xdd+Yx?'
p2837
tp2838
bag29
(g30
(I0
tp2839
g32
tp2840
Rp2841
(I1
(I1
tp2842
g6
I00
S'Q#\t\xd1\xc7%Z?'
p2843
tp2844
baa(lp2845
g29
(g30
(I0
tp2846
g32
tp2847
Rp2848
(I1
(I1
tp2849
g6
I00
S'\x9a\x8e\xc1\xc6C`]?'
p2850
tp2851
bag29
(g30
(I0
tp2852
g32
tp2853
Rp2854
(I1
(I1
tp2855
g6
I00
S'\x903\xa7(\xfa\x94v?'
p2856
tp2857
bag29
(g30
(I0
tp2858
g32
tp2859
Rp2860
(I1
(I1
tp2861
g6
I00
S'\xb9\xfe\xf4"m\xfaY?'
p2862
tp2863
baa(lp2864
g29
(g30
(I0
tp2865
g32
tp2866
Rp2867
(I1
(I1
tp2868
g6
I00
S'\xe4\x9c\r\xbbO7^?'
p2869
tp2870
bag29
(g30
(I0
tp2871
g32
tp2872
Rp2873
(I1
(I1
tp2874
g6
I00
S'g\xfdm/\r5v?'
p2875
tp2876
bag29
(g30
(I0
tp2877
g32
tp2878
Rp2879
(I1
(I1
tp2880
g6
I00
S'c0\x90\x85\xf1\xdcY?'
p2881
tp2882
baa(lp2883
g29
(g30
(I0
tp2884
g32
tp2885
Rp2886
(I1
(I1
tp2887
g6
I00
S'\x96\xb3S&\x85\x97^?'
p2888
tp2889
bag29
(g30
(I0
tp2890
g32
tp2891
Rp2892
(I1
(I1
tp2893
g6
I00
S'\x1e\xa5\xc2$\xec\xa1u?'
p2894
tp2895
bag29
(g30
(I0
tp2896
g32
tp2897
Rp2898
(I1
(I1
tp2899
g6
I00
S'\x8e\xaa\xe6\xd1#\xb5Y?'
p2900
tp2901
baa(lp2902
g29
(g30
(I0
tp2903
g32
tp2904
Rp2905
(I1
(I1
tp2906
g6
I00
S'\xf5k\xc7~5\xa9^?'
p2907
tp2908
bag29
(g30
(I0
tp2909
g32
tp2910
Rp2911
(I1
(I1
tp2912
g6
I00
S'/\x90(\xcb\xbd\xe9t?'
p2913
tp2914
bag29
(g30
(I0
tp2915
g32
tp2916
Rp2917
(I1
(I1
tp2918
g6
I00
S'kq\xb1\xb4\x83\x82Y?'
p2919
tp2920
baa(lp2921
g29
(g30
(I0
tp2922
g32
tp2923
Rp2924
(I1
(I1
tp2925
g6
I00
S'\xd0Y\xfb\xef\xba\x88^?'
p2926
tp2927
bag29
(g30
(I0
tp2928
g32
tp2929
Rp2930
(I1
(I1
tp2931
g6
I00
S'\xbe\xcc\xbd\xdcn\x17t?'
p2932
tp2933
bag29
(g30
(I0
tp2934
g32
tp2935
Rp2936
(I1
(I1
tp2937
g6
I00
S'\x836}\xbb\xdeDY?'
p2938
tp2939
baa(lp2940
g29
(g30
(I0
tp2941
g32
tp2942
Rp2943
(I1
(I1
tp2944
g6
I00
S'\xb7\xe8\xf8\x98\x84nW?'
p2945
tp2946
bag29
(g30
(I0
tp2947
g32
tp2948
Rp2949
(I1
(I1
tp2950
g6
I00
S'\x1c\xb6\xc5\xf9\x1a\xa8p?'
p2951
tp2952
bag29
(g30
(I0
tp2953
g32
tp2954
Rp2955
(I1
(I1
tp2956
g6
I00
S'h?dq\xf4\xabX?'
p2957
tp2958
baa(lp2959
g29
(g30
(I0
tp2960
g32
tp2961
Rp2962
(I1
(I1
tp2963
g6
I00
S"\xcb'\xbfS=\xfc]?"
p2964
tp2965
bag29
(g30
(I0
tp2966
g32
tp2967
Rp2968
(I1
(I1
tp2969
g6
I00
S'\xe1Ew(\x89Kr?'
p2970
tp2971
bag29
(g30
(I0
tp2972
g32
tp2973
Rp2974
(I1
(I1
tp2975
g6
I00
S'h?dq\xf4\xabX?'
p2976
tp2977
baa(lp2978
g29
(g30
(I0
tp2979
g32
tp2980
Rp2981
(I1
(I1
tp2982
g6
I00
S'1v\xb5?\xfa\xd4V?'
p2983
tp2984
bag29
(g30
(I0
tp2985
g32
tp2986
Rp2987
(I1
(I1
tp2988
g6
I00
S'9\r\x95vm\xebm?'
p2989
tp2990
bag29
(g30
(I0
tp2991
g32
tp2992
Rp2993
(I1
(I1
tp2994
g6
I00
S'\xfeR\x14\xc9q\x01X?'
p2995
tp2996
baa(lp2997
g29
(g30
(I0
tp2998
g32
tp2999
Rp3000
(I1
(I1
tp3001
g6
I00
S'E\xb5{\xfa\xb2b]?'
p3002
tp3003
bag29
(g30
(I0
tp3004
g32
tp3005
Rp3006
(I1
(I1
tp3007
g6
I00
S'b\x16\xfc\xe9$\x99p?'
p3008
tp3009
bag29
(g30
(I0
tp3010
g32
tp3011
Rp3012
(I1
(I1
tp3013
g6
I00
S'\xfeR\x14\xc9q\x01X?'
p3014
tp3015
baa(lp3016
g29
(g30
(I0
tp3017
g32
tp3018
Rp3019
(I1
(I1
tp3020
g6
I00
S'\xdd\xb1\xba\x96\xb4\x1f]?'
p3021
tp3022
bag29
(g30
(I0
tp3023
g32
tp3024
Rp3025
(I1
(I1
tp3026
g6
I00
S'\x92\xe4\xd8\xa0=\xb5o?'
p3027
tp3028
bag29
(g30
(I0
tp3029
g32
tp3030
Rp3031
(I1
(I1
tp3032
g6
I00
S'U\xdd)\xea\xe9\xacW?'
p3033
tp3034
baa(lp3035
g29
(g30
(I0
tp3036
g32
tp3037
Rp3038
(I1
(I1
tp3039
g6
I00
S'#\x9e\x9a\xe5\xb2\xe5\\?'
p3040
tp3041
bag29
(g30
(I0
tp3042
g32
tp3043
Rp3044
(I1
(I1
tp3045
g6
I00
S'\x18a\xc6\xdb2dn?'
p3046
tp3047
bag29
(g30
(I0
tp3048
g32
tp3049
Rp3050
(I1
(I1
tp3051
g6
I00
S'\xcf\xa9B<\xcb[W?'
p3052
tp3053
baa(lp3054
g29
(g30
(I0
tp3055
g32
tp3056
Rp3057
(I1
(I1
tp3058
g6
I00
S'\xd5\x86\x04~\xfe\xb4\\?'
p3059
tp3060
bag29
(g30
(I0
tp3061
g32
tp3062
Rp3063
(I1
(I1
tp3064
g6
I00
S'\xa6+\\\x81jAm?'
p3065
tp3066
bag29
(g30
(I0
tp3067
g32
tp3068
Rp3069
(I1
(I1
tp3070
g6
I00
S'\xcb\x19(\xb1\x9e\x0fW?'
p3071
tp3072
baa(lp3073
g29
(g30
(I0
tp3074
g32
tp3075
Rp3076
(I1
(I1
tp3077
g6
I00
S'R\xa5\x17\x84g\x8d\\?'
p3078
tp3079
bag29
(g30
(I0
tp3080
g32
tp3081
Rp3082
(I1
(I1
tp3083
g6
I00
S'\x9c\x7fy,\rMl?'
p3084
tp3085
bag29
(g30
(I0
tp3086
g32
tp3087
Rp3088
(I1
(I1
tp3089
g6
I00
S'\x1d\x05=tu\xc9V?'
p3090
tp3091
baa(lp3092
g29
(g30
(I0
tp3093
g32
tp3094
Rp3095
(I1
(I1
tp3096
g6
I00
S'\xbb\x14Z8\xfad[?'
p3097
tp3098
bag29
(g30
(I0
tp3099
g32
tp3100
Rp3101
(I1
(I1
tp3102
g6
I00
S'B$\xcd\xe7\xb0\xefg?'
p3103
tp3104
bag29
(g30
(I0
tp3105
g32
tp3106
Rp3107
(I1
(I1
tp3108
g6
I00
S'k\x90g\x8d\x10;X?'
p3109
tp3110
baa(lp3111
g29
(g30
(I0
tp3112
g32
tp3113
Rp3114
(I1
(I1
tp3115
g6
I00
S'F\xa5\xdc7\xe7\x93\\?'
p3116
tp3117
bag29
(g30
(I0
tp3118
g32
tp3119
Rp3120
(I1
(I1
tp3121
g6
I00
S'FX:\xb7\xaeWe?'
p3122
tp3123
bag29
(g30
(I0
tp3124
g32
tp3125
Rp3126
(I1
(I1
tp3127
g6
I00
S'A\xd1W\xb8\x13\xbeY?'
p3128
tp3129
baa(lp3130
g29
(g30
(I0
tp3131
g32
tp3132
Rp3133
(I1
(I1
tp3134
g6
I00
S's.\xed_\xab\xc6\\?'
p3135
tp3136
bag29
(g30
(I0
tp3137
g32
tp3138
Rp3139
(I1
(I1
tp3140
g6
I00
S'\x98\x19\xf4\x0c\x8c\x9bc?'
p3141
tp3142
bag29
(g30
(I0
tp3143
g32
tp3144
Rp3145
(I1
(I1
tp3146
g6
I00
S'[\x81\xb333S[?'
p3147
tp3148
baa(lp3149
g29
(g30
(I0
tp3150
g32
tp3151
Rp3152
(I1
(I1
tp3153
g6
I00
S'\xe1\xd5\x89MA\x02^?'
p3154
tp3155
bag29
(g30
(I0
tp3156
g32
tp3157
Rp3158
(I1
(I1
tp3159
g6
I00
S'\xe5\x9d\x10\x95\xdf\x8fb?'
p3160
tp3161
bag29
(g30
(I0
tp3162
g32
tp3163
Rp3164
(I1
(I1
tp3165
g6
I00
S'Y\xa8r\xf6f\xed\\?'
p3166
tp3167
baa(lp3168
g29
(g30
(I0
tp3169
g32
tp3170
Rp3171
(I1
(I1
tp3172
g6
I00
S'4\xb9\xfe\xf8\x17\x17X?'
p3173
tp3174
bag29
(g30
(I0
tp3175
g32
tp3176
Rp3177
(I1
(I1
tp3178
g6
I00
S'*\xa2\x08\x1d\xf7\x19a?'
p3179
tp3180
bag29
(g30
(I0
tp3181
g32
tp3182
Rp3183
(I1
(I1
tp3184
g6
I00
S'\x00UJ\xa6Lg^?'
p3185
tp3186
baa(lp3187
g29
(g30
(I0
tp3188
g32
tp3189
Rp3190
(I1
(I1
tp3191
g6
I00
S'\xb9\xfd\xd1\x81\x9f~]?'
p3192
tp3193
bag29
(g30
(I0
tp3194
g32
tp3195
Rp3196
(I1
(I1
tp3197
g6
I00
S'\x9fr\x9f\x90\x91\xaaa?'
p3198
tp3199
bag29
(g30
(I0
tp3200
g32
tp3201
Rp3202
(I1
(I1
tp3203
g6
I00
S'b\xf2}j]\x05`?'
p3204
tp3205
baa(lp3206
g29
(g30
(I0
tp3207
g32
tp3208
Rp3209
(I1
(I1
tp3210
g6
I00
S'\x8f\xf99Zd\x9b]?'
p3211
tp3212
bag29
(g30
(I0
tp3213
g32
tp3214
Rp3215
(I1
(I1
tp3216
g6
I00
S'St\xc2\x90;\xbca?'
p3217
tp3218
bag29
(g30
(I0
tp3219
g32
tp3220
Rp3221
(I1
(I1
tp3222
g6
I00
S'\xe4\xa1J\xd5\xef\xc8`?'
p3223
tp3224
baa(lp3225
g29
(g30
(I0
tp3226
g32
tp3227
Rp3228
(I1
(I1
tp3229
g6
I00
S'\xc6\xe8Z\xe9@-]?'
p3230
tp3231
bag29
(g30
(I0
tp3232
g32
tp3233
Rp3234
(I1
(I1
tp3235
g6
I00
S'\xbb\xab\xf1x\xf9\x02b?'
p3236
tp3237
bag29
(g30
(I0
tp3238
g32
tp3239
Rp3240
(I1
(I1
tp3241
g6
I00
S'\x1a\x926\xe9I\x86a?'
p3242
tp3243
baa(lp3244
g29
(g30
(I0
tp3245
g32
tp3246
Rp3247
(I1
(I1
tp3248
g6
I00
S'\x9a\x89\x8a\xfd\x17\x87[?'
p3249
tp3250
bag29
(g30
(I0
tp3251
g32
tp3252
Rp3253
(I1
(I1
tp3254
g6
I00
S'\xe5\xb8\x0f\x83\xc5Jb?'
p3255
tp3256
bag29
(g30
(I0
tp3257
g32
tp3258
Rp3259
(I1
(I1
tp3260
g6
I00
S'\xc3\xee\xd6\x99-6b?'
p3261
tp3262
baa(lp3263
g29
(g30
(I0
tp3264
g32
tp3265
Rp3266
(I1
(I1
tp3267
g6
I00
S'd\xe7\xdd\xd8d\x0ea?'
p3268
tp3269
bag29
(g30
(I0
tp3270
g32
tp3271
Rp3272
(I1
(I1
tp3273
g6
I00
S'7\xd8D\x00\x8bwe?'
p3274
tp3275
bag29
(g30
(I0
tp3276
g32
tp3277
Rp3278
(I1
(I1
tp3279
g6
I00
S'\x9a\x01\x89\xc8\x9b\xd9c?'
p3280
tp3281
baa(lp3282
g3266
ag3272
ag3278
aa(lp3283
g29
(g30
(I0
tp3284
g32
tp3285
Rp3286
(I1
(I1
tp3287
g6
I00
S'\x851x\xbc\xe4Ub?'
p3288
tp3289
bag29
(g30
(I0
tp3290
g32
tp3291
Rp3292
(I1
(I1
tp3293
g6
I00
S'\xeb\xdau8\xf7Pg?'
p3294
tp3295
bag29
(g30
(I0
tp3296
g32
tp3297
Rp3298
(I1
(I1
tp3299
g6
I00
S'|\xc9\xe1\xdfR\xabd?'
p3300
tp3301
baa(lp3302
g29
(g30
(I0
tp3303
g32
tp3304
Rp3305
(I1
(I1
tp3306
g6
I00
S'/\x84f]zyc?'
p3307
tp3308
bag29
(g30
(I0
tp3309
g32
tp3310
Rp3311
(I1
(I1
tp3312
g6
I00
S'\x96x\xe7\xd1uWi?'
p3313
tp3314
bag29
(g30
(I0
tp3315
g32
tp3316
Rp3317
(I1
(I1
tp3318
g6
I00
S'^\x91:\xf7\t}e?'
p3319
tp3320
baa(lp3321
g29
(g30
(I0
tp3322
g32
tp3323
Rp3324
(I1
(I1
tp3325
g6
I00
S'N\xce\x08\x19\xf5\x83d?'
p3326
tp3327
bag29
(g30
(I0
tp3328
g32
tp3329
Rp3330
(I1
(I1
tp3331
g6
I00
S'\xc7D=z/\x81k?'
p3332
tp3333
bag29
(g30
(I0
tp3334
g32
tp3335
Rp3336
(I1
(I1
tp3337
g6
I00
S'@Y\x93\x0e\xc1Nf?'
p3338
tp3339
baa(lp3340
g29
(g30
(I0
tp3341
g32
tp3342
Rp3343
(I1
(I1
tp3344
g6
I00
S'\x1b\xb6\xe2`@\x82e?'
p3345
tp3346
bag29
(g30
(I0
tp3347
g32
tp3348
Rp3349
(I1
(I1
tp3350
g6
I00
S'G\x14 \xe9\x7f\xbfm?'
p3351
tp3352
bag29
(g30
(I0
tp3353
g32
tp3354
Rp3355
(I1
(I1
tp3356
g6
I00
S'5\xa4\xec%x g?'
p3357
tp3358
baa(lp3359
g29
(g30
(I0
tp3360
g32
tp3361
Rp3362
(I1
(I1
tp3363
g6
I00
S'%dM\xa1\xa2rf?'
p3364
tp3365
bag29
(g30
(I0
tp3366
g32
tp3367
Rp3368
(I1
(I1
tp3369
g6
I00
S' \x90)\xdaZ\xfeo?'
p3370
tp3371
bag29
(g30
(I0
tp3372
g32
tp3373
Rp3374
(I1
(I1
tp3375
g6
I00
S'\x18lE=/\xf2g?'
p3376
tp3377
baa(lp3378
g29
(g30
(I0
tp3379
g32
tp3380
Rp3381
(I1
(I1
tp3382
g6
I00
S'5\xb6~\x87\xb8Vg?'
p3383
tp3384
bag29
(g30
(I0
tp3385
g32
tp3386
Rp3387
(I1
(I1
tp3388
g6
I00
S'`\x17\x17\x90\x84\x1fq?'
p3389
tp3390
bag29
(g30
(I0
tp3391
g32
tp3392
Rp3393
(I1
(I1
tp3394
g6
I00
S'\xfa3\x9eT\xe6\xc3h?'
p3395
tp3396
baa(lp3397
g29
(g30
(I0
tp3398
g32
tp3399
Rp3400
(I1
(I1
tp3401
g6
I00
S'\x04\xeaP\xb6\xff0h?'
p3402
tp3403
bag29
(g30
(I0
tp3404
g32
tp3405
Rp3406
(I1
(I1
tp3407
g6
I00
S'\x15\xce6\x0b\x80Ar?'
p3408
tp3409
bag29
(g30
(I0
tp3410
g32
tp3411
Rp3412
(I1
(I1
tp3413
g6
I00
S'\xdc\xfb\xf6k\x9d\x95i?'
p3414
tp3415
baa(lp3416
g29
(g30
(I0
tp3417
g32
tp3418
Rp3419
(I1
(I1
tp3420
g6
I00
S'\xd2T\xcb\x15\xf7\x04i?'
p3421
tp3422
bag29
(g30
(I0
tp3423
g32
tp3424
Rp3425
(I1
(I1
tp3426
g6
I00
S'\x0bgu\xf0\xeaes?'
p3427
tp3428
bag29
(g30
(I0
tp3429
g32
tp3430
Rp3431
(I1
(I1
tp3432
g6
I00
S'\xbe\xc3O\x83Tgj?'
p3433
tp3434
baa(lp3435
g29
(g30
(I0
tp3436
g32
tp3437
Rp3438
(I1
(I1
tp3439
g6
I00
S'4\x19\xfc\xa1?\xd7i?'
p3440
tp3441
bag29
(g30
(I0
tp3442
g32
tp3443
Rp3444
(I1
(I1
tp3445
g6
I00
S'\xd4I\xd3w\x9a\x8dt?'
p3446
tp3447
bag29
(g30
(I0
tp3448
g32
tp3449
Rp3450
(I1
(I1
tp3451
g6
I00
S'\xb3\x0e\xa9\x9a\x0b9k?'
p3452
tp3453
baa(lp3454
g29
(g30
(I0
tp3455
g32
tp3456
Rp3457
(I1
(I1
tp3458
g6
I00
S'\xf4\x18*r\xbd\xadj?'
p3459
tp3460
bag29
(g30
(I0
tp3461
g32
tp3462
Rp3463
(I1
(I1
tp3464
g6
I00
S'"\xef\xd5\x83g\xb9u?'
p3465
tp3466
bag29
(g30
(I0
tp3467
g32
tp3468
Rp3469
(I1
(I1
tp3470
g6
I00
S'\x96\xd6\x01\xb2\xc2\nl?'
p3471
tp3472
baa(lp3473
g29
(g30
(I0
tp3474
g32
tp3475
Rp3476
(I1
(I1
tp3477
g6
I00
S'\x05\xd9"\xae\xb8\x8fk?'
p3478
tp3479
bag29
(g30
(I0
tp3480
g32
tp3481
Rp3482
(I1
(I1
tp3483
g6
I00
S'\xfeO*\x0c(\xeav?'
p3484
tp3485
bag29
(g30
(I0
tp3486
g32
tp3487
Rp3488
(I1
(I1
tp3489
g6
I00
S'x\x9eZ\xc9y\xdcl?'
p3490
tp3491
baa(lp3492
g29
(g30
(I0
tp3493
g32
tp3494
Rp3495
(I1
(I1
tp3496
g6
I00
S'\x01\xde~$\xfe\x85l?'
p3497
tp3498
bag29
(g30
(I0
tp3499
g32
tp3500
Rp3501
(I1
(I1
tp3502
g6
I00
S'\x93\xc5\xee\x92\xa8 x?'
p3503
tp3504
bag29
(g30
(I0
tp3505
g32
tp3506
Rp3507
(I1
(I1
tp3508
g6
I00
S'Zf\xb3\xe00\xaem?'
p3509
tp3510
baa(lp3511
g29
(g30
(I0
tp3512
g32
tp3513
Rp3514
(I1
(I1
tp3515
g6
I00
S'\xab\xb1\xfe\xd9A\x9cm?'
p3516
tp3517
bag29
(g30
(I0
tp3518
g32
tp3519
Rp3520
(I1
(I1
tp3521
g6
I00
S'\xc2\x01\tq\xe9Zy?'
p3522
tp3523
bag29
(g30
(I0
tp3524
g32
tp3525
Rp3526
(I1
(I1
tp3527
g6
I00
S'<.\x0c\xf8\xe7\x7fn?'
p3528
tp3529
baa(lp3530
g29
(g30
(I0
tp3531
g32
tp3532
Rp3533
(I1
(I1
tp3534
g6
I00
S'\xbf\xee\xb1\x1b\x8fqp?'
p3535
tp3536
bag29
(g30
(I0
tp3537
g32
tp3538
Rp3539
(I1
(I1
tp3540
g6
I00
S'\xac\x97\xbb\x9fW\xfez?'
p3541
tp3542
bag29
(g30
(I0
tp3543
g32
tp3544
Rp3545
(I1
(I1
tp3546
g6
I00
S'<.\x0c\xf8\xe7\x7fn?'
p3547
tp3548
baa(lp3549
g29
(g30
(I0
tp3550
g32
tp3551
Rp3552
(I1
(I1
tp3553
g6
I00
S'\x84~cJ\xfd\x14r?'
p3554
tp3555
bag29
(g30
(I0
tp3556
g32
tp3557
Rp3558
(I1
(I1
tp3559
g6
I00
S"q'm\xce\xc5\xa1|?"
p3560
tp3561
bag29
(g30
(I0
tp3562
g32
tp3563
Rp3564
(I1
(I1
tp3565
g6
I00
S'<.\x0c\xf8\xe7\x7fn?'
p3566
tp3567
baa(lp3568
g29
(g30
(I0
tp3569
g32
tp3570
Rp3571
(I1
(I1
tp3572
g6
I00
S'I\x0e\x15yk\xb8s?'
p3573
tp3574
bag29
(g30
(I0
tp3575
g32
tp3576
Rp3577
(I1
(I1
tp3578
g6
I00
S'6\xb7\x1e\xfd3E~?'
p3579
tp3580
bag29
(g30
(I0
tp3581
g32
tp3582
Rp3583
(I1
(I1
tp3584
g6
I00
S'<.\x0c\xf8\xe7\x7fn?'
p3585
tp3586
baa(lp3587
g29
(g30
(I0
tp3588
g32
tp3589
Rp3590
(I1
(I1
tp3591
g6
I00
S'\x0e\x9e\xc6\xa7\xd9[u?'
p3592
tp3593
bag29
(g30
(I0
tp3594
g32
tp3595
Rp3596
(I1
(I1
tp3597
g6
I00
S'\xfbF\xd0+\xa2\xe8\x7f?'
p3598
tp3599
bag29
(g30
(I0
tp3600
g32
tp3601
Rp3602
(I1
(I1
tp3603
g6
I00
S'<.\x0c\xf8\xe7\x7fn?'
p3604
tp3605
baa(lp3606
g29
(g30
(I0
tp3607
g32
tp3608
Rp3609
(I1
(I1
tp3610
g6
I00
S'\xd3-x\xd6G\xffv?'
p3611
tp3612
bag29
(g30
(I0
tp3613
g32
tp3614
Rp3615
(I1
(I1
tp3616
g6
I00
S'`\xeb@-\x08\xc6\x80?'
p3617
tp3618
bag29
(g30
(I0
tp3619
g32
tp3620
Rp3621
(I1
(I1
tp3622
g6
I00
S'<.\x0c\xf8\xe7\x7fn?'
p3623
tp3624
baa(lp3625
g29
(g30
(I0
tp3626
g32
tp3627
Rp3628
(I1
(I1
tp3629
g6
I00
S'\xbd\xc3*\x05\xb6\xa2x?'
p3630
tp3631
bag29
(g30
(I0
tp3632
g32
tp3633
Rp3634
(I1
(I1
tp3635
g6
I00
S'U6\x9aD\xbf\x97\x81?'
p3636
tp3637
bag29
(g30
(I0
tp3638
g32
tp3639
Rp3640
(I1
(I1
tp3641
g6
I00
S'<.\x0c\xf8\xe7\x7fn?'
p3642
tp3643
baa(lp3644
g29
(g30
(I0
tp3645
g32
tp3646
Rp3647
(I1
(I1
tp3648
g6
I00
S'\x82S\xdc3$Fz?'
p3649
tp3650
bag29
(g30
(I0
tp3651
g32
tp3652
Rp3653
(I1
(I1
tp3654
g6
I00
S'8\xfe\xf2[vi\x82?'
p3655
tp3656
bag29
(g30
(I0
tp3657
g32
tp3658
Rp3659
(I1
(I1
tp3660
g6
I00
S'<.\x0c\xf8\xe7\x7fn?'
p3661
tp3662
baa(lp3663
g29
(g30
(I0
tp3664
g32
tp3665
Rp3666
(I1
(I1
tp3667
g6
I00
S'G\xe3\x8db\x92\xe9{?'
p3668
tp3669
bag29
(g30
(I0
tp3670
g32
tp3671
Rp3672
(I1
(I1
tp3673
g6
I00
S'\x1a\xc6Ks-;\x83?'
p3674
tp3675
bag29
(g30
(I0
tp3676
g32
tp3677
Rp3678
(I1
(I1
tp3679
g6
I00
S'<.\x0c\xf8\xe7\x7fn?'
p3680
tp3681
baa(lp3682
g29
(g30
(I0
tp3683
g32
tp3684
Rp3685
(I1
(I1
tp3686
g6
I00
S'\x0cs?\x91\x00\x8d}?'
p3687
tp3688
bag29
(g30
(I0
tp3689
g32
tp3690
Rp3691
(I1
(I1
tp3692
g6
I00
S'\xfc\x8d\xa4\x8a\xe4\x0c\x84?'
p3693
tp3694
bag29
(g30
(I0
tp3695
g32
tp3696
Rp3697
(I1
(I1
tp3698
g6
I00
S'<.\x0c\xf8\xe7\x7fn?'
p3699
tp3700
baa(lp3701
g29
(g30
(I0
tp3702
g32
tp3703
Rp3704
(I1
(I1
tp3705
g6
I00
S'\xd1\x02\xf1\xbfn0\x7f?'
p3706
tp3707
bag29
(g30
(I0
tp3708
g32
tp3709
Rp3710
(I1
(I1
tp3711
g6
I00
S'\xdeU\xfd\xa1\x9b\xde\x84?'
p3712
tp3713
bag29
(g30
(I0
tp3714
g32
tp3715
Rp3716
(I1
(I1
tp3717
g6
I00
S'<.\x0c\xf8\xe7\x7fn?'
p3718
tp3719
baa(lp3720
g29
(g30
(I0
tp3721
g32
tp3722
Rp3723
(I1
(I1
tp3724
g6
I00
S']\xccQw\xeei\x80?'
p3725
tp3726
bag29
(g30
(I0
tp3727
g32
tp3728
Rp3729
(I1
(I1
tp3730
g6
I00
S'\xd3\xa0V\xb9R\xb0\x85?'
p3731
tp3732
bag29
(g30
(I0
tp3733
g32
tp3734
Rp3735
(I1
(I1
tp3736
g6
I00
S'<.\x0c\xf8\xe7\x7fn?'
p3737
tp3738
baa(lp3739
g29
(g30
(I0
tp3740
g32
tp3741
Rp3742
(I1
(I1
tp3743
g6
I00
S'@\x94\xaa\x8e\xa5;\x81?'
p3744
tp3745
bag29
(g30
(I0
tp3746
g32
tp3747
Rp3748
(I1
(I1
tp3749
g6
I00
S'\xb6h\xaf\xd0\t\x82\x86?'
p3750
tp3751
bag29
(g30
(I0
tp3752
g32
tp3753
Rp3754
(I1
(I1
tp3755
g6
I00
S'<.\x0c\xf8\xe7\x7fn?'
p3756
tp3757
baa(lp3758
g29
(g30
(I0
tp3759
g32
tp3760
Rp3761
(I1
(I1
tp3762
g6
I00
S'"\\\x03\xa6\\\r\x82?'
p3763
tp3764
bag29
(g30
(I0
tp3765
g32
tp3766
Rp3767
(I1
(I1
tp3768
g6
I00
S'\x980\x08\xe8\xc0S\x87?'
p3769
tp3770
bag29
(g30
(I0
tp3771
g32
tp3772
Rp3773
(I1
(I1
tp3774
g6
I00
S'<.\x0c\xf8\xe7\x7fn?'
p3775
tp3776
baa(lp3777
g29
(g30
(I0
tp3778
g32
tp3779
Rp3780
(I1
(I1
tp3781
g6
I00
S'\x04$\\\xbd\x13\xdf\x82?'
p3782
tp3783
bag29
(g30
(I0
tp3784
g32
tp3785
Rp3786
(I1
(I1
tp3787
g6
I00
S'z\xf8`\xffw%\x88?'
p3788
tp3789
bag29
(g30
(I0
tp3790
g32
tp3791
Rp3792
(I1
(I1
tp3793
g6
I00
S'<.\x0c\xf8\xe7\x7fn?'
p3794
tp3795
baa(lp3796
g29
(g30
(I0
tp3797
g32
tp3798
Rp3799
(I1
(I1
tp3800
g6
I00
S'\xe6\xeb\xb4\xd4\xca\xb0\x83?'
p3801
tp3802
bag29
(g30
(I0
tp3803
g32
tp3804
Rp3805
(I1
(I1
tp3806
g6
I00
S'\\\xc0\xb9\x16/\xf7\x88?'
p3807
tp3808
bag29
(g30
(I0
tp3809
g32
tp3810
Rp3811
(I1
(I1
tp3812
g6
I00
S'<.\x0c\xf8\xe7\x7fn?'
p3813
tp3814
baa(lp3815
g29
(g30
(I0
tp3816
g32
tp3817
Rp3818
(I1
(I1
tp3819
g6
I00
S'\xdb6\x0e\xec\x81\x82\x84?'
p3820
tp3821
bag29
(g30
(I0
tp3822
g32
tp3823
Rp3824
(I1
(I1
tp3825
g6
I00
S'Q\x0b\x13.\xe6\xc8\x89?'
p3826
tp3827
bag29
(g30
(I0
tp3828
g32
tp3829
Rp3830
(I1
(I1
tp3831
g6
I00
S'<.\x0c\xf8\xe7\x7fn?'
p3832
tp3833
baa(lp3834
g29
(g30
(I0
tp3835
g32
tp3836
Rp3837
(I1
(I1
tp3838
g6
I00
S'\xbe\xfef\x039T\x85?'
p3839
tp3840
bag29
(g30
(I0
tp3841
g32
tp3842
Rp3843
(I1
(I1
tp3844
g6
I00
S'4\xd3kE\x9d\x9a\x8a?'
p3845
tp3846
bag29
(g30
(I0
tp3847
g32
tp3848
Rp3849
(I1
(I1
tp3850
g6
I00
S'<.\x0c\xf8\xe7\x7fn?'
p3851
tp3852
baa(lp3853
g29
(g30
(I0
tp3854
g32
tp3855
Rp3856
(I1
(I1
tp3857
g6
I00
S'\xa0\xc6\xbf\x1a\xf0%\x86?'
p3858
tp3859
bag29
(g30
(I0
tp3860
g32
tp3861
Rp3862
(I1
(I1
tp3863
g6
I00
S'\x16\x9b\xc4\\Tl\x8b?'
p3864
tp3865
bag29
(g30
(I0
tp3866
g32
tp3867
Rp3868
(I1
(I1
tp3869
g6
I00
S'<.\x0c\xf8\xe7\x7fn?'
p3870
tp3871
baa(lp3872
g29
(g30
(I0
tp3873
g32
tp3874
Rp3875
(I1
(I1
tp3876
g6
I00
S'\x82\x8e\x182\xa7\xf7\x86?'
p3877
tp3878
bag29
(g30
(I0
tp3879
g32
tp3880
Rp3881
(I1
(I1
tp3882
g6
I00
S'\xf8b\x1dt\x0b>\x8c?'
p3883
tp3884
bag29
(g30
(I0
tp3885
g32
tp3886
Rp3887
(I1
(I1
tp3888
g6
I00
S'<.\x0c\xf8\xe7\x7fn?'
p3889
tp3890
baa(lp3891
g29
(g30
(I0
tp3892
g32
tp3893
Rp3894
(I1
(I1
tp3895
g6
I00
S'dVqI^\xc9\x87?'
p3896
tp3897
bag29
(g30
(I0
tp3898
g32
tp3899
Rp3900
(I1
(I1
tp3901
g6
I00
S'\xda*v\x8b\xc2\x0f\x8d?'
p3902
tp3903
bag29
(g30
(I0
tp3904
g32
tp3905
Rp3906
(I1
(I1
tp3907
g6
I00
S'<.\x0c\xf8\xe7\x7fn?'
p3908
tp3909
baa(lp3910
g29
(g30
(I0
tp3911
g32
tp3912
Rp3913
(I1
(I1
tp3914
g6
I00
S'Y\xa1\xca`\x15\x9b\x88?'
p3915
tp3916
bag29
(g30
(I0
tp3917
g32
tp3918
Rp3919
(I1
(I1
tp3920
g6
I00
S'\xcfu\xcf\xa2y\xe1\x8d?'
p3921
tp3922
bag29
(g30
(I0
tp3923
g32
tp3924
Rp3925
(I1
(I1
tp3926
g6
I00
S'<.\x0c\xf8\xe7\x7fn?'
p3927
tp3928
baa(lp3929
g29
(g30
(I0
tp3930
g32
tp3931
Rp3932
(I1
(I1
tp3933
g6
I00
S'<i#x\xccl\x89?'
p3934
tp3935
bag29
(g30
(I0
tp3936
g32
tp3937
Rp3938
(I1
(I1
tp3939
g6
I00
S'\xb2=(\xba0\xb3\x8e?'
p3940
tp3941
bag29
(g30
(I0
tp3942
g32
tp3943
Rp3944
(I1
(I1
tp3945
g6
I00
S'<.\x0c\xf8\xe7\x7fn?'
p3946
tp3947
baa(lp3948
g29
(g30
(I0
tp3949
g32
tp3950
Rp3951
(I1
(I1
tp3952
g6
I00
S'\x1e1|\x8f\x83>\x8a?'
p3953
tp3954
bag29
(g30
(I0
tp3955
g32
tp3956
Rp3957
(I1
(I1
tp3958
g6
I00
S'\x94\x05\x81\xd1\xe7\x84\x8f?'
p3959
tp3960
bag29
(g30
(I0
tp3961
g32
tp3962
Rp3963
(I1
(I1
tp3964
g6
I00
S'<.\x0c\xf8\xe7\x7fn?'
p3965
tp3966
baa(lp3967
g29
(g30
(I0
tp3968
g32
tp3969
Rp3970
(I1
(I1
tp3971
g6
I00
S' \x1d\xd4\xd2\xda\xcb\x81?'
p3972
tp3973
bag29
(g30
(I0
tp3974
g32
tp3975
Rp3976
(I1
(I1
tp3977
g6
I00
S'0&.`V\xb8\x81?'
p3978
tp3979
bag29
(g30
(I0
tp3980
g32
tp3981
Rp3982
(I1
(I1
tp3983
g6
I00
S'\x96+\xd5\x1b\xdc\xf8e?'
p3984
tp3985
baa(lp3986
g29
(g30
(I0
tp3987
g32
tp3988
Rp3989
(I1
(I1
tp3990
g6
I00
S'\r\xe1m\xad\x82\xc9|?'
p3991
tp3992
bag29
(g30
(I0
tp3993
g32
tp3994
Rp3995
(I1
(I1
tp3996
g6
I00
S'`\x9d6J\x8fxx?'
p3997
tp3998
bag29
(g30
(I0
tp3999
g32
tp4000
Rp4001
(I1
(I1
tp4002
g6
I00
S'Q<\xa5\x00v\xc1a?'
p4003
tp4004
baa(lp4005
g29
(g30
(I0
tp4006
g32
tp4007
Rp4008
(I1
(I1
tp4009
g6
I00
S'jr\x9d\xcc\xf56y?'
p4010
tp4011
bag29
(g30
(I0
tp4012
g32
tp4013
Rp4014
(I1
(I1
tp4015
g6
I00
S'\xe5S\x88\xf9\xfc\xb9r?'
p4016
tp4017
bag29
(g30
(I0
tp4018
g32
tp4019
Rp4020
(I1
(I1
tp4021
g6
I00
S'9\x9b\x12\xe0\xa9-^?'
p4022
tp4023
baa(lp4024
g29
(g30
(I0
tp4025
g32
tp4026
Rp4027
(I1
(I1
tp4028
g6
I00
S'\xe6\x1b\x81v6\xc0w?'
p4029
tp4030
bag29
(g30
(I0
tp4031
g32
tp4032
Rp4033
(I1
(I1
tp4034
g6
I00
S"F\xb7'G\xc8\xfdo?"
p4035
tp4036
bag29
(g30
(I0
tp4037
g32
tp4038
Rp4039
(I1
(I1
tp4040
g6
I00
S'\xbc\xf4q\xc9\xd2qZ?'
p4041
tp4042
baa(lp4043
g29
(g30
(I0
tp4044
g32
tp4045
Rp4046
(I1
(I1
tp4047
g6
I00
S'\x8e\xd1\x16\xc2\xf19w?'
p4048
tp4049
bag29
(g30
(I0
tp4050
g32
tp4051
Rp4052
(I1
(I1
tp4053
g6
I00
S'\xf2\x06gk\xd3Nm?'
p4054
tp4055
bag29
(g30
(I0
tp4056
g32
tp4057
Rp4058
(I1
(I1
tp4059
g6
I00
S'\x0e\x16\xb8\xf2c\xafW?'
p4060
tp4061
baa(lp4062
g29
(g30
(I0
tp4063
g32
tp4064
Rp4065
(I1
(I1
tp4066
g6
I00
S'I\xd0)\xe4x\xf0v?'
p4067
tp4068
bag29
(g30
(I0
tp4069
g32
tp4070
Rp4071
(I1
(I1
tp4072
g6
I00
S'(e\x91\xdd\xe3\x86k?'
p4073
tp4074
bag29
(g30
(I0
tp4075
g32
tp4076
Rp4077
(I1
(I1
tp4078
g6
I00
S'^\x1dnP\x15\x90U?'
p4079
tp4080
baa(lp4081
g29
(g30
(I0
tp4082
g32
tp4083
Rp4084
(I1
(I1
tp4085
g6
I00
S"2z'\xc5\x12\x82v?"
p4086
tp4087
bag29
(g30
(I0
tp4088
g32
tp4089
Rp4090
(I1
(I1
tp4091
g6
I00
S'G!\xad\xa1c\xb4i?'
p4092
tp4093
bag29
(g30
(I0
tp4094
g32
tp4095
Rp4096
(I1
(I1
tp4097
g6
I00
S'%\x19o\x82\xf7\xe0S?'
p4098
tp4099
baa(lp4100
g29
(g30
(I0
tp4101
g32
tp4102
Rp4103
(I1
(I1
tp4104
g6
I00
S'8\xafE\x89\xf5\x8bv?'
p4105
tp4106
bag29
(g30
(I0
tp4107
g32
tp4108
Rp4109
(I1
(I1
tp4110
g6
I00
S'\x151\x84\xa57\x10i?'
p4111
tp4112
bag29
(g30
(I0
tp4113
g32
tp4114
Rp4115
(I1
(I1
tp4116
g6
I00
S'\xba\xe6eY\xf3\x82R?'
p4117
tp4118
baa(lp4119
g29
(g30
(I0
tp4120
g32
tp4121
Rp4122
(I1
(I1
tp4123
g6
I00
S'\x03}A\xd3fQv?'
p4124
tp4125
bag29
(g30
(I0
tp4126
g32
tp4127
Rp4128
(I1
(I1
tp4129
g6
I00
S'\x13\xe3)q\xb2\x05h?'
p4130
tp4131
bag29
(g30
(I0
tp4132
g32
tp4133
Rp4134
(I1
(I1
tp4135
g6
I00
S'#\xe3h\xaa%aQ?'
p4136
tp4137
baa(lp4138
g29
(g30
(I0
tp4139
g32
tp4140
Rp4141
(I1
(I1
tp4142
g6
I00
S'\xc5p\xf0\x981^v?'
p4143
tp4144
bag29
(g30
(I0
tp4145
g32
tp4146
Rp4147
(I1
(I1
tp4148
g6
I00
S'\x1d\xe3\xc9\xe4D\xbbg?'
p4149
tp4150
bag29
(g30
(I0
tp4151
g32
tp4152
Rp4153
(I1
(I1
tp4154
g6
I00
S'\xeb\x19\xee)flP?'
p4155
tp4156
baa(lp4157
g29
(g30
(I0
tp4158
g32
tp4159
Rp4160
(I1
(I1
tp4161
g6
I00
S'\x88\xba\xac\x04=\\v?'
p4162
tp4163
bag29
(g30
(I0
tp4164
g32
tp4165
Rp4166
(I1
(I1
tp4167
g6
I00
S'\xc1\xb4\xa49Tqg?'
p4168
tp4169
bag29
(g30
(I0
tp4170
g32
tp4171
Rp4172
(I1
(I1
tp4173
g6
I00
S'\xa8?\xe0\xb256O?'
p4174
tp4175
baa(lp4176
g29
(g30
(I0
tp4177
g32
tp4178
Rp4179
(I1
(I1
tp4180
g6
I00
S'\xa0\x8c\x14\xcd&Lv?'
p4181
tp4182
bag29
(g30
(I0
tp4183
g32
tp4184
Rp4185
(I1
(I1
tp4186
g6
I00
S'\xafCwI\xbf%g?'
p4187
tp4188
bag29
(g30
(I0
tp4189
g32
tp4190
Rp4191
(I1
(I1
tp4192
g6
I00
S'\x8f\xa8\xf03\x9b\xcbM?'
p4193
tp4194
baa(lp4195
g29
(g30
(I0
tp4196
g32
tp4197
Rp4198
(I1
(I1
tp4199
g6
I00
S'3\xf3\xef\x83\x14/v?'
p4200
tp4201
bag29
(g30
(I0
tp4202
g32
tp4203
Rp4204
(I1
(I1
tp4205
g6
I00
S'\xa0\xb4\xc8\xbd\xb4\xd7f?'
p4206
tp4207
bag29
(g30
(I0
tp4208
g32
tp4209
Rp4210
(I1
(I1
tp4211
g6
I00
S'\x95\xa8\xc2\xfb\xf4\x8dL?'
p4212
tp4213
baa(lp4214
g29
(g30
(I0
tp4215
g32
tp4216
Rp4217
(I1
(I1
tp4218
g6
I00
S'\xfa\x80>EZ\xbfu?'
p4219
tp4220
bag29
(g30
(I0
tp4221
g32
tp4222
Rp4223
(I1
(I1
tp4224
g6
I00
S'\x871~\xe5E\xfae?'
p4225
tp4226
bag29
(g30
(I0
tp4227
g32
tp4228
Rp4229
(I1
(I1
tp4230
g6
I00
S'3\xc2\x10c\xf5tK?'
p4231
tp4232
baa(lp4233
g29
(g30
(I0
tp4234
g32
tp4235
Rp4236
(I1
(I1
tp4237
g6
I00
S'c\xe6\x08\xc7\xc5\xbdu?'
p4238
tp4239
bag29
(g30
(I0
tp4240
g32
tp4241
Rp4242
(I1
(I1
tp4243
g6
I00
S'\x82\xad\x99\x1bO\xf1e?'
p4244
tp4245
bag29
(g30
(I0
tp4246
g32
tp4247
Rp4248
(I1
(I1
tp4249
g6
I00
S'\xc3\xf4GV\x0b~J?'
p4250
tp4251
baa(lp4252
g29
(g30
(I0
tp4253
g32
tp4254
Rp4255
(I1
(I1
tp4256
g6
I00
S'\x88s\x98>\x0c\x00u?'
p4257
tp4258
bag29
(g30
(I0
tp4259
g32
tp4260
Rp4261
(I1
(I1
tp4262
g6
I00
S'?\xda\x84`8\xa0d?'
p4263
tp4264
bag29
(g30
(I0
tp4265
g32
tp4266
Rp4267
(I1
(I1
tp4268
g6
I00
S'XP8V\xe8\x9cI?'
p4269
tp4270
baa(lp4271
g29
(g30
(I0
tp4272
g32
tp4273
Rp4274
(I1
(I1
tp4275
g6
I00
S'J\r\xd0\xa7\xb3\x0cu?'
p4276
tp4277
bag29
(g30
(I0
tp4278
g32
tp4279
Rp4280
(I1
(I1
tp4281
g6
I00
S'\xa8\t\x89\x9b\x1d\xced?'
p4282
tp4283
bag29
(g30
(I0
tp4284
g32
tp4285
Rp4286
(I1
(I1
tp4287
g6
I00
S'KG\xc2\xc1_\xd5H?'
p4288
tp4289
baa(lp4290
g29
(g30
(I0
tp4291
g32
tp4292
Rp4293
(I1
(I1
tp4294
g6
I00
S'\xb3\xc1\xb2\xa5@Tt?'
p4295
tp4296
bag29
(g30
(I0
tp4297
g32
tp4298
Rp4299
(I1
(I1
tp4300
g6
I00
S'M\xaf\xa5+\xa4\xa3c?'
p4301
tp4302
bag29
(g30
(I0
tp4303
g32
tp4304
Rp4305
(I1
(I1
tp4306
g6
I00
S'4\r,\x8e\x08\x1cH?'
p4307
tp4308
baa(lp4309
g29
(g30
(I0
tp4310
g32
tp4311
Rp4312
(I1
(I1
tp4313
g6
I00
S'\x8bE\xf9\x8aKet?'
p4314
tp4315
bag29
(g30
(I0
tp4316
g32
tp4317
Rp4318
(I1
(I1
tp4319
g6
I00
S'\x89\x0c\xee@k\xedc?'
p4320
tp4321
bag29
(g30
(I0
tp4322
g32
tp4323
Rp4324
(I1
(I1
tp4325
g6
I00
S'H\xeaAH\xaevG?'
p4326
tp4327
baa(lp4328
g29
(g30
(I0
tp4329
g32
tp4330
Rp4331
(I1
(I1
tp4332
g6
I00
S'\xa3R\x9d\xf7tYt?'
p4333
tp4334
bag29
(g30
(I0
tp4335
g32
tp4336
Rp4337
(I1
(I1
tp4338
g6
I00
S'A\xd0\x03\xec\x1e\nd?'
p4339
tp4340
bag29
(g30
(I0
tp4341
g32
tp4342
Rp4343
(I1
(I1
tp4344
g6
I00
S'\xc2*F\x14\xd1\xdeF?'
p4345
tp4346
baa(lp4347
g29
(g30
(I0
tp4348
g32
tp4349
Rp4350
(I1
(I1
tp4351
g6
I00
S"\xcc\xafy\xf8'\x85s?"
p4352
tp4353
bag29
(g30
(I0
tp4354
g32
tp4355
Rp4356
(I1
(I1
tp4357
g6
I00
S'b\x1a\xd0\x13l\xc9b?'
p4358
tp4359
bag29
(g30
(I0
tp4360
g32
tp4361
Rp4362
(I1
(I1
tp4363
g6
I00
S'\x0e\xa6\xf0\x9e\x9cNF?'
p4364
tp4365
baa(lp4366
g29
(g30
(I0
tp4367
g32
tp4368
Rp4369
(I1
(I1
tp4370
g6
I00
S'\xbe\nx\xba\xd1\xdcr?'
p4371
tp4372
bag29
(g30
(I0
tp4373
g32
tp4374
Rp4375
(I1
(I1
tp4376
g6
I00
S'\x1a\xe1q\xc1\x14\xdea?'
p4377
tp4378
bag29
(g30
(I0
tp4379
g32
tp4380
Rp4381
(I1
(I1
tp4382
g6
I00
S'\xea\xe2\xa1YA\xc9E?'
p4383
tp4384
baa(lp4385
g29
(g30
(I0
tp4386
g32
tp4387
Rp4388
(I1
(I1
tp4389
g6
I00
S'\xc8\x05o\xf4V\xfbr?'
p4390
tp4391
bag29
(g30
(I0
tp4392
g32
tp4393
Rp4394
(I1
(I1
tp4395
g6
I00
S'\x8d\xc3\xfe\xbc\x93Wb?'
p4396
tp4397
bag29
(g30
(I0
tp4398
g32
tp4399
Rp4400
(I1
(I1
tp4401
g6
I00
S'\xec\x19\xe0\xd1WQE?'
p4402
tp4403
baa(lp4404
g29
(g30
(I0
tp4405
g32
tp4406
Rp4407
(I1
(I1
tp4408
g6
I00
S'\xdf\x9d%|\x9d\x1dq?'
p4409
tp4410
bag29
(g30
(I0
tp4411
g32
tp4412
Rp4413
(I1
(I1
tp4414
g6
I00
S'\xdc,tIF9^?'
p4415
tp4416
bag29
(g30
(I0
tp4417
g32
tp4418
Rp4419
(I1
(I1
tp4420
g6
I00
S'\xc4\xf8\x92%\x17|D?'
p4421
tp4422
baa(lp4423
g29
(g30
(I0
tp4424
g32
tp4425
Rp4426
(I1
(I1
tp4427
g6
I00
S'\xa4-\xd7\xaa\x0b\xc1r?'
p4428
tp4429
bag29
(g30
(I0
tp4430
g32
tp4431
Rp4432
(I1
(I1
tp4433
g6
I00
S'\xf85\x1d\x82\x7fcb?'
p4434
tp4435
bag29
(g30
(I0
tp4436
g32
tp4437
Rp4438
(I1
(I1
tp4439
g6
I00
S'\xc4\xf8\x92%\x17|D?'
p4440
tp4441
baa(lp4442
g29
(g30
(I0
tp4443
g32
tp4444
Rp4445
(I1
(I1
tp4446
g6
I00
S'\x14\x1bg\x8dN\xb8r?'
p4447
tp4448
bag29
(g30
(I0
tp4449
g32
tp4450
Rp4451
(I1
(I1
tp4452
g6
I00
S';\xe38\xa4?\x8fb?'
p4453
tp4454
bag29
(g30
(I0
tp4455
g32
tp4456
Rp4457
(I1
(I1
tp4458
g6
I00
S')\xed\xfb\xfc+\x1dD?'
p4459
tp4460
baa(lp4461
g29
(g30
(I0
tp4462
g32
tp4463
Rp4464
(I1
(I1
tp4465
g6
I00
S'Lzn\x0e\xbf\x99r?'
p4466
tp4467
bag29
(g30
(I0
tp4468
g32
tp4469
Rp4470
(I1
(I1
tp4471
g6
I00
S'\x1e\x9b-\xb3\x88\x98b?'
p4472
tp4473
bag29
(g30
(I0
tp4474
g32
tp4475
Rp4476
(I1
(I1
tp4477
g6
I00
S'\xdf\x1c\xb8\x1c\xec\xc3C?'
p4478
tp4479
baa(lp4480
g29
(g30
(I0
tp4481
g32
tp4482
Rp4483
(I1
(I1
tp4484
g6
I00
S'\x9f\xcd;6\x96kr?'
p4485
tp4486
bag29
(g30
(I0
tp4487
g32
tp4488
Rp4489
(I1
(I1
tp4490
g6
I00
S'\x17\xa6S\xb8\x19\x8ab?'
p4491
tp4492
bag29
(g30
(I0
tp4493
g32
tp4494
Rp4495
(I1
(I1
tp4496
g6
I00
S'\xab\xe5\xc1\xa6\xc4oC?'
p4497
tp4498
baa(lp4499
g29
(g30
(I0
tp4500
g32
tp4501
Rp4502
(I1
(I1
tp4503
g6
I00
S'1\x88@Ut2r?'
p4504
tp4505
bag29
(g30
(I0
tp4506
g32
tp4507
Rp4508
(I1
(I1
tp4509
g6
I00
S'\xf3\xc1cR\xcckb?'
p4510
tp4511
bag29
(g30
(I0
tp4512
g32
tp4513
Rp4514
(I1
(I1
tp4515
g6
I00
S'\x12\xf9<\xb62 C?'
p4516
tp4517
baa(lp4518
g29
(g30
(I0
tp4519
g32
tp4520
Rp4521
(I1
(I1
tp4522
g6
I00
S'\xecU\xf2F1:q?'
p4523
tp4524
bag29
(g30
(I0
tp4525
g32
tp4526
Rp4527
(I1
(I1
tp4528
g6
I00
S'\x7f\xcf\x16\xe6\x87\xf8`?'
p4529
tp4530
bag29
(g30
(I0
tp4531
g32
tp4532
Rp4533
(I1
(I1
tp4534
g6
I00
S'f\x9dz\x19O\xd2B?'
p4535
tp4536
baa(lp4537
g29
(g30
(I0
tp4538
g32
tp4539
Rp4540
(I1
(I1
tp4541
g6
I00
S'\xa2$b\x8e/:q?'
p4542
tp4543
bag29
(g30
(I0
tp4544
g32
tp4545
Rp4546
(I1
(I1
tp4547
g6
I00
S'\xff\x15\xcc\xbe\xae@a?'
p4548
tp4549
bag29
(g30
(I0
tp4550
g32
tp4551
Rp4552
(I1
(I1
tp4553
g6
I00
S'\xa0\xa9\xd4\xeb\xff\x8bB?'
p4554
tp4555
baa(lp4556
g29
(g30
(I0
tp4557
g32
tp4558
Rp4559
(I1
(I1
tp4560
g6
I00
S"|\xc6\xe1 \x9e'q?"
p4561
tp4562
bag29
(g30
(I0
tp4563
g32
tp4564
Rp4565
(I1
(I1
tp4566
g6
I00
S'\x8c\xaa\xd8O\xb1da?'
p4567
tp4568
bag29
(g30
(I0
tp4569
g32
tp4570
Rp4571
(I1
(I1
tp4572
g6
I00
S'\xbaL\xf9(\xa0IB?'
p4573
tp4574
baa(lp4575
g29
(g30
(I0
tp4576
g32
tp4577
Rp4578
(I1
(I1
tp4579
g6
I00
S'\x9e\x9e\xa9\x07\xe4\x8dn?'
p4580
tp4581
bag29
(g30
(I0
tp4582
g32
tp4583
Rp4584
(I1
(I1
tp4585
g6
I00
S'\x85\xacp\xc9bX\\?'
p4586
tp4587
bag29
(g30
(I0
tp4588
g32
tp4589
Rp4590
(I1
(I1
tp4591
g6
I00
S'\xb2v\x11\xe1J\xd0A?'
p4592
tp4593
baa(lp4594
g29
(g30
(I0
tp4595
g32
tp4596
Rp4597
(I1
(I1
tp4598
g6
I00
S'\xd9\xee7a\xce\x8dr?'
p4599
tp4600
bag29
(g30
(I0
tp4601
g32
tp4602
Rp4603
(I1
(I1
tp4604
g6
I00
S'V\x95~\x1f\xea\xb9d?'
p4605
tp4606
bag29
(g30
(I0
tp4607
g32
tp4608
Rp4609
(I1
(I1
tp4610
g6
I00
S'\xb2v\x11\xe1J\xd0A?'
p4611
tp4612
baa(lp4613
g29
(g30
(I0
tp4614
g32
tp4615
Rp4616
(I1
(I1
tp4617
g6
I00
S'\xba\xcd\x9e%v p?'
p4618
tp4619
bag29
(g30
(I0
tp4620
g32
tp4621
Rp4622
(I1
(I1
tp4623
g6
I00
S'&\xc8S]~-`?'
p4624
tp4625
bag29
(g30
(I0
tp4626
g32
tp4627
Rp4628
(I1
(I1
tp4629
g6
I00
S'\xe3\xe9\xa6\x80;\x98A?'
p4630
tp4631
baa(lp4632
g29
(g30
(I0
tp4633
g32
tp4634
Rp4635
(I1
(I1
tp4636
g6
I00
S"\x18\x0c'\x93c<p?"
p4637
tp4638
bag29
(g30
(I0
tp4639
g32
tp4640
Rp4641
(I1
(I1
tp4642
g6
I00
S'\xddC\x1btV\x92`?'
p4643
tp4644
bag29
(g30
(I0
tp4645
g32
tp4646
Rp4647
(I1
(I1
tp4648
g6
I00
S'\xd8\x10y\xea\x8adA?'
p4649
tp4650
baa(lp4651
g29
(g30
(I0
tp4652
g32
tp4653
Rp4654
(I1
(I1
tp4655
g6
I00
S'\x80-:\x0c\x18Ip?'
p4656
tp4657
bag29
(g30
(I0
tp4658
g32
tp4659
Rp4660
(I1
(I1
tp4661
g6
I00
S'\xc9#\x1a\xa2;\xd3`?'
p4662
tp4663
bag29
(g30
(I0
tp4664
g32
tp4665
Rp4666
(I1
(I1
tp4667
g6
I00
S'X\x90\x9a\x0f\xef3A?'
p4668
tp4669
baa(lp4670
g29
(g30
(I0
tp4671
g32
tp4672
Rp4673
(I1
(I1
tp4674
g6
I00
S'\xb0\xcd\x02\xad*Np?'
p4675
tp4676
bag29
(g30
(I0
tp4677
g32
tp4678
Rp4679
(I1
(I1
tp4680
g6
I00
S'p\xb9\xccA\x96\xfd`?'
p4681
tp4682
bag29
(g30
(I0
tp4683
g32
tp4684
Rp4685
(I1
(I1
tp4686
g6
I00
S'\xe2\xac\xf0\x17I\x06A?'
p4687
tp4688
baa(lp4689
g29
(g30
(I0
tp4690
g32
tp4691
Rp4692
(I1
(I1
tp4693
g6
I00
S'\x84\xf5\xe5\xd0\xd6Pp?'
p4694
tp4695
bag29
(g30
(I0
tp4696
g32
tp4697
Rp4698
(I1
(I1
tp4699
g6
I00
S'\x9c\xf2\x1fJ\xb9\x1aa?'
p4700
tp4701
bag29
(g30
(I0
tp4702
g32
tp4703
Rp4704
(I1
(I1
tp4705
g6
I00
S'\x8f\x0c\xf0\xd5t\xdb@?'
p4706
tp4707
baa(lp4708
g29
(g30
(I0
tp4709
g32
tp4710
Rp4711
(I1
(I1
tp4712
g6
I00
S'=\x80\xc4\xb8gAp?'
p4713
tp4714
bag29
(g30
(I0
tp4715
g32
tp4716
Rp4717
(I1
(I1
tp4718
g6
I00
S"}\x0b\xc9\xdb_'\\?"
p4719
tp4720
bag29
(g30
(I0
tp4721
g32
tp4722
Rp4723
(I1
(I1
tp4724
g6
I00
S'\x92\x89\xc31\xb1\xe9C?'
p4725
tp4726
baa(lp4727
g29
(g30
(I0
tp4728
g32
tp4729
Rp4730
(I1
(I1
tp4731
g6
I00
S'\xa3K\\\xbc\x82\xc5p?'
p4732
tp4733
bag29
(g30
(I0
tp4734
g32
tp4735
Rp4736
(I1
(I1
tp4737
g6
I00
S'v\xadf\xa5\xc0\xebW?'
p4738
tp4739
bag29
(g30
(I0
tp4740
g32
tp4741
Rp4742
(I1
(I1
tp4743
g6
I00
S'<\x99\t\xde5\xe5F?'
p4744
tp4745
baa(lp4746
g29
(g30
(I0
tp4747
g32
tp4748
Rp4749
(I1
(I1
tp4750
g6
I00
S'FC6M\x80\x80q?'
p4751
tp4752
bag29
(g30
(I0
tp4753
g32
tp4754
Rp4755
(I1
(I1
tp4756
g6
I00
S'#\xed\x18\xabx\xc4T?'
p4757
tp4758
bag29
(g30
(I0
tp4759
g32
tp4760
Rp4761
(I1
(I1
tp4762
g6
I00
S'\x1c\xb9\xdb\xde\x1csI?'
p4763
tp4764
baa(lp4765
g29
(g30
(I0
tp4766
g32
tp4767
Rp4768
(I1
(I1
tp4769
g6
I00
S'\x8f\xa2\xe8&\x12wr?'
p4770
tp4771
bag29
(g30
(I0
tp4772
g32
tp4773
Rp4774
(I1
(I1
tp4775
g6
I00
S'\xf5Xj\xa3\x1b\\R?'
p4776
tp4777
bag29
(g30
(I0
tp4778
g32
tp4779
Rp4780
(I1
(I1
tp4781
g6
I00
S'\xec\x89\xcd\x06J\x1aL?'
p4782
tp4783
baa(lp4784
g29
(g30
(I0
tp4785
g32
tp4786
Rp4787
(I1
(I1
tp4788
g6
I00
S'\xb6\xb9]~-us?'
p4789
tp4790
bag29
(g30
(I0
tp4791
g32
tp4792
Rp4793
(I1
(I1
tp4794
g6
I00
S'\x06\xa6\xc1\xcd5\x82P?'
p4795
tp4796
bag29
(g30
(I0
tp4797
g32
tp4798
Rp4799
(I1
(I1
tp4800
g6
I00
S'\xf8\x0f\x0fD\xc3\x8fN?'
p4801
tp4802
baa(lp4803
g29
(g30
(I0
tp4804
g32
tp4805
Rp4806
(I1
(I1
tp4807
g6
I00
S'?I\x96\x80v\x19s?'
p4808
tp4809
bag29
(g30
(I0
tp4810
g32
tp4811
Rp4812
(I1
(I1
tp4813
g6
I00
S'\x19\xf8\xc2\xb9\xcd\xf9N?'
p4814
tp4815
bag29
(g30
(I0
tp4816
g32
tp4817
Rp4818
(I1
(I1
tp4819
g6
I00
S'\xab\xa5\xbb\x06\xaa\x07P?'
p4820
tp4821
baa(lp4822
g29
(g30
(I0
tp4823
g32
tp4824
Rp4825
(I1
(I1
tp4826
g6
I00
S'.\x0ekEXcr?'
p4827
tp4828
bag29
(g30
(I0
tp4829
g32
tp4830
Rp4831
(I1
(I1
tp4832
g6
I00
S'\x94\xa6\xf8\\^\xa9N?'
p4833
tp4834
bag29
(g30
(I0
tp4835
g32
tp4836
Rp4837
(I1
(I1
tp4838
g6
I00
S'\xe8k\x07^q\xbbP?'
p4839
tp4840
baa(lp4841
g29
(g30
(I0
tp4842
g32
tp4843
Rp4844
(I1
(I1
tp4845
g6
I00
S'\xee?\xe3\xa1\xe7^p?'
p4846
tp4847
bag29
(g30
(I0
tp4848
g32
tp4849
Rp4850
(I1
(I1
tp4851
g6
I00
S'\xe6\xeb&t\xfb\xb5S?'
p4852
tp4853
bag29
(g30
(I0
tp4854
g32
tp4855
Rp4856
(I1
(I1
tp4857
g6
I00
S'\xca\x95\x04\x1f|JQ?'
p4858
tp4859
baa(lp4860
g29
(g30
(I0
tp4861
g32
tp4862
Rp4863
(I1
(I1
tp4864
g6
I00
S'\x8c\xe5\xfc\xd9f\x9cm?'
p4865
tp4866
bag29
(g30
(I0
tp4867
g32
tp4868
Rp4869
(I1
(I1
tp4870
g6
I00
S'\xdanP\xa7\x0b]V?'
p4871
tp4872
bag29
(g30
(I0
tp4873
g32
tp4874
Rp4875
(I1
(I1
tp4876
g6
I00
S'\x15,\xbc\xbb|\x86Q?'
p4877
tp4878
baa(lp4879
g29
(g30
(I0
tp4880
g32
tp4881
Rp4882
(I1
(I1
tp4883
g6
I00
S'tk\x1e\xa8Fck?'
p4884
tp4885
bag29
(g30
(I0
tp4886
g32
tp4887
Rp4888
(I1
(I1
tp4889
g6
I00
S'\xecl\xc1-\xd6\x08Z?'
p4890
tp4891
bag29
(g30
(I0
tp4892
g32
tp4893
Rp4894
(I1
(I1
tp4895
g6
I00
S'y\xa2A~s\x00R?'
p4896
tp4897
baa(lp4898
g29
(g30
(I0
tp4899
g32
tp4900
Rp4901
(I1
(I1
tp4902
g6
I00
S'\xa3kgj\xe4\nl?'
p4903
tp4904
bag29
(g30
(I0
tp4905
g32
tp4906
Rp4907
(I1
(I1
tp4908
g6
I00
S'\xe5\xb9\xb3\xf0\xa9%Y?'
p4909
tp4910
bag29
(g30
(I0
tp4911
g32
tp4912
Rp4913
(I1
(I1
tp4914
g6
I00
S'\x14\xe5\x00\x10\xe2oR?'
p4915
tp4916
baa(lp4917
g29
(g30
(I0
tp4918
g32
tp4919
Rp4920
(I1
(I1
tp4921
g6
I00
S'\xf1\xed\xce\x942\xa7m?'
p4922
tp4923
bag29
(g30
(I0
tp4924
g32
tp4925
Rp4926
(I1
(I1
tp4927
g6
I00
S'A+q\x94\xf1\x85W?'
p4928
tp4929
bag29
(g30
(I0
tp4930
g32
tp4931
Rp4932
(I1
(I1
tp4933
g6
I00
S'?\xe3Y\xd6L\xd7R?'
p4934
tp4935
baa(lp4936
g29
(g30
(I0
tp4937
g32
tp4938
Rp4939
(I1
(I1
tp4940
g6
I00
S'\xa7_\xb0\xb1L\xean?'
p4941
tp4942
bag29
(g30
(I0
tp4943
g32
tp4944
Rp4945
(I1
(I1
tp4946
g6
I00
S'I\xaem\x01\xa2\x9bV?'
p4947
tp4948
bag29
(g30
(I0
tp4949
g32
tp4950
Rp4951
(I1
(I1
tp4952
g6
I00
S'\xd1|7\xbc\x9b4S?'
p4953
tp4954
baa(lp4955
g29
(g30
(I0
tp4956
g32
tp4957
Rp4958
(I1
(I1
tp4959
g6
I00
S'6\x9e\x82\xe8\xf6\xe8n?'
p4960
tp4961
bag29
(g30
(I0
tp4962
g32
tp4963
Rp4964
(I1
(I1
tp4965
g6
I00
S'\xb8\xc6\xa0\x0f-^W?'
p4966
tp4967
bag29
(g30
(I0
tp4968
g32
tp4969
Rp4970
(I1
(I1
tp4971
g6
I00
S'h\xca\x0eq\x0f\x86S?'
p4972
tp4973
baa(lp4974
g29
(g30
(I0
tp4975
g32
tp4976
Rp4977
(I1
(I1
tp4978
g6
I00
S')\x8fe\x12nvm?'
p4979
tp4980
bag29
(g30
(I0
tp4981
g32
tp4982
Rp4983
(I1
(I1
tp4984
g6
I00
S'\xad\xc3\xe5\xc6`\x0bZ?'
p4985
tp4986
bag29
(g30
(I0
tp4987
g32
tp4988
Rp4989
(I1
(I1
tp4990
g6
I00
S'\xb4\xeb\x93)\x83\xccS?'
p4991
tp4992
baa(lp4993
g29
(g30
(I0
tp4994
g32
tp4995
Rp4996
(I1
(I1
tp4997
g6
I00
S'\x83Y\xd7z\x01Eh?'
p4998
tp4999
bag29
(g30
(I0
tp5000
g32
tp5001
Rp5002
(I1
(I1
tp5003
g6
I00
S'\t\xe8_\xc1\xfcrZ?'
p5004
tp5005
bag29
(g30
(I0
tp5006
g32
tp5007
Rp5008
(I1
(I1
tp5009
g6
I00
S'\xd0\xd2\xb8\xcf\x13XQ?'
p5010
tp5011
baa(lp5012
g29
(g30
(I0
tp5013
g32
tp5014
Rp5015
(I1
(I1
tp5016
g6
I00
S'\x86\xdd\xccJ\xb9Od?'
p5017
tp5018
bag29
(g30
(I0
tp5019
g32
tp5020
Rp5021
(I1
(I1
tp5022
g6
I00
S' \x9d\xf0A\x02u[?'
p5023
tp5024
bag29
(g30
(I0
tp5025
g32
tp5026
Rp5027
(I1
(I1
tp5028
g6
I00
S'*\xbc\xd4\xd6\xcb\x81O?'
p5029
tp5030
baa(lp5031
g29
(g30
(I0
tp5032
g32
tp5033
Rp5034
(I1
(I1
tp5035
g6
I00
S'\xc1a4\x11\xde\xe6`?'
p5036
tp5037
bag29
(g30
(I0
tp5038
g32
tp5039
Rp5040
(I1
(I1
tp5041
g6
I00
S'\xc24k\x9b\xb2\xd2\\?'
p5042
tp5043
bag29
(g30
(I0
tp5044
g32
tp5045
Rp5046
(I1
(I1
tp5047
g6
I00
S'\xf0\xeb\x16\xaf03M?'
p5048
tp5049
baa(lp5050
g29
(g30
(I0
tp5051
g32
tp5052
Rp5053
(I1
(I1
tp5054
g6
I00
S'\x0b\xa7\x84\x96\x11%\\?'
p5055
tp5056
bag29
(g30
(I0
tp5057
g32
tp5058
Rp5059
(I1
(I1
tp5060
g6
I00
S'\xc5\xf5\xabl\xe3\xd1]?'
p5061
tp5062
bag29
(g30
(I0
tp5063
g32
tp5064
Rp5065
(I1
(I1
tp5066
g6
I00
S')1\\%\xd0gK?'
p5067
tp5068
baa(lp5069
g29
(g30
(I0
tp5070
g32
tp5071
Rp5072
(I1
(I1
tp5073
g6
I00
S'\xa8\xa1\xbd\xdb\xa5\xbdW?'
p5074
tp5075
bag29
(g30
(I0
tp5076
g32
tp5077
Rp5078
(I1
(I1
tp5079
g6
I00
S'\xfd\x7f\xeb\x95K\xc4_?'
p5080
tp5081
bag29
(g30
(I0
tp5082
g32
tp5083
Rp5084
(I1
(I1
tp5085
g6
I00
S'\x15]\xf9n\xe6\x7fJ?'
p5086
tp5087
baa(lp5088
g29
(g30
(I0
tp5089
g32
tp5090
Rp5091
(I1
(I1
tp5092
g6
I00
S'\t\r\xa4\xa4;bT?'
p5093
tp5094
bag29
(g30
(I0
tp5095
g32
tp5096
Rp5097
(I1
(I1
tp5098
g6
I00
S'\x94<\x82\x01Z\x80`?'
p5099
tp5100
bag29
(g30
(I0
tp5101
g32
tp5102
Rp5103
(I1
(I1
tp5104
g6
I00
S'\xfd\xdb\xdb\x12\xe1\xf9I?'
p5105
tp5106
baa(lp5107
g29
(g30
(I0
tp5108
g32
tp5109
Rp5110
(I1
(I1
tp5111
g6
I00
S'\xbb\xf7\xbcd+\xd9Q?'
p5112
tp5113
bag29
(g30
(I0
tp5114
g32
tp5115
Rp5116
(I1
(I1
tp5117
g6
I00
S'\x00}\\\xf8\xf8+`?'
p5118
tp5119
bag29
(g30
(I0
tp5120
g32
tp5121
Rp5122
(I1
(I1
tp5123
g6
I00
S'\x0be\x19`\xf7&I?'
p5124
tp5125
baa(lp5126
g29
(g30
(I0
tp5127
g32
tp5128
Rp5129
(I1
(I1
tp5130
g6
I00
S'\xcf\xa4\xf1/\xee\xf8O?'
p5131
tp5132
bag29
(g30
(I0
tp5133
g32
tp5134
Rp5135
(I1
(I1
tp5136
g6
I00
S'\x15}}\xea\xff\xa1^?'
p5137
tp5138
bag29
(g30
(I0
tp5139
g32
tp5140
Rp5141
(I1
(I1
tp5142
g6
I00
S'\x15\x1b\xffp\xfbSH?'
p5143
tp5144
baa(lp5145
g29
(g30
(I0
tp5146
g32
tp5147
Rp5148
(I1
(I1
tp5149
g6
I00
S'%!\x13\xd8\x90\xf8L?'
p5150
tp5151
bag29
(g30
(I0
tp5152
g32
tp5153
Rp5154
(I1
(I1
tp5155
g6
I00
S'\x1d4\xfbx\x98&^?'
p5156
tp5157
bag29
(g30
(I0
tp5158
g32
tp5159
Rp5160
(I1
(I1
tp5161
g6
I00
S'\xc1\xc2n\xe4\xc0\xf1G?'
p5162
tp5163
baa(lp5164
g29
(g30
(I0
tp5165
g32
tp5166
Rp5167
(I1
(I1
tp5168
g6
I00
S'\x8b\xf6K\xb4\xa3RR?'
p5169
tp5170
bag29
(g30
(I0
tp5171
g32
tp5172
Rp5173
(I1
(I1
tp5174
g6
I00
S'\x1f\xf3\xb6l\xf3\xd0X?'
p5175
tp5176
bag29
(g30
(I0
tp5177
g32
tp5178
Rp5179
(I1
(I1
tp5180
g6
I00
S'\xac\xc7\x1c\xf2E\xa6C?'
p5181
tp5182
baa(lp5183
g29
(g30
(I0
tp5184
g32
tp5185
Rp5186
(I1
(I1
tp5187
g6
I00
S'&\x8a\x02\xc0Q<V?'
p5188
tp5189
bag29
(g30
(I0
tp5190
g32
tp5191
Rp5192
(I1
(I1
tp5193
g6
I00
S'\x91\xa90\xf0\xe7kY?'
p5194
tp5195
bag29
(g30
(I0
tp5196
g32
tp5197
Rp5198
(I1
(I1
tp5199
g6
I00
S'\x10W\xa7\x98\xf5\xa1A?'
p5200
tp5201
baa(lp5202
g29
(g30
(I0
tp5203
g32
tp5204
Rp5205
(I1
(I1
tp5206
g6
I00
S'\x82G\xd3\x0b\xba\x15[?'
p5207
tp5208
bag29
(g30
(I0
tp5209
g32
tp5210
Rp5211
(I1
(I1
tp5212
g6
I00
S'O\xc8\x86\xf6(L_?'
p5213
tp5214
bag29
(g30
(I0
tp5215
g32
tp5216
Rp5217
(I1
(I1
tp5218
g6
I00
S'$\xc0\x7f3\xec\xe1@?'
p5219
tp5220
baa(lp5221
g29
(g30
(I0
tp5222
g32
tp5223
Rp5224
(I1
(I1
tp5225
g6
I00
S'=:\xbb9\xc4\xafa?'
p5226
tp5227
bag29
(g30
(I0
tp5228
g32
tp5229
Rp5230
(I1
(I1
tp5231
g6
I00
S'\xe4\x9e\xe6\x07\xe1\xe4b?'
p5232
tp5233
bag29
(g30
(I0
tp5234
g32
tp5235
Rp5236
(I1
(I1
tp5237
g6
I00
S'\xa3\xe5\xdd:\x1e\xce>?'
p5238
tp5239
baa(lp5240
g29
(g30
(I0
tp5241
g32
tp5242
Rp5243
(I1
(I1
tp5244
g6
I00
S'*\x91\x15\xb4\rh\\?'
p5245
tp5246
bag29
(g30
(I0
tp5247
g32
tp5248
Rp5249
(I1
(I1
tp5250
g6
I00
S'\xd8\\Eq\xebca?'
p5251
tp5252
bag29
(g30
(I0
tp5253
g32
tp5254
Rp5255
(I1
(I1
tp5256
g6
I00
S',!\x15r\xe7qA?'
p5257
tp5258
baa(lp5259
g29
(g30
(I0
tp5260
g32
tp5261
Rp5262
(I1
(I1
tp5263
g6
I00
S'\xd8\x91\xb3\xc3\x9a\x9dX?'
p5264
tp5265
bag29
(g30
(I0
tp5266
g32
tp5267
Rp5268
(I1
(I1
tp5269
g6
I00
S'?v`\x01\x0f\x9e`?'
p5270
tp5271
bag29
(g30
(I0
tp5272
g32
tp5273
Rp5274
(I1
(I1
tp5275
g6
I00
S'\\r\xad\x14\xf6(C?'
p5276
tp5277
baa(lp5278
g29
(g30
(I0
tp5279
g32
tp5280
Rp5281
(I1
(I1
tp5282
g6
I00
S'\xeb\x9d28\xda\xc1U?'
p5283
tp5284
bag29
(g30
(I0
tp5285
g32
tp5286
Rp5287
(I1
(I1
tp5288
g6
I00
S'\xaem6%7PZ?'
p5289
tp5290
bag29
(g30
(I0
tp5291
g32
tp5292
Rp5293
(I1
(I1
tp5294
g6
I00
S'\xc0@\x03\xaa\x83KA?'
p5295
tp5296
baa(lp5297
g29
(g30
(I0
tp5298
g32
tp5299
Rp5300
(I1
(I1
tp5301
g6
I00
S'\xda\xd7\x0c\xb2\x8e\x0bT?'
p5302
tp5303
bag29
(g30
(I0
tp5304
g32
tp5305
Rp5306
(I1
(I1
tp5307
g6
I00
S'\x83\xfe\x8a\xe0\x04\xccY?'
p5308
tp5309
bag29
(g30
(I0
tp5310
g32
tp5311
Rp5312
(I1
(I1
tp5313
g6
I00
S'\x1aZ \t\x0epB?'
p5314
tp5315
baa(lp5316
g29
(g30
(I0
tp5317
g32
tp5318
Rp5319
(I1
(I1
tp5320
g6
I00
S'\x1ev&\xbd\xb1\x89R?'
p5321
tp5322
bag29
(g30
(I0
tp5323
g32
tp5324
Rp5325
(I1
(I1
tp5326
g6
I00
S'\x85\xf5\xe5\xb85\xc4Z?'
p5327
tp5328
bag29
(g30
(I0
tp5329
g32
tp5330
Rp5331
(I1
(I1
tp5332
g6
I00
S'\x14\x15i\x97\xc0\xadC?'
p5333
tp5334
baa(lp5335
g29
(g30
(I0
tp5336
g32
tp5337
Rp5338
(I1
(I1
tp5339
g6
I00
S'\xea\xcb&\xd8\xe89V?'
p5340
tp5341
bag29
(g30
(I0
tp5342
g32
tp5343
Rp5344
(I1
(I1
tp5345
g6
I00
S'\xb8\xa6\xe1\xc0\xa3MZ?'
p5346
tp5347
bag29
(g30
(I0
tp5348
g32
tp5349
Rp5350
(I1
(I1
tp5351
g6
I00
S'\xd5f\xcfcy\xbaA?'
p5352
tp5353
baa(lp5354
g29
(g30
(I0
tp5355
g32
tp5356
Rp5357
(I1
(I1
tp5358
g6
I00
S'\xd6\x05|HNyT?'
p5359
tp5360
bag29
(g30
(I0
tp5361
g32
tp5362
Rp5363
(I1
(I1
tp5364
g6
I00
S'\x8e\xbe6\x1eC\xe2Z?'
p5365
tp5366
bag29
(g30
(I0
tp5367
g32
tp5368
Rp5369
(I1
(I1
tp5370
g6
I00
S'\xb8\x97g\x80T\x1cC?'
p5371
tp5372
baa(lp5373
g29
(g30
(I0
tp5374
g32
tp5375
Rp5376
(I1
(I1
tp5377
g6
I00
S'\x9e\xf3\x81\x87\xaf9R?'
p5378
tp5379
bag29
(g30
(I0
tp5380
g32
tp5381
Rp5382
(I1
(I1
tp5383
g6
I00
S'\x1e\xa1\xd8x))_?'
p5384
tp5385
bag29
(g30
(I0
tp5386
g32
tp5387
Rp5388
(I1
(I1
tp5389
g6
I00
S'\x10\xea{\xbb\x1aBF?'
p5390
tp5391
baa(lp5392
g29
(g30
(I0
tp5393
g32
tp5394
Rp5395
(I1
(I1
tp5396
g6
I00
S'\x92p\xaa\xf2T\xefO?'
p5397
tp5398
bag29
(g30
(I0
tp5399
g32
tp5400
Rp5401
(I1
(I1
tp5402
g6
I00
S']\xff\x0f\xa56XW?'
p5403
tp5404
bag29
(g30
(I0
tp5405
g32
tp5406
Rp5407
(I1
(I1
tp5408
g6
I00
S'b\xcb6\xc1\xd6\xbbB?'
p5409
tp5410
baa(lp5411
g29
(g30
(I0
tp5412
g32
tp5413
Rp5414
(I1
(I1
tp5415
g6
I00
S'\xb2\xd9\xad\x89H)Q?'
p5416
tp5417
bag29
(g30
(I0
tp5418
g32
tp5419
Rp5420
(I1
(I1
tp5421
g6
I00
S'\xf5\x08:\xb0\xc9%T?'
p5422
tp5423
bag29
(g30
(I0
tp5424
g32
tp5425
Rp5426
(I1
(I1
tp5427
g6
I00
S'\xf5\xfe\x15\xdd\xd8\x8cB?'
p5428
tp5429
baa(lp5430
g29
(g30
(I0
tp5431
g32
tp5432
Rp5433
(I1
(I1
tp5434
g6
I00
S'\x15\x02}\x1f!\x8bS?'
p5435
tp5436
bag29
(g30
(I0
tp5437
g32
tp5438
Rp5439
(I1
(I1
tp5440
g6
I00
S'\xbe\xb1\x87P)\x97P?'
p5441
tp5442
bag29
(g30
(I0
tp5443
g32
tp5444
Rp5445
(I1
(I1
tp5446
g6
I00
S'1l\xc4\x1e\x05jB?'
p5447
tp5448
baa(lp5449
g29
(g30
(I0
tp5450
g32
tp5451
Rp5452
(I1
(I1
tp5453
g6
I00
S"'\xf2\x81g|\x87U?"
p5454
tp5455
bag29
(g30
(I0
tp5456
g32
tp5457
Rp5458
(I1
(I1
tp5459
g6
I00
S'\x90\x1b]\xfc\xb8GT?'
p5460
tp5461
bag29
(g30
(I0
tp5462
g32
tp5463
Rp5464
(I1
(I1
tp5465
g6
I00
S'|\x0b\xf8\xf5\xfc\x96E?'
p5466
tp5467
baa(lp5468
g29
(g30
(I0
tp5469
g32
tp5470
Rp5471
(I1
(I1
tp5472
g6
I00
S'\xb4\x05E\xd5|\xeaQ?'
p5473
tp5474
bag29
(g30
(I0
tp5475
g32
tp5476
Rp5477
(I1
(I1
tp5478
g6
I00
S'r\xaaj{\xf6\x89P?'
p5479
tp5480
bag29
(g30
(I0
tp5481
g32
tp5482
Rp5483
(I1
(I1
tp5484
g6
I00
S'\xedV\xda}\xae<B?'
p5485
tp5486
baa(lp5487
g29
(g30
(I0
tp5488
g32
tp5489
Rp5490
(I1
(I1
tp5491
g6
I00
S'\x88\xff\x9cZ\xdb\xffN?'
p5492
tp5493
bag29
(g30
(I0
tp5494
g32
tp5495
Rp5496
(I1
(I1
tp5497
g6
I00
S'\x80\xdfH\x16\xfc!R?'
p5498
tp5499
bag29
(g30
(I0
tp5500
g32
tp5501
Rp5502
(I1
(I1
tp5503
g6
I00
S'\ru0\x91=.B?'
p5504
tp5505
baa(lp5506
g29
(g30
(I0
tp5507
g32
tp5508
Rp5509
(I1
(I1
tp5510
g6
I00
S'/\xb9\xa5\r\x8fKK?'
p5511
tp5512
bag29
(g30
(I0
tp5513
g32
tp5514
Rp5515
(I1
(I1
tp5516
g6
I00
S'o8\xc3\xeb7)S?'
p5517
tp5518
bag29
(g30
(I0
tp5519
g32
tp5520
Rp5521
(I1
(I1
tp5522
g6
I00
S'-\x17W\x06\x14$B?'
p5523
tp5524
baa(lp5525
g29
(g30
(I0
tp5526
g32
tp5527
Rp5528
(I1
(I1
tp5529
g6
I00
S'0v\x15\xb0\x13\xfeI?'
p5530
tp5531
bag29
(g30
(I0
tp5532
g32
tp5533
Rp5534
(I1
(I1
tp5535
g6
I00
S'L\xc42\x93\xfe\x10S?'
p5536
tp5537
bag29
(g30
(I0
tp5538
g32
tp5539
Rp5540
(I1
(I1
tp5541
g6
I00
S'\xb5\xdbva\xa8\x1dB?'
p5542
tp5543
baa(lp5544
g29
(g30
(I0
tp5545
g32
tp5546
Rp5547
(I1
(I1
tp5548
g6
I00
S'\x06\xb6\x9d\x89C\tP?'
p5549
tp5550
bag29
(g30
(I0
tp5551
g32
tp5552
Rp5553
(I1
(I1
tp5554
g6
I00
S'\x02\xcaL\xf9\xb6\x81S?'
p5555
tp5556
bag29
(g30
(I0
tp5557
g32
tp5558
Rp5559
(I1
(I1
tp5560
g6
I00
S'\xedS-b\xefq??'
p5561
tp5562
baa(lp5563
g29
(g30
(I0
tp5564
g32
tp5565
Rp5566
(I1
(I1
tp5567
g6
I00
S'f\xf1\x13\xa5 NT?'
p5568
tp5569
bag29
(g30
(I0
tp5570
g32
tp5571
Rp5572
(I1
(I1
tp5573
g6
I00
S'2Y\x1b\xca\x045V?'
p5574
tp5575
bag29
(g30
(I0
tp5576
g32
tp5577
Rp5578
(I1
(I1
tp5579
g6
I00
S'\xa9dT\xb2\x98\xc8;?'
p5580
tp5581
baa(lp5582
g29
(g30
(I0
tp5583
g32
tp5584
Rp5585
(I1
(I1
tp5586
g6
I00
S'\x9bq{T\x0f\xf9T?'
p5587
tp5588
bag29
(g30
(I0
tp5589
g32
tp5590
Rp5591
(I1
(I1
tp5592
g6
I00
S'K\xa6 \xa8{\xd6U?'
p5593
tp5594
bag29
(g30
(I0
tp5595
g32
tp5596
Rp5597
(I1
(I1
tp5598
g6
I00
S'\xb9\xc8\xc3m\xbf\xe78?'
p5599
tp5600
baa(lp5601
g29
(g30
(I0
tp5602
g32
tp5603
Rp5604
(I1
(I1
tp5605
g6
I00
S'\xa6_7A\xa6\xdfS?'
p5606
tp5607
bag29
(g30
(I0
tp5608
g32
tp5609
Rp5610
(I1
(I1
tp5611
g6
I00
S'\xcd4D\xc2\x16\xbfS?'
p5612
tp5613
bag29
(g30
(I0
tp5614
g32
tp5615
Rp5616
(I1
(I1
tp5617
g6
I00
S'!\x1f&\x00\xdf\x956?'
p5618
tp5619
baa(lp5620
g29
(g30
(I0
tp5621
g32
tp5622
Rp5623
(I1
(I1
tp5624
g6
I00
S'3\xdc\xe2Kn=S?'
p5625
tp5626
bag29
(g30
(I0
tp5627
g32
tp5628
Rp5629
(I1
(I1
tp5630
g6
I00
S'\xc3\xaa\xf5(\x87gR?'
p5631
tp5632
bag29
(g30
(I0
tp5633
g32
tp5634
Rp5635
(I1
(I1
tp5636
g6
I00
S'}w?\xeb\xcd\xa94?'
p5637
tp5638
baa(lp5639
g29
(g30
(I0
tp5640
g32
tp5641
Rp5642
(I1
(I1
tp5643
g6
I00
S's\\>\xb5\x84\xd7R?'
p5644
tp5645
bag29
(g30
(I0
tp5646
g32
tp5647
Rp5648
(I1
(I1
tp5649
g6
I00
S'\x90\xb0\xfc\x90\xc4\xc4Q?'
p5650
tp5651
bag29
(g30
(I0
tp5652
g32
tp5653
Rp5654
(I1
(I1
tp5655
g6
I00
S'A6\x12\x90\xb7\r3?'
p5656
tp5657
baa(lp5658
g29
(g30
(I0
tp5659
g32
tp5660
Rp5661
(I1
(I1
tp5662
g6
I00
S'\t\xe7\x8a\xe0\x1f\x82R?'
p5663
tp5664
bag29
(g30
(I0
tp5665
g32
tp5666
Rp5667
(I1
(I1
tp5668
g6
I00
S'\x8fZd0n)Q?'
p5669
tp5670
bag29
(g30
(I0
tp5671
g32
tp5672
Rp5673
(I1
(I1
tp5674
g6
I00
S'\x0c\xca\x84N$\xad1?'
p5675
tp5676
baa(lp5677
g29
(g30
(I0
tp5678
g32
tp5679
Rp5680
(I1
(I1
tp5681
g6
I00
S'\x8b\x11M9M>R?'
p5682
tp5683
bag29
(g30
(I0
tp5684
g32
tp5685
Rp5686
(I1
(I1
tp5687
g6
I00
S'{&\xce\x0f\xb7\xc4P?'
p5688
tp5689
bag29
(g30
(I0
tp5690
g32
tp5691
Rp5692
(I1
(I1
tp5693
g6
I00
S'O\x03\xbfq`|0?'
p5694
tp5695
baa(lp5696
g29
(g30
(I0
tp5697
g32
tp5698
Rp5699
(I1
(I1
tp5700
g6
I00
S'h\xe5\x86\x1e7\x03R?'
p5701
tp5702
bag29
(g30
(I0
tp5703
g32
tp5704
Rp5705
(I1
(I1
tp5706
g6
I00
S'\x87\x02\xdbJ\x95}P?'
p5707
tp5708
bag29
(g30
(I0
tp5709
g32
tp5710
Rp5711
(I1
(I1
tp5712
g6
I00
S'\t\xe88\x85\xa5\xe4.?'
p5713
tp5714
baa(lp5715
g29
(g30
(I0
tp5716
g32
tp5717
Rp5718
(I1
(I1
tp5719
g6
I00
S'\xaf<\xaaz\x87\xcdQ?'
p5720
tp5721
bag29
(g30
(I0
tp5722
g32
tp5723
Rp5724
(I1
(I1
tp5725
g6
I00
S"\xf1'\xa1R\x9dGP?"
p5726
tp5727
bag29
(g30
(I0
tp5728
g32
tp5729
Rp5730
(I1
(I1
tp5731
g6
I00
S'\x8b\x9f~5\x18\x10-?'
p5732
tp5733
baa(lp5734
g29
(g30
(I0
tp5735
g32
tp5736
Rp5737
(I1
(I1
tp5738
g6
I00
S'\xc2\xd4\x80v\x01\x9cQ?'
p5739
tp5740
bag29
(g30
(I0
tp5741
g32
tp5742
Rp5743
(I1
(I1
tp5744
g6
I00
S'\xfe?}\xbfT\x1cP?'
p5745
tp5746
bag29
(g30
(I0
tp5747
g32
tp5748
Rp5749
(I1
(I1
tp5750
g6
I00
S'6\x9b\x0c\x98Xp+?'
p5751
tp5752
baa(lp5753
g29
(g30
(I0
tp5754
g32
tp5755
Rp5756
(I1
(I1
tp5757
g6
I00
S'G\xd7n8MnQ?'
p5758
tp5759
bag29
(g30
(I0
tp5760
g32
tp5761
Rp5762
(I1
(I1
tp5763
g6
I00
S'\xe4&\xdb$\x01\xf1O?'
p5764
tp5765
bag29
(g30
(I0
tp5766
g32
tp5767
Rp5768
(I1
(I1
tp5769
g6
I00
S'\xa9i\xe1\x08\xe1\xfc)?'
p5770
tp5771
baa(lp5772
g29
(g30
(I0
tp5773
g32
tp5774
Rp5775
(I1
(I1
tp5776
g6
I00
S'\xe2!\x83\x08P\xd5S?'
p5777
tp5778
bag29
(g30
(I0
tp5779
g32
tp5780
Rp5781
(I1
(I1
tp5782
g6
I00
S'\xe4=\x97\xf3\xd2\xfdH?'
p5783
tp5784
bag29
(g30
(I0
tp5785
g32
tp5786
Rp5787
(I1
(I1
tp5788
g6
I00
S'P\xd9x\xa0\x94\xcd2?'
p5789
tp5790
baa(lp5791
g29
(g30
(I0
tp5792
g32
tp5793
Rp5794
(I1
(I1
tp5795
g6
I00
S'"\x12\x8b\xb8\xb3\xb0T?'
p5796
tp5797
bag29
(g30
(I0
tp5798
g32
tp5799
Rp5800
(I1
(I1
tp5801
g6
I00
S'+\xcdD\xffg\xa6D?'
p5802
tp5803
bag29
(g30
(I0
tp5804
g32
tp5805
Rp5806
(I1
(I1
tp5807
g6
I00
S'K_\xf2\xe7\x80H7?'
p5808
tp5809
baa(lp5810
g29
(g30
(I0
tp5811
g32
tp5812
Rp5813
(I1
(I1
tp5814
g6
I00
S'\x11\xa4\xcb\x04\x8d\x84U?'
p5815
tp5816
bag29
(g30
(I0
tp5817
g32
tp5818
Rp5819
(I1
(I1
tp5820
g6
I00
S'\xa7\x864-\xef\xc9A?'
p5821
tp5822
bag29
(g30
(I0
tp5823
g32
tp5824
Rp5825
(I1
(I1
tp5826
g6
I00
S'4\x15J\x12\xa8\xec:?'
p5827
tp5828
baa(lp5829
g29
(g30
(I0
tp5830
g32
tp5831
Rp5832
(I1
(I1
tp5833
g6
I00
S'o\x84s\x97VJU?'
p5834
tp5835
bag29
(g30
(I0
tp5836
g32
tp5837
Rp5838
(I1
(I1
tp5839
g6
I00
S'\x0b\x19\xf0;\xb0\x97H?'
p5840
tp5841
bag29
(g30
(I0
tp5842
g32
tp5843
Rp5844
(I1
(I1
tp5845
g6
I00
S'\xbe\x140\xe2}78?'
p5846
tp5847
baa(lp5848
g29
(g30
(I0
tp5849
g32
tp5850
Rp5851
(I1
(I1
tp5852
g6
I00
S'\xddV\xdc-\xf5\xc0T?'
p5853
tp5854
bag29
(g30
(I0
tp5855
g32
tp5856
Rp5857
(I1
(I1
tp5858
g6
I00
S'!%\xf8\x19\xd35L?'
p5859
tp5860
bag29
(g30
(I0
tp5861
g32
tp5862
Rp5863
(I1
(I1
tp5864
g6
I00
S'\xa2j\x04s\xd5\x066?'
p5865
tp5866
baa(lp5867
g29
(g30
(I0
tp5868
g32
tp5869
Rp5870
(I1
(I1
tp5871
g6
I00
S'*\x9fg\xa6,bU?'
p5872
tp5873
bag29
(g30
(I0
tp5874
g32
tp5875
Rp5876
(I1
(I1
tp5877
g6
I00
S'o0==\x87\x8dP?'
p5878
tp5879
bag29
(g30
(I0
tp5880
g32
tp5881
Rp5882
(I1
(I1
tp5883
g6
I00
S'!\xfec5\xbe54?'
p5884
tp5885
baa(lp5886
g29
(g30
(I0
tp5887
g32
tp5888
Rp5889
(I1
(I1
tp5890
g6
I00
S' \x0b3\x92!lW?'
p5891
tp5892
bag29
(g30
(I0
tp5893
g32
tp5894
Rp5895
(I1
(I1
tp5896
g6
I00
S'R:+c\x81|S?'
p5897
tp5898
bag29
(g30
(I0
tp5899
g32
tp5900
Rp5901
(I1
(I1
tp5902
g6
I00
S'M?@\x0c\xe4\xab2?'
p5903
tp5904
baa(lp5905
g29
(g30
(I0
tp5906
g32
tp5907
Rp5908
(I1
(I1
tp5909
g6
I00
S'\x02\xbdi\t\xbd&V?'
p5910
tp5911
bag29
(g30
(I0
tp5912
g32
tp5913
Rp5914
(I1
(I1
tp5915
g6
I00
S'\xfb\xc7\xa0\x15\x95:S?'
p5916
tp5917
bag29
(g30
(I0
tp5918
g32
tp5919
Rp5920
(I1
(I1
tp5921
g6
I00
S'\x9b\x01e\x19\xd7[1?'
p5922
tp5923
baa(lp5924
g29
(g30
(I0
tp5925
g32
tp5926
Rp5927
(I1
(I1
tp5928
g6
I00
S'\xcc\x82u;\xe1\xe8S?'
p5929
tp5930
bag29
(g30
(I0
tp5931
g32
tp5932
Rp5933
(I1
(I1
tp5934
g6
I00
S'u\xee\xbb\xc8DdQ?'
p5935
tp5936
bag29
(g30
(I0
tp5937
g32
tp5938
Rp5939
(I1
(I1
tp5940
g6
I00
S'w\x80q\xca\x9c80?'
p5941
tp5942
baa(lp5943
g29
(g30
(I0
tp5944
g32
tp5945
Rp5946
(I1
(I1
tp5947
g6
I00
S'\\\x02\xfc\x83\x19\xbaR?'
p5948
tp5949
bag29
(g30
(I0
tp5950
g32
tp5951
Rp5952
(I1
(I1
tp5953
g6
I00
S'\x106\x1cI\xa5#P?'
p5954
tp5955
bag29
(g30
(I0
tp5956
g32
tp5957
Rp5958
(I1
(I1
tp5959
g6
I00
S'v1R\xaa\x0c\xd0-?'
p5960
tp5961
baa(lp5962
g29
(g30
(I0
tp5963
g32
tp5964
Rp5965
(I1
(I1
tp5966
g6
I00
S"'\x1f\xe1>\x88\x86S?"
p5967
tp5968
bag29
(g30
(I0
tp5969
g32
tp5970
Rp5971
(I1
(I1
tp5972
g6
I00
S'\x9bG3\x16 \xb9Q?'
p5973
tp5974
bag29
(g30
(I0
tp5975
g32
tp5976
Rp5977
(I1
(I1
tp5978
g6
I00
S'{\xb1\x8e\xee\xfa\xb4,?'
p5979
tp5980
baa(lp5981
g29
(g30
(I0
tp5982
g32
tp5983
Rp5984
(I1
(I1
tp5985
g6
I00
S'b\xb8"\xdc\'AR?'
p5986
tp5987
bag29
(g30
(I0
tp5988
g32
tp5989
Rp5990
(I1
(I1
tp5991
g6
I00
S'\xf4\xed\x9f\xe2((P?'
p5992
tp5993
bag29
(g30
(I0
tp5994
g32
tp5995
Rp5996
(I1
(I1
tp5997
g6
I00
S'\x05?\xc3\xd58\xa0*?'
p5998
tp5999
baa(lp6000
g29
(g30
(I0
tp6001
g32
tp6002
Rp6003
(I1
(I1
tp6004
g6
I00
S'\x1d\x15\x10\xe3\x88\xc6Q?'
p6005
tp6006
bag29
(g30
(I0
tp6007
g32
tp6008
Rp6009
(I1
(I1
tp6010
g6
I00
S'V\x10H4Q2P?'
p6011
tp6012
bag29
(g30
(I0
tp6013
g32
tp6014
Rp6015
(I1
(I1
tp6016
g6
I00
S'\x98\x87\xb9\x90\xd4\xbf)?'
p6017
tp6018
baa(lp6019
g29
(g30
(I0
tp6020
g32
tp6021
Rp6022
(I1
(I1
tp6023
g6
I00
S'9\xa4\x82,\x8c_Q?'
p6024
tp6025
bag29
(g30
(I0
tp6026
g32
tp6027
Rp6028
(I1
(I1
tp6029
g6
I00
S'\x01\x85\x12\xc2C\x9fO?'
p6030
tp6031
bag29
(g30
(I0
tp6032
g32
tp6033
Rp6034
(I1
(I1
tp6035
g6
I00
S'\x12(\xb3\x0f[}(?'
p6036
tp6037
baa(lp6038
g29
(g30
(I0
tp6039
g32
tp6040
Rp6041
(I1
(I1
tp6042
g6
I00
S'W\x02\x8a\x056*Q?'
p6043
tp6044
bag29
(g30
(I0
tp6045
g32
tp6046
Rp6047
(I1
(I1
tp6048
g6
I00
S'w\x1bo\x8f\xd8tO?'
p6049
tp6050
bag29
(g30
(I0
tp6051
g32
tp6052
Rp6053
(I1
(I1
tp6054
g6
I00
S"\x97\xe7\xa3c\xedZ'?"
p6055
tp6056
baa(lp6057
g29
(g30
(I0
tp6058
g32
tp6059
Rp6060
(I1
(I1
tp6061
g6
I00
S'\x15\x14\x060\xfd\xbaQ?'
p6062
tp6063
bag29
(g30
(I0
tp6064
g32
tp6065
Rp6066
(I1
(I1
tp6067
g6
I00
S'\xb7j\xae\xbf\xf5qP?'
p6068
tp6069
bag29
(g30
(I0
tp6070
g32
tp6071
Rp6072
(I1
(I1
tp6073
g6
I00
S'\xfd\x87\xd1V\xa4P&?'
p6074
tp6075
baa(lp6076
g29
(g30
(I0
tp6077
g32
tp6078
Rp6079
(I1
(I1
tp6080
g6
I00
S'V~\x93\x94\x7fjT?'
p6081
tp6082
bag29
(g30
(I0
tp6083
g32
tp6084
Rp6085
(I1
(I1
tp6086
g6
I00
S'\x14\x7f\x9b\xed\x15"S?'
p6087
tp6088
bag29
(g30
(I0
tp6089
g32
tp6090
Rp6091
(I1
(I1
tp6092
g6
I00
S'\x83\xfap3k\\%?'
p6093
tp6094
baa(lp6095
g29
(g30
(I0
tp6096
g32
tp6097
Rp6098
(I1
(I1
tp6099
g6
I00
S'\xac\xacT10\xcbS?'
p6100
tp6101
bag29
(g30
(I0
tp6102
g32
tp6103
Rp6104
(I1
(I1
tp6105
g6
I00
S'\x1c\xecL\xe1\xf2\xb0R?'
p6106
tp6107
bag29
(g30
(I0
tp6108
g32
tp6109
Rp6110
(I1
(I1
tp6111
g6
I00
S'\x97\xcb\xa3av|$?'
p6112
tp6113
baa(lp6114
g29
(g30
(I0
tp6115
g32
tp6116
Rp6117
(I1
(I1
tp6118
g6
I00
S'Q\x92\x96\x19\xa5PS?'
p6119
tp6120
bag29
(g30
(I0
tp6121
g32
tp6122
Rp6123
(I1
(I1
tp6124
g6
I00
S'@\xe80\xde\x04\rR?'
p6125
tp6126
bag29
(g30
(I0
tp6127
g32
tp6128
Rp6129
(I1
(I1
tp6130
g6
I00
S'-Y\x83dJg#?'
p6131
tp6132
baa(lp6133
g29
(g30
(I0
tp6134
g32
tp6135
Rp6136
(I1
(I1
tp6137
g6
I00
S'Mj9\x1a\xb0\xb9Q?'
p6138
tp6139
bag29
(g30
(I0
tp6140
g32
tp6141
Rp6142
(I1
(I1
tp6143
g6
I00
S'Y\x86x\xb5\xa7\x82P?'
p6144
tp6145
bag29
(g30
(I0
tp6146
g32
tp6147
Rp6148
(I1
(I1
tp6149
g6
I00
S'\x0f\xab<\xcdK\xad"?'
p6150
tp6151
baa(lp6152
g29
(g30
(I0
tp6153
g32
tp6154
Rp6155
(I1
(I1
tp6156
g6
I00
S"\x95\xcf'\x86^\x17Y?"
p6157
tp6158
bag29
(g30
(I0
tp6159
g32
tp6160
Rp6161
(I1
(I1
tp6162
g6
I00
S'\xcf\xccA+\xd5IX?'
p6163
tp6164
bag29
(g30
(I0
tp6165
g32
tp6166
Rp6167
(I1
(I1
tp6168
g6
I00
S'e\xc0\x1a\xe0U<"?'
p6169
tp6170
baa(lp6171
g29
(g30
(I0
tp6172
g32
tp6173
Rp6174
(I1
(I1
tp6175
g6
I00
S'\xdf\xd3\xf89\x98[Q?'
p6176
tp6177
bag29
(g30
(I0
tp6178
g32
tp6179
Rp6180
(I1
(I1
tp6181
g6
I00
S'\x82\x12\xf5\xad\x99\x7fP?'
p6182
tp6183
bag29
(g30
(I0
tp6184
g32
tp6185
Rp6186
(I1
(I1
tp6187
g6
I00
S'\xeb1\xb0\x92T\x96!?'
p6188
tp6189
baa(lp6190
g29
(g30
(I0
tp6191
g32
tp6192
Rp6193
(I1
(I1
tp6194
g6
I00
S'E\xc6\xefe\x84\xa5S?'
p6195
tp6196
bag29
(g30
(I0
tp6197
g32
tp6198
Rp6199
(I1
(I1
tp6200
g6
I00
S'\x86&"\xf1\xf2CR?'
p6201
tp6202
bag29
(g30
(I0
tp6203
g32
tp6204
Rp6205
(I1
(I1
tp6206
g6
I00
S'^Y\x82\x88\x95\x1a!?'
p6207
tp6208
baa(lp6209
g29
(g30
(I0
tp6210
g32
tp6211
Rp6212
(I1
(I1
tp6213
g6
I00
S'\xd4\xef\x80\xcew\xa8[?'
p6214
tp6215
bag29
(g30
(I0
tp6216
g32
tp6217
Rp6218
(I1
(I1
tp6219
g6
I00
S'\x19\xf4\xfd\xc0\xbb\xd8Y?'
p6220
tp6221
bag29
(g30
(I0
tp6222
g32
tp6223
Rp6224
(I1
(I1
tp6225
g6
I00
S'\xd1\x9e\xc9e\xee\xa6 ?'
p6226
tp6227
baa(lp6228
g29
(g30
(I0
tp6229
g32
tp6230
Rp6231
(I1
(I1
tp6232
g6
I00
S'7\xe9\xcc\xdb\\\x01V?'
p6233
tp6234
bag29
(g30
(I0
tp6235
g32
tp6236
Rp6237
(I1
(I1
tp6238
g6
I00
S'\xca \x882\xfa\xdbS?'
p6239
tp6240
bag29
(g30
(I0
tp6241
g32
tp6242
Rp6243
(I1
(I1
tp6244
g6
I00
S'\xf6!m\x0b:: ?'
p6245
tp6246
baa(lp6247
g29
(g30
(I0
tp6248
g32
tp6249
Rp6250
(I1
(I1
tp6251
g6
I00
S'\xeeA\xcc\xb9\x98\xe0W?'
p6252
tp6253
bag29
(g30
(I0
tp6254
g32
tp6255
Rp6256
(I1
(I1
tp6257
g6
I00
S'\xd0\x91\x02\x80~\x8eU?'
p6258
tp6259
bag29
(g30
(I0
tp6260
g32
tp6261
Rp6262
(I1
(I1
tp6263
g6
I00
S'\x1c\x8b\x0b2\x16\xa7\x1f?'
p6264
tp6265
baa(lp6266
g29
(g30
(I0
tp6267
g32
tp6268
Rp6269
(I1
(I1
tp6270
g6
I00
S',<\xa5v\x1dU^?'
p6271
tp6272
bag29
(g30
(I0
tp6273
g32
tp6274
Rp6275
(I1
(I1
tp6276
g6
I00
S'\xa0\xe1\x98\xd0\xec\xe1[?'
p6277
tp6278
bag29
(g30
(I0
tp6279
g32
tp6280
Rp6281
(I1
(I1
tp6282
g6
I00
S'`\xbc\xa4S\xf6\xe4\x1e?'
p6283
tp6284
baa(lp6285
g29
(g30
(I0
tp6286
g32
tp6287
Rp6288
(I1
(I1
tp6289
g6
I00
S'/Fr\xee,\x83W?'
p6290
tp6291
bag29
(g30
(I0
tp6292
g32
tp6293
Rp6294
(I1
(I1
tp6295
g6
I00
S';\xedt{\xf9\xe1T?'
p6296
tp6297
bag29
(g30
(I0
tp6298
g32
tp6299
Rp6300
(I1
(I1
tp6301
g6
I00
S'[\xb5Q\x9d6,\x1e?'
p6302
tp6303
baa(lp6304
g29
(g30
(I0
tp6305
g32
tp6306
Rp6307
(I1
(I1
tp6308
g6
I00
S'\xb2\x9e2\x13W\x8fW?'
p6309
tp6310
bag29
(g30
(I0
tp6311
g32
tp6312
Rp6313
(I1
(I1
tp6314
g6
I00
S'\xda\xc6\xc8%\xe0\xe4T?'
p6315
tp6316
bag29
(g30
(I0
tp6317
g32
tp6318
Rp6319
(I1
(I1
tp6320
g6
I00
S'\xac\x16\xf65\xa8|\x1d?'
p6321
tp6322
baa(lp6323
g29
(g30
(I0
tp6324
g32
tp6325
Rp6326
(I1
(I1
tp6327
g6
I00
S'U(\xeb"P\x90W?'
p6328
tp6329
bag29
(g30
(I0
tp6330
g32
tp6331
Rp6332
(I1
(I1
tp6333
g6
I00
S'\xfa\x7f\x9cv\r\xe2T?'
p6334
tp6335
bag29
(g30
(I0
tp6336
g32
tp6337
Rp6338
(I1
(I1
tp6339
g6
I00
S'\xaa\xf6\x0c\x84V\xd5\x1c?'
p6340
tp6341
baa(lp6342
g29
(g30
(I0
tp6343
g32
tp6344
Rp6345
(I1
(I1
tp6346
g6
I00
S'r\xb5Qn\x00\xfbY?'
p6347
tp6348
bag29
(g30
(I0
tp6349
g32
tp6350
Rp6351
(I1
(I1
tp6352
g6
I00
S'\xcd\xecG\xb6\x95?W?'
p6353
tp6354
bag29
(g30
(I0
tp6355
g32
tp6356
Rp6357
(I1
(I1
tp6358
g6
I00
S'\x93b2\xdf\x845\x1c?'
p6359
tp6360
baa(lp6361
g29
(g30
(I0
tp6362
g32
tp6363
Rp6364
(I1
(I1
tp6365
g6
I00
S'j>\x87\xc3\x01%[?'
p6366
tp6367
bag29
(g30
(I0
tp6368
g32
tp6369
Rp6370
(I1
(I1
tp6371
g6
I00
S'\xd4\xf7\xbc\xda\x88\x92R?'
p6372
tp6373
bag29
(g30
(I0
tp6374
g32
tp6375
Rp6376
(I1
(I1
tp6377
g6
I00
S'|\xd8\xfe\xfc\xde\xe9*?'
p6378
tp6379
baa(lp6380
g29
(g30
(I0
tp6381
g32
tp6382
Rp6383
(I1
(I1
tp6384
g6
I00
S'w\x1d\xb6\x0b%~]?'
p6385
tp6386
bag29
(g30
(I0
tp6387
g32
tp6388
Rp6389
(I1
(I1
tp6390
g6
I00
S'\xc8<\xeb\xce\xf4\x18P?'
p6391
tp6392
bag29
(g30
(I0
tp6393
g32
tp6394
Rp6395
(I1
(I1
tp6396
g6
I00
S"'\xffSP\xef{3?"
p6397
tp6398
baa(lp6399
g29
(g30
(I0
tp6400
g32
tp6401
Rp6402
(I1
(I1
tp6403
g6
I00
S',?h\xcf\xe6S^?'
p6404
tp6405
bag29
(g30
(I0
tp6406
g32
tp6407
Rp6408
(I1
(I1
tp6409
g6
I00
S'\x0c\x05\x99&4\xb5M?'
p6410
tp6411
bag29
(g30
(I0
tp6412
g32
tp6413
Rp6414
(I1
(I1
tp6415
g6
I00
S'\x98\xd2eE\xbb\x138?'
p6416
tp6417
baa(lp6418
g29
(g30
(I0
tp6419
g32
tp6420
Rp6421
(I1
(I1
tp6422
g6
I00
S'Y\xce]|\x0cF^?'
p6423
tp6424
bag29
(g30
(I0
tp6425
g32
tp6426
Rp6427
(I1
(I1
tp6428
g6
I00
S'\x05H\x8e\\\xdf\x11O?'
p6429
tp6430
bag29
(g30
(I0
tp6431
g32
tp6432
Rp6433
(I1
(I1
tp6434
g6
I00
S'\t\xed[Q\xfb\x11<?'
p6435
tp6436
baa(lp6437
g29
(g30
(I0
tp6438
g32
tp6439
Rp6440
(I1
(I1
tp6441
g6
I00
S'W\xc2\xfd\xa1P\x02^?'
p6442
tp6443
bag29
(g30
(I0
tp6444
g32
tp6445
Rp6446
(I1
(I1
tp6447
g6
I00
S'\xb0\xdbvX\xbf\xb8V?'
p6448
tp6449
bag29
(g30
(I0
tp6450
g32
tp6451
Rp6452
(I1
(I1
tp6453
g6
I00
S'\xa3\xd2\xa6\xf0P\xfaB?'
p6454
tp6455
baa(lp6456
g29
(g30
(I0
tp6457
g32
tp6458
Rp6459
(I1
(I1
tp6460
g6
I00
S'\xfc/\x02\xab\x97$]?'
p6461
tp6462
bag29
(g30
(I0
tp6463
g32
tp6464
Rp6465
(I1
(I1
tp6466
g6
I00
S',\xce\xf3\xef\xd8\xc0T?'
p6467
tp6468
bag29
(g30
(I0
tp6469
g32
tp6470
Rp6471
(I1
(I1
tp6472
g6
I00
S'\x8d\xd5\x9bF2\xf5A?'
p6473
tp6474
baa(lp6475
g29
(g30
(I0
tp6476
g32
tp6477
Rp6478
(I1
(I1
tp6479
g6
I00
S'0?h;&\x95Z?'
p6480
tp6481
bag29
(g30
(I0
tp6482
g32
tp6483
Rp6484
(I1
(I1
tp6485
g6
I00
S'6\x8dQ@@\x97V?'
p6486
tp6487
bag29
(g30
(I0
tp6488
g32
tp6489
Rp6490
(I1
(I1
tp6491
g6
I00
S'\xe52[\x80\x06.C?'
p6492
tp6493
baa(lp6494
g29
(g30
(I0
tp6495
g32
tp6496
Rp6497
(I1
(I1
tp6498
g6
I00
S'\xc3\\7u\x87FZ?'
p6499
tp6500
bag29
(g30
(I0
tp6501
g32
tp6502
Rp6503
(I1
(I1
tp6504
g6
I00
S'1\xcc\x8b\xd5\xa9\xa7U?'
p6505
tp6506
bag29
(g30
(I0
tp6507
g32
tp6508
Rp6509
(I1
(I1
tp6510
g6
I00
S'S\xc5>\xa7\xab\xd5C?'
p6511
tp6512
baa(lp6513
g29
(g30
(I0
tp6514
g32
tp6515
Rp6516
(I1
(I1
tp6517
g6
I00
S'\xd0L\xe5#y5[?'
p6518
tp6519
bag29
(g30
(I0
tp6520
g32
tp6521
Rp6522
(I1
(I1
tp6523
g6
I00
S'\x935n4\xb9\xf6S?'
p6524
tp6525
bag29
(g30
(I0
tp6526
g32
tp6527
Rp6528
(I1
(I1
tp6529
g6
I00
S'\xc6!Z\xe0jZD?'
p6530
tp6531
baa(lp6532
g29
(g30
(I0
tp6533
g32
tp6534
Rp6535
(I1
(I1
tp6536
g6
I00
S"\xdaW\xc0'\xdc!^?"
p6537
tp6538
bag29
(g30
(I0
tp6539
g32
tp6540
Rp6541
(I1
(I1
tp6542
g6
I00
S'\xd3\xeb\xcc:\x8e\x0fQ?'
p6543
tp6544
bag29
(g30
(I0
tp6545
g32
tp6546
Rp6547
(I1
(I1
tp6548
g6
I00
S'\xf4\xd9\xcc\xb2)\x1aE?'
p6549
tp6550
baa(lp6551
g29
(g30
(I0
tp6552
g32
tp6553
Rp6554
(I1
(I1
tp6555
g6
I00
S'=,\xc3z\x9cv`?'
p6556
tp6557
bag29
(g30
(I0
tp6558
g32
tp6559
Rp6560
(I1
(I1
tp6561
g6
I00
S'\x01\x94\xa8&g\rO?'
p6562
tp6563
bag29
(g30
(I0
tp6564
g32
tp6565
Rp6566
(I1
(I1
tp6567
g6
I00
S'*\xf1U\xda\xbc\xe3E?'
p6568
tp6569
baa(lp6570
g29
(g30
(I0
tp6571
g32
tp6572
Rp6573
(I1
(I1
tp6574
g6
I00
S'\xcc\xb3>\x06\xde(`?'
p6575
tp6576
bag29
(g30
(I0
tp6577
g32
tp6578
Rp6579
(I1
(I1
tp6580
g6
I00
S'\x18&\xbfme~Q?'
p6581
tp6582
bag29
(g30
(I0
tp6583
g32
tp6584
Rp6585
(I1
(I1
tp6586
g6
I00
S'\xb6{d\xb5\x92\xb2F?'
p6587
tp6588
baa(lp6589
g29
(g30
(I0
tp6590
g32
tp6591
Rp6592
(I1
(I1
tp6593
g6
I00
S'\x8ab\x9e\xb7X.^?'
p6594
tp6595
bag29
(g30
(I0
tp6596
g32
tp6597
Rp6598
(I1
(I1
tp6599
g6
I00
S'#\x91\xe9xY\xa5S?'
p6600
tp6601
bag29
(g30
(I0
tp6602
g32
tp6603
Rp6604
(I1
(I1
tp6605
g6
I00
S'\x87*sX\xd0\xbeF?'
p6606
tp6607
baa(lp6608
g29
(g30
(I0
tp6609
g32
tp6610
Rp6611
(I1
(I1
tp6612
g6
I00
S'\xa9\x832/\xde\xb9\\?'
p6613
tp6614
bag29
(g30
(I0
tp6615
g32
tp6616
Rp6617
(I1
(I1
tp6618
g6
I00
S'\xc8F\xca-\xbc\xacU?'
p6619
tp6620
bag29
(g30
(I0
tp6621
g32
tp6622
Rp6623
(I1
(I1
tp6624
g6
I00
S'\xf7\xb5\xa3h\x94\xf7F?'
p6625
tp6626
baa(lp6627
g29
(g30
(I0
tp6628
g32
tp6629
Rp6630
(I1
(I1
tp6631
g6
I00
S'\x00r\x82\xe5\xbe!Z?'
p6632
tp6633
bag29
(g30
(I0
tp6634
g32
tp6635
Rp6636
(I1
(I1
tp6637
g6
I00
S'\xb5ln\x9a\xd5\xf1W?'
p6638
tp6639
bag29
(g30
(I0
tp6640
g32
tp6641
Rp6642
(I1
(I1
tp6643
g6
I00
S'\xd8\x0b\xfa\x8f\xc0!G?'
p6644
tp6645
baa(lp6646
g29
(g30
(I0
tp6647
g32
tp6648
Rp6649
(I1
(I1
tp6650
g6
I00
S'\xf7j\xe2vX\xeeW?'
p6651
tp6652
bag29
(g30
(I0
tp6653
g32
tp6654
Rp6655
(I1
(I1
tp6656
g6
I00
S'\x9c\x01\xec\xdc\xac7Y?'
p6657
tp6658
bag29
(g30
(I0
tp6659
g32
tp6660
Rp6661
(I1
(I1
tp6662
g6
I00
S'7\xf3\x8e\xf5\x99?G?'
p6663
tp6664
baa(lp6665
g29
(g30
(I0
tp6666
g32
tp6667
Rp6668
(I1
(I1
tp6669
g6
I00
S'\xa4\xb1\x05\n\xc8\xa5V?'
p6670
tp6671
bag29
(g30
(I0
tp6672
g32
tp6673
Rp6674
(I1
(I1
tp6675
g6
I00
S'\n\x83M\xbc[\xd7X?'
p6676
tp6677
bag29
(g30
(I0
tp6678
g32
tp6679
Rp6680
(I1
(I1
tp6681
g6
I00
S'\x9a\x14?\xc2\xfd"G?'
p6682
tp6683
baa(lp6684
g29
(g30
(I0
tp6685
g32
tp6686
Rp6687
(I1
(I1
tp6688
g6
I00
S'f\x8bl\x04\x8e\xe2U?'
p6689
tp6690
bag29
(g30
(I0
tp6691
g32
tp6692
Rp6693
(I1
(I1
tp6694
g6
I00
S'\xd1_i\xaf\xbd\x82X?'
p6695
tp6696
bag29
(g30
(I0
tp6697
g32
tp6698
Rp6699
(I1
(I1
tp6700
g6
I00
S'|Ty\xfa\xa7:G?'
p6701
tp6702
baa(lp6703
g29
(g30
(I0
tp6704
g32
tp6705
Rp6706
(I1
(I1
tp6707
g6
I00
S'\xeeSm\xae\x85\x1cV?'
p6708
tp6709
bag29
(g30
(I0
tp6710
g32
tp6711
Rp6712
(I1
(I1
tp6713
g6
I00
S'\xc0:\x98\xec9+W?'
p6714
tp6715
bag29
(g30
(I0
tp6716
g32
tp6717
Rp6718
(I1
(I1
tp6719
g6
I00
S'\xd5\x02\x83\xe7sHG?'
p6720
tp6721
baa(lp6722
g29
(g30
(I0
tp6723
g32
tp6724
Rp6725
(I1
(I1
tp6726
g6
I00
S'H\xe1\x18\x7f\xca\xedV?'
p6727
tp6728
bag29
(g30
(I0
tp6729
g32
tp6730
Rp6731
(I1
(I1
tp6732
g6
I00
S'u\xf04\x0bkHU?'
p6733
tp6734
bag29
(g30
(I0
tp6735
g32
tp6736
Rp6737
(I1
(I1
tp6738
g6
I00
S'\\~\xc7\xe7t\x1eG?'
p6739
tp6740
baa(lp6741
g29
(g30
(I0
tp6742
g32
tp6743
Rp6744
(I1
(I1
tp6745
g6
I00
S'\xca\xb3\xceE\x19\x9cY?'
p6746
tp6747
bag29
(g30
(I0
tp6748
g32
tp6749
Rp6750
(I1
(I1
tp6751
g6
I00
S'\xe8\x9b\x99E\xc6kV?'
p6752
tp6753
bag29
(g30
(I0
tp6754
g32
tp6755
Rp6756
(I1
(I1
tp6757
g6
I00
S'\x946{\xbc\x9cUD?'
p6758
tp6759
baa(lp6760
g29
(g30
(I0
tp6761
g32
tp6762
Rp6763
(I1
(I1
tp6764
g6
I00
S'\x07\xe4\x98O\xaf7[?'
p6765
tp6766
bag29
(g30
(I0
tp6767
g32
tp6768
Rp6769
(I1
(I1
tp6770
g6
I00
S'1\x93`\x8c\xb5\xd4V?'
p6771
tp6772
bag29
(g30
(I0
tp6773
g32
tp6774
Rp6775
(I1
(I1
tp6776
g6
I00
S'\x1480\x8e\xa1*B?'
p6777
tp6778
baa(lp6779
g29
(g30
(I0
tp6780
g32
tp6781
Rp6782
(I1
(I1
tp6783
g6
I00
S'\x16_\xcc\x08\xe4\x1a^?'
p6784
tp6785
bag29
(g30
(I0
tp6786
g32
tp6787
Rp6788
(I1
(I1
tp6789
g6
I00
S'\xe9j\xdf\x1a\xfa\xabV?'
p6790
tp6791
bag29
(g30
(I0
tp6792
g32
tp6793
Rp6794
(I1
(I1
tp6795
g6
I00
S'\xb6b\xf9\x1c[q??'
p6796
tp6797
baa(lp6798
g29
(g30
(I0
tp6799
g32
tp6800
Rp6801
(I1
(I1
tp6802
g6
I00
S'y\xe1\xb9\xb6\x95\xbc]?'
p6803
tp6804
bag29
(g30
(I0
tp6805
g32
tp6806
Rp6807
(I1
(I1
tp6808
g6
I00
S'T\xbbnX\xf6\xc9W?'
p6809
tp6810
bag29
(g30
(I0
tp6811
g32
tp6812
Rp6813
(I1
(I1
tp6814
g6
I00
S'\xce\xf3\xb1\x95\n\x03>?'
p6815
tp6816
baa(lp6817
g29
(g30
(I0
tp6818
g32
tp6819
Rp6820
(I1
(I1
tp6821
g6
I00
S'd\xa9\xd4\xf2\x97\xce_?'
p6822
tp6823
bag29
(g30
(I0
tp6824
g32
tp6825
Rp6826
(I1
(I1
tp6827
g6
I00
S'0\x96\xa8\x1d\xb7UY?'
p6828
tp6829
bag29
(g30
(I0
tp6830
g32
tp6831
Rp6832
(I1
(I1
tp6833
g6
I00
S'\xb1\xc9\x02\xac\xab\xa1;?'
p6834
tp6835
baa(lp6836
g29
(g30
(I0
tp6837
g32
tp6838
Rp6839
(I1
(I1
tp6840
g6
I00
S'\xf3:<\xe3\xebv_?'
p6841
tp6842
bag29
(g30
(I0
tp6843
g32
tp6844
Rp6845
(I1
(I1
tp6846
g6
I00
S'\xa1\xeb\x93\xc4\x9b\xebX?'
p6847
tp6848
bag29
(g30
(I0
tp6849
g32
tp6850
Rp6851
(I1
(I1
tp6852
g6
I00
S']\xea\xe5K\xd9\x9c9?'
p6853
tp6854
baa(lp6855
g29
(g30
(I0
tp6856
g32
tp6857
Rp6858
(I1
(I1
tp6859
g6
I00
S':\xf4\xf0\x17|E`?'
p6860
tp6861
bag29
(g30
(I0
tp6862
g32
tp6863
Rp6864
(I1
(I1
tp6865
g6
I00
S'\xe8\x13\xd8\xfa\x90\xd0Y?'
p6866
tp6867
bag29
(g30
(I0
tp6868
g32
tp6869
Rp6870
(I1
(I1
tp6871
g6
I00
S"'\x12\xe8ui\xe07?"
p6872
tp6873
baa(lp6874
g29
(g30
(I0
tp6875
g32
tp6876
Rp6877
(I1
(I1
tp6878
g6
I00
S'ra\xf4\xd9\xdc!^?'
p6879
tp6880
bag29
(g30
(I0
tp6881
g32
tp6882
Rp6883
(I1
(I1
tp6884
g6
I00
S'k\xa7j\x9a\x8c\xb5W?'
p6885
tp6886
bag29
(g30
(I0
tp6887
g32
tp6888
Rp6889
(I1
(I1
tp6890
g6
I00
S'\xcdw\x9f\x93\xe4^6?'
p6891
tp6892
baa(lp6893
g29
(g30
(I0
tp6894
g32
tp6895
Rp6896
(I1
(I1
tp6897
g6
I00
S'\xd3\xc7[\r\xa7v\\?'
p6898
tp6899
bag29
(g30
(I0
tp6900
g32
tp6901
Rp6902
(I1
(I1
tp6903
g6
I00
S'y|\x9a\xd4n\xf2U?'
p6904
tp6905
bag29
(g30
(I0
tp6906
g32
tp6907
Rp6908
(I1
(I1
tp6909
g6
I00
S'\x8c\xb4\x820o\x0b5?'
p6910
tp6911
baa(lp6912
g29
(g30
(I0
tp6913
g32
tp6914
Rp6915
(I1
(I1
tp6916
g6
I00
S'\xcf\x8e\x19n>u[?'
p6917
tp6918
bag29
(g30
(I0
tp6919
g32
tp6920
Rp6921
(I1
(I1
tp6922
g6
I00
S'\xef\xa4h\x83\xa7\xfdT?'
p6923
tp6924
bag29
(g30
(I0
tp6925
g32
tp6926
Rp6927
(I1
(I1
tp6928
g6
I00
S'9\xe66\x97\x00\xdf3?'
p6929
tp6930
baa(lp6931
g29
(g30
(I0
tp6932
g32
tp6933
Rp6934
(I1
(I1
tp6935
g6
I00
S'\xff\xf4\xd0~\xdd\xc6Z?'
p6936
tp6937
bag29
(g30
(I0
tp6938
g32
tp6939
Rp6940
(I1
(I1
tp6941
g6
I00
S'y}eS\xd6oT?'
p6942
tp6943
bag29
(g30
(I0
tp6944
g32
tp6945
Rp6946
(I1
(I1
tp6947
g6
I00
S'\xe9k\xecg\x1c\xd32?'
p6948
tp6949
baa(lp6950
g29
(g30
(I0
tp6951
g32
tp6952
Rp6953
(I1
(I1
tp6954
g6
I00
S'\xd1\x15\xda\x80e\x84Z?'
p6955
tp6956
bag29
(g30
(I0
tp6957
g32
tp6958
Rp6959
(I1
(I1
tp6960
g6
I00
S'-K\x03mJ\xb9T?'
p6961
tp6962
bag29
(g30
(I0
tp6963
g32
tp6964
Rp6965
(I1
(I1
tp6966
g6
I00
S'\t\xc5\x87:a\xe31?'
p6967
tp6968
baa(lp6969
g29
(g30
(I0
tp6970
g32
tp6971
Rp6972
(I1
(I1
tp6973
g6
I00
S'!h^\xb2/\x17Z?'
p6974
tp6975
bag29
(g30
(I0
tp6976
g32
tp6977
Rp6978
(I1
(I1
tp6979
g6
I00
S'\x04\xf8C\x87]\x89T?'
p6980
tp6981
bag29
(g30
(I0
tp6982
g32
tp6983
Rp6984
(I1
(I1
tp6985
g6
I00
S'\xef\xcdU\xc8:\n1?'
p6986
tp6987
baa(lp6988
g29
(g30
(I0
tp6989
g32
tp6990
Rp6991
(I1
(I1
tp6992
g6
I00
S'\x83\xda5\x153e\\?'
p6993
tp6994
bag29
(g30
(I0
tp6995
g32
tp6996
Rp6997
(I1
(I1
tp6998
g6
I00
S'1\xbf\x96\x0e\x8b\xedV?'
p6999
tp7000
bag29
(g30
(I0
tp7001
g32
tp7002
Rp7003
(I1
(I1
tp7004
g6
I00
S'\xb9N\x91l6E0?'
p7005
tp7006
baa(lp7007
g29
(g30
(I0
tp7008
g32
tp7009
Rp7010
(I1
(I1
tp7011
g6
I00
S'\xe7E\x0b\x9f\x11\xab]?'
p7012
tp7013
bag29
(g30
(I0
tp7014
g32
tp7015
Rp7016
(I1
(I1
tp7017
g6
I00
S'<\x83X\xb2\x17UX?'
p7018
tp7019
bag29
(g30
(I0
tp7020
g32
tp7021
Rp7022
(I1
(I1
tp7023
g6
I00
S'\xc1\xa8\x1c\xfd@#/?'
p7024
tp7025
baa(lp7026
g29
(g30
(I0
tp7027
g32
tp7028
Rp7029
(I1
(I1
tp7030
g6
I00
S"'Z\x8c\xd7QE^?"
p7031
tp7032
bag29
(g30
(I0
tp7033
g32
tp7034
Rp7035
(I1
(I1
tp7036
g6
I00
S'\xbc\xc0@\xa3\x1c\x84R?'
p7037
tp7038
bag29
(g30
(I0
tp7039
g32
tp7040
Rp7041
(I1
(I1
tp7042
g6
I00
S' \xa8g\x87k{5?'
p7043
tp7044
baa(lp7045
g29
(g30
(I0
tp7046
g32
tp7047
Rp7048
(I1
(I1
tp7049
g6
I00
S'\xcbN\xb2\xe9\xf9n^?'
p7050
tp7051
bag29
(g30
(I0
tp7052
g32
tp7053
Rp7054
(I1
(I1
tp7055
g6
I00
S'\xdd\x1a\xc4g\x8b1P?'
p7056
tp7057
bag29
(g30
(I0
tp7058
g32
tp7059
Rp7060
(I1
(I1
tp7061
g6
I00
S'\xcc:\xdc\xaf+]:?'
p7062
tp7063
baa(lp7064
g29
(g30
(I0
tp7065
g32
tp7066
Rp7067
(I1
(I1
tp7068
g6
I00
S'\x1e\x8e!s@-^?'
p7069
tp7070
bag29
(g30
(I0
tp7071
g32
tp7072
Rp7073
(I1
(I1
tp7074
g6
I00
S'\xe9\xf3\xbe\x1bL>O?'
p7075
tp7076
bag29
(g30
(I0
tp7077
g32
tp7078
Rp7079
(I1
(I1
tp7080
g6
I00
S'\x998q\xa4\xaa\x16>?'
p7081
tp7082
baa(lp7083
g29
(g30
(I0
tp7084
g32
tp7085
Rp7086
(I1
(I1
tp7087
g6
I00
S'\x8d\xac?\xa7\x04\x85\\?'
p7088
tp7089
bag29
(g30
(I0
tp7090
g32
tp7091
Rp7092
(I1
(I1
tp7093
g6
I00
S'\xca\xa0S\x99\xb1\xfdP?'
p7094
tp7095
bag29
(g30
(I0
tp7096
g32
tp7097
Rp7098
(I1
(I1
tp7099
g6
I00
S'\xac\xc6Z\x96}\x95@?'
p7100
tp7101
baa(lp7102
g29
(g30
(I0
tp7103
g32
tp7104
Rp7105
(I1
(I1
tp7106
g6
I00
S'5l\xe1\x07aZY?'
p7107
tp7108
bag29
(g30
(I0
tp7109
g32
tp7110
Rp7111
(I1
(I1
tp7112
g6
I00
S'\xce\xa9\x06\xc2\xbf\xc3S?'
p7113
tp7114
bag29
(g30
(I0
tp7115
g32
tp7116
Rp7117
(I1
(I1
tp7118
g6
I00
S'x\xc2\xd1\xd0\x97\xd5A?'
p7119
tp7120
baa(lp7121
g29
(g30
(I0
tp7122
g32
tp7123
Rp7124
(I1
(I1
tp7125
g6
I00
S'\x05\x1c<a}\x08X?'
p7126
tp7127
bag29
(g30
(I0
tp7128
g32
tp7129
Rp7130
(I1
(I1
tp7131
g6
I00
S'=\xf2L\xf8\xea\x85T?'
p7132
tp7133
bag29
(g30
(I0
tp7134
g32
tp7135
Rp7136
(I1
(I1
tp7137
g6
I00
S'0\xaf\xff\xf8\xe7\xd5B?'
p7138
tp7139
baa(lp7140
g29
(g30
(I0
tp7141
g32
tp7142
Rp7143
(I1
(I1
tp7144
g6
I00
S'\xb1}.a\xc1\xb0Y?'
p7145
tp7146
bag29
(g30
(I0
tp7147
g32
tp7148
Rp7149
(I1
(I1
tp7150
g6
I00
S'\xc9G&\r\x93xR?'
p7151
tp7152
bag29
(g30
(I0
tp7153
g32
tp7154
Rp7155
(I1
(I1
tp7156
g6
I00
S'\x847\x8c\xd8N\xa1C?'
p7157
tp7158
baa(lp7159
g29
(g30
(I0
tp7160
g32
tp7161
Rp7162
(I1
(I1
tp7163
g6
I00
S'\x0cON y\x1f\\?'
p7164
tp7165
bag29
(g30
(I0
tp7166
g32
tp7167
Rp7168
(I1
(I1
tp7169
g6
I00
S't\xd2\x00\xc4T\x06P?'
p7170
tp7171
bag29
(g30
(I0
tp7172
g32
tp7173
Rp7174
(I1
(I1
tp7175
g6
I00
S'\x04\x15\xb7\x10\x07BD?'
p7176
tp7177
baa(lp7178
g29
(g30
(I0
tp7179
g32
tp7180
Rp7181
(I1
(I1
tp7182
g6
I00
S'\xf6\xcfH\xf6sL]?'
p7183
tp7184
bag29
(g30
(I0
tp7185
g32
tp7186
Rp7187
(I1
(I1
tp7188
g6
I00
S'ARO\xde!6P?'
p7189
tp7190
bag29
(g30
(I0
tp7191
g32
tp7192
Rp7193
(I1
(I1
tp7194
g6
I00
S'\xb5Rf\x8c\xd9\x14E?'
p7195
tp7196
baa(lp7197
g29
(g30
(I0
tp7198
g32
tp7199
Rp7200
(I1
(I1
tp7201
g6
I00
S'\x16c\xbag\x89\xedZ?'
p7202
tp7203
bag29
(g30
(I0
tp7204
g32
tp7205
Rp7206
(I1
(I1
tp7207
g6
I00
S'\x98<\xd6lW\xfbS?'
p7208
tp7209
bag29
(g30
(I0
tp7210
g32
tp7211
Rp7212
(I1
(I1
tp7213
g6
I00
S' r\x15\xd1\x87\x1cF?'
p7214
tp7215
baa(lp7216
g29
(g30
(I0
tp7217
g32
tp7218
Rp7219
(I1
(I1
tp7220
g6
I00
S'\xa3DG)\x8bEX?'
p7221
tp7222
bag29
(g30
(I0
tp7223
g32
tp7224
Rp7225
(I1
(I1
tp7226
g6
I00
S'\xcf\xd8\xc9\xdd\xdfHW?'
p7227
tp7228
bag29
(g30
(I0
tp7229
g32
tp7230
Rp7231
(I1
(I1
tp7232
g6
I00
S'\x10"y\xf5\xcb\xbbF?'
p7233
tp7234
baa(lp7235
g29
(g30
(I0
tp7236
g32
tp7237
Rp7238
(I1
(I1
tp7239
g6
I00
S'\xc2T\xa1&\xb8aV?'
p7240
tp7241
bag29
(g30
(I0
tp7242
g32
tp7243
Rp7244
(I1
(I1
tp7245
g6
I00
S'\xc8\xbf\xcc){\xabX?'
p7246
tp7247
bag29
(g30
(I0
tp7248
g32
tp7249
Rp7250
(I1
(I1
tp7251
g6
I00
S'm\x84\x11\x97\x92\x01G?'
p7252
tp7253
baa(lp7254
g29
(g30
(I0
tp7255
g32
tp7256
Rp7257
(I1
(I1
tp7258
g6
I00
S'\xb1\xfb\xca\x82[RV?'
p7259
tp7260
bag29
(g30
(I0
tp7261
g32
tp7262
Rp7263
(I1
(I1
tp7264
g6
I00
S'\x01\x8a~\xebL@Y?'
p7265
tp7266
bag29
(g30
(I0
tp7267
g32
tp7268
Rp7269
(I1
(I1
tp7270
g6
I00
S'\x92\x15e\xe4+\xa0G?'
p7271
tp7272
baa(lp7273
g29
(g30
(I0
tp7274
g32
tp7275
Rp7276
(I1
(I1
tp7277
g6
I00
S'\xaf\x1f\x9d5\xab\xe9X?'
p7278
tp7279
bag29
(g30
(I0
tp7280
g32
tp7281
Rp7282
(I1
(I1
tp7283
g6
I00
S'\x8e\x0f\xd3\x11\xc6\xc7V?'
p7284
tp7285
bag29
(g30
(I0
tp7286
g32
tp7287
Rp7288
(I1
(I1
tp7289
g6
I00
S"'\x8f\xd1\xe8\xf7\x1bH?"
p7290
tp7291
baa(lp7292
g29
(g30
(I0
tp7293
g32
tp7294
Rp7295
(I1
(I1
tp7296
g6
I00
S',\xf7-\x98\x04r[?'
p7297
tp7298
bag29
(g30
(I0
tp7299
g32
tp7300
Rp7301
(I1
(I1
tp7302
g6
I00
S'\x1f2\xfc\x8dc\x94S?'
p7303
tp7304
bag29
(g30
(I0
tp7305
g32
tp7306
Rp7307
(I1
(I1
tp7308
g6
I00
S'MA\xea\x83\x12FH?'
p7309
tp7310
baa(lp7311
g29
(g30
(I0
tp7312
g32
tp7313
Rp7314
(I1
(I1
tp7315
g6
I00
S'\x93\x0b\xa1\xe6\x8b\xca\\?'
p7316
tp7317
bag29
(g30
(I0
tp7318
g32
tp7319
Rp7320
(I1
(I1
tp7321
g6
I00
S'9\x0f\xfc\xfd\xd9\xe7P?'
p7322
tp7323
bag29
(g30
(I0
tp7324
g32
tp7325
Rp7326
(I1
(I1
tp7327
g6
I00
S'\r\xee*a\xc9\xcdG?'
p7328
tp7329
baa(lp7330
g29
(g30
(I0
tp7331
g32
tp7332
Rp7333
(I1
(I1
tp7334
g6
I00
S'J9_\xdeIN^?'
p7335
tp7336
bag29
(g30
(I0
tp7337
g32
tp7338
Rp7339
(I1
(I1
tp7340
g6
I00
S'\x929\x17,\xe0iM?'
p7341
tp7342
bag29
(g30
(I0
tp7343
g32
tp7344
Rp7345
(I1
(I1
tp7346
g6
I00
S'\xe9\x97^\x9caxG?'
p7347
tp7348
baa(lp7349
g29
(g30
(I0
tp7350
g32
tp7351
Rp7352
(I1
(I1
tp7353
g6
I00
S'j\xa9l\xe6\xd9\xb2_?'
p7354
tp7355
bag29
(g30
(I0
tp7356
g32
tp7357
Rp7358
(I1
(I1
tp7359
g6
I00
S'\xb5\x87\xeb\x00f#J?'
p7360
tp7361
bag29
(g30
(I0
tp7362
g32
tp7363
Rp7364
(I1
(I1
tp7365
g6
I00
S'\xb2\xe5Y_\xf18G?'
p7366
tp7367
baa(lp7368
g29
(g30
(I0
tp7369
g32
tp7370
Rp7371
(I1
(I1
tp7372
g6
I00
S'\x89\xaa0\xc4\xfc1]?'
p7373
tp7374
bag29
(g30
(I0
tp7375
g32
tp7376
Rp7377
(I1
(I1
tp7378
g6
I00
S'\xc6\xc9\xe4\xb4\x00\xc7O?'
p7379
tp7380
bag29
(g30
(I0
tp7381
g32
tp7382
Rp7383
(I1
(I1
tp7384
g6
I00
S']\xf8]]A\rG?'
p7385
tp7386
baa(lp7387
g29
(g30
(I0
tp7388
g32
tp7389
Rp7390
(I1
(I1
tp7391
g6
I00
S'\x12\xbf$\x9a\xdd\xcbZ?'
p7392
tp7393
bag29
(g30
(I0
tp7394
g32
tp7395
Rp7396
(I1
(I1
tp7397
g6
I00
S'\x8b<\xbdH\xb4\xe2R?'
p7398
tp7399
bag29
(g30
(I0
tp7400
g32
tp7401
Rp7402
(I1
(I1
tp7403
g6
I00
S'\x10\xe6\xbd\x83\xffHG?'
p7404
tp7405
baa(lp7406
g29
(g30
(I0
tp7407
g32
tp7408
Rp7409
(I1
(I1
tp7410
g6
I00
S' \x9a\xc8\xea\xbeS]?'
p7411
tp7412
bag29
(g30
(I0
tp7413
g32
tp7414
Rp7415
(I1
(I1
tp7416
g6
I00
S'\xc3\xf8@v\x83lP?'
p7417
tp7418
bag29
(g30
(I0
tp7419
g32
tp7420
Rp7421
(I1
(I1
tp7422
g6
I00
S'R4\xed\xde|\x80G?'
p7423
tp7424
baa(lp7425
g29
(g30
(I0
tp7426
g32
tp7427
Rp7428
(I1
(I1
tp7429
g6
I00
S'\xa8<\xe3\xebWE^?'
p7430
tp7431
bag29
(g30
(I0
tp7432
g32
tp7433
Rp7434
(I1
(I1
tp7435
g6
I00
S'\xfa\xf4\xae9Y\xe0N?'
p7436
tp7437
bag29
(g30
(I0
tp7438
g32
tp7439
Rp7440
(I1
(I1
tp7441
g6
I00
S'\x19\xb9\x07\x1e\x81GG?'
p7442
tp7443
baa(lp7444
g29
(g30
(I0
tp7445
g32
tp7446
Rp7447
(I1
(I1
tp7448
g6
I00
S"l\x84\x97s'O_?"
p7449
tp7450
bag29
(g30
(I0
tp7451
g32
tp7452
Rp7453
(I1
(I1
tp7454
g6
I00
S'\xae\xdd%\xecy\xd4R?'
p7455
tp7456
bag29
(g30
(I0
tp7457
g32
tp7458
Rp7459
(I1
(I1
tp7460
g6
I00
S't\xdb\xcf\xc8k\x9bD?'
p7461
tp7462
baa(lp7463
g29
(g30
(I0
tp7464
g32
tp7465
Rp7466
(I1
(I1
tp7467
g6
I00
S'"\xbeY4Kl_?'
p7468
tp7469
bag29
(g30
(I0
tp7470
g32
tp7471
Rp7472
(I1
(I1
tp7473
g6
I00
S'j?\xe0H\xb67U?'
p7474
tp7475
bag29
(g30
(I0
tp7476
g32
tp7477
Rp7478
(I1
(I1
tp7479
g6
I00
S'\xd4;\xf9#\xbf\x82B?'
p7480
tp7481
baa(lp7482
g29
(g30
(I0
tp7483
g32
tp7484
Rp7485
(I1
(I1
tp7486
g6
I00
S'\xecZi\xd3\x15\xce`?'
p7487
tp7488
bag29
(g30
(I0
tp7489
g32
tp7490
Rp7491
(I1
(I1
tp7492
g6
I00
S'\xf4 \xe4\xe7#WX?'
p7493
tp7494
bag29
(g30
(I0
tp7495
g32
tp7496
Rp7497
(I1
(I1
tp7498
g6
I00
S'\xbb\xed\x05L\xe5\xce@?'
p7499
tp7500
baa(lp7501
g29
(g30
(I0
tp7502
g32
tp7503
Rp7504
(I1
(I1
tp7505
g6
I00
S'\xd4\x17\x86\x85\xd6Ja?'
p7506
tp7507
bag29
(g30
(I0
tp7508
g32
tp7509
Rp7510
(I1
(I1
tp7511
g6
I00
S'\xec@\xf4\x87\x03FZ?'
p7512
tp7513
bag29
(g30
(I0
tp7514
g32
tp7515
Rp7516
(I1
(I1
tp7517
g6
I00
S'\xfe\x1d\xe8\x07q\xca>?'
p7518
tp7519
baa(lp7520
g29
(g30
(I0
tp7521
g32
tp7522
Rp7523
(I1
(I1
tp7524
g6
I00
S'\x12\xe8\x8a\xad\x88\xd2_?'
p7525
tp7526
bag29
(g30
(I0
tp7527
g32
tp7528
Rp7529
(I1
(I1
tp7530
g6
I00
S'<7\xb2[@\tY?'
p7531
tp7532
bag29
(g30
(I0
tp7533
g32
tp7534
Rp7535
(I1
(I1
tp7536
g6
I00
S'\xc7\xc9\xa1{\xd5k<?'
p7537
tp7538
baa(lp7539
g29
(g30
(I0
tp7540
g32
tp7541
Rp7542
(I1
(I1
tp7543
g6
I00
S'\xb68\xaf\xbds\xfc]?'
p7544
tp7545
bag29
(g30
(I0
tp7546
g32
tp7547
Rp7548
(I1
(I1
tp7549
g6
I00
S'U\xa1\x96\x1fOOX?'
p7550
tp7551
bag29
(g30
(I0
tp7552
g32
tp7553
Rp7554
(I1
(I1
tp7555
g6
I00
S'@\x86^\xd6Ee:?'
p7556
tp7557
baa(lp7558
g29
(g30
(I0
tp7559
g32
tp7560
Rp7561
(I1
(I1
tp7562
g6
I00
S'\xb5\x10\x8e\x03\xba\x9a\\?'
p7563
tp7564
bag29
(g30
(I0
tp7565
g32
tp7566
Rp7567
(I1
(I1
tp7568
g6
I00
S'\xd3C\xe0EP~W?'
p7569
tp7570
bag29
(g30
(I0
tp7571
g32
tp7572
Rp7573
(I1
(I1
tp7574
g6
I00
S'\x88}\x87\\b\xa28?'
p7575
tp7576
baa(lp7577
g29
(g30
(I0
tp7578
g32
tp7579
Rp7580
(I1
(I1
tp7581
g6
I00
S'\xc9`H!\xc2s[?'
p7582
tp7583
bag29
(g30
(I0
tp7584
g32
tp7585
Rp7586
(I1
(I1
tp7587
g6
I00
S'\xe6\x96hZn\xa7V?'
p7588
tp7589
bag29
(g30
(I0
tp7590
g32
tp7591
Rp7592
(I1
(I1
tp7593
g6
I00
S'=_\x00\x10\x01\x187?'
p7594
tp7595
baa(lp7596
g29
(g30
(I0
tp7597
g32
tp7598
Rp7599
(I1
(I1
tp7600
g6
I00
S'\xc0\x07\x1e\xd4"\x9cZ?'
p7601
tp7602
bag29
(g30
(I0
tp7603
g32
tp7604
Rp7605
(I1
(I1
tp7606
g6
I00
S'\x1cc\xb5\\1&V?'
p7607
tp7608
bag29
(g30
(I0
tp7609
g32
tp7610
Rp7611
(I1
(I1
tp7612
g6
I00
S'\xa1\xc1\x93\xe64\xbc5?'
p7613
tp7614
baa(lp7615
g29
(g30
(I0
tp7616
g32
tp7617
Rp7618
(I1
(I1
tp7619
g6
I00
S'\xfeA\xdf|\xaa\xf3Y?'
p7620
tp7621
bag29
(g30
(I0
tp7622
g32
tp7623
Rp7624
(I1
(I1
tp7625
g6
I00
S'\x0fv3\x8b\xce\xd1U?'
p7626
tp7627
bag29
(g30
(I0
tp7628
g32
tp7629
Rp7630
(I1
(I1
tp7631
g6
I00
S'!M/\xc1\x03\x874?'
p7632
tp7633
baa(lp7634
g29
(g30
(I0
tp7635
g32
tp7636
Rp7637
(I1
(I1
tp7638
g6
I00
S'9\x1a\x9c\x1f\xabiY?'
p7639
tp7640
bag29
(g30
(I0
tp7641
g32
tp7642
Rp7643
(I1
(I1
tp7644
g6
I00
S'\xae\xf8\x07\x06!\x96U?'
p7645
tp7646
bag29
(g30
(I0
tp7647
g32
tp7648
Rp7649
(I1
(I1
tp7650
g6
I00
S'\x19\t\xe9\xff8r3?'
p7651
tp7652
baa(lp7653
g29
(g30
(I0
tp7654
g32
tp7655
Rp7656
(I1
(I1
tp7657
g6
I00
S'\xe93?\xa2\xf1\xf4X?'
p7658
tp7659
bag29
(g30
(I0
tp7660
g32
tp7661
Rp7662
(I1
(I1
tp7663
g6
I00
S'\xb3\xc6~\xb8\xechU?'
p7664
tp7665
bag29
(g30
(I0
tp7666
g32
tp7667
Rp7668
(I1
(I1
tp7669
g6
I00
S'l\xe5\x05^\xe9x2?'
p7670
tp7671
baa(lp7672
g29
(g30
(I0
tp7673
g32
tp7674
Rp7675
(I1
(I1
tp7676
g6
I00
S'\x01\x12\xa4\x1c\x15\x90X?'
p7677
tp7678
bag29
(g30
(I0
tp7679
g32
tp7680
Rp7681
(I1
(I1
tp7682
g6
I00
S'=\xf1\xc2%\xe3DU?'
p7683
tp7684
bag29
(g30
(I0
tp7685
g32
tp7686
Rp7687
(I1
(I1
tp7688
g6
I00
S'7U6\x9f\x1f\x971?'
p7689
tp7690
baa(lp7691
g29
(g30
(I0
tp7692
g32
tp7693
Rp7694
(I1
(I1
tp7695
g6
I00
S'\xf1\xefN\xf7\xac7X?'
p7696
tp7697
bag29
(g30
(I0
tp7698
g32
tp7699
Rp7700
(I1
(I1
tp7701
g6
I00
S"I\xd8\xc7\xc92'U?"
p7702
tp7703
bag29
(g30
(I0
tp7704
g32
tp7705
Rp7706
(I1
(I1
tp7707
g6
I00
S'\t\x9d\xdaI\xa2\xc90?'
p7708
tp7709
baa(lp7710
g29
(g30
(I0
tp7711
g32
tp7712
Rp7713
(I1
(I1
tp7714
g6
I00
S'sW\x88\xd3H-X?'
p7715
tp7716
bag29
(g30
(I0
tp7717
g32
tp7718
Rp7719
(I1
(I1
tp7720
g6
I00
S'\x7fNun\x01\x93U?'
p7721
tp7722
bag29
(g30
(I0
tp7723
g32
tp7724
Rp7725
(I1
(I1
tp7726
g6
I00
S'\r%\xf7\xa9\xcd\x0f0?'
p7727
tp7728
baa(lp7729
g29
(g30
(I0
tp7730
g32
tp7731
Rp7732
(I1
(I1
tp7733
g6
I00
S'T\xf0\xe5\rH\x89Z?'
p7734
tp7735
bag29
(g30
(I0
tp7736
g32
tp7737
Rp7738
(I1
(I1
tp7739
g6
I00
S'tl%\x0c}\x06X?'
p7740
tp7741
bag29
(g30
(I0
tp7742
g32
tp7743
Rp7744
(I1
(I1
tp7745
g6
I00
S'D\x16{\x11\xbb\xc7.?'
p7746
tp7747
baa(lp7748
g29
(g30
(I0
tp7749
g32
tp7750
Rp7751
(I1
(I1
tp7752
g6
I00
S'q\xa3;\x04J6a?'
p7753
tp7754
bag29
(g30
(I0
tp7755
g32
tp7756
Rp7757
(I1
(I1
tp7758
g6
I00
S'\x90\xfbAw\xb7\x02`?'
p7759
tp7760
bag29
(g30
(I0
tp7761
g32
tp7762
Rp7763
(I1
(I1
tp7764
g6
I00
S'\x8fq_]\xc6\x8a-?'
p7765
tp7766
baa(lp7767
g29
(g30
(I0
tp7768
g32
tp7769
Rp7770
(I1
(I1
tp7771
g6
I00
S'\xb5\xe8\xc6\x0b8xY?'
p7772
tp7773
bag29
(g30
(I0
tp7774
g32
tp7775
Rp7776
(I1
(I1
tp7777
g6
I00
S'H\x9bu7*3W?'
p7778
tp7779
bag29
(g30
(I0
tp7780
g32
tp7781
Rp7782
(I1
(I1
tp7783
g6
I00
S'\xc8\x88S\x1c\x9bd,?'
p7784
tp7785
baa(lp7786
g29
(g30
(I0
tp7787
g32
tp7788
Rp7789
(I1
(I1
tp7790
g6
I00
S'\xfa\xd7\xf6\xe3\xa6FT?'
p7791
tp7792
bag29
(g30
(I0
tp7793
g32
tp7794
Rp7795
(I1
(I1
tp7796
g6
I00
S'K\x81\xcc\x00\xd2\xfeR?'
p7797
tp7798
bag29
(g30
(I0
tp7799
g32
tp7800
Rp7801
(I1
(I1
tp7802
g6
I00
S'\xa7\xc3\x84\x86\xd7\xc7*?'
p7803
tp7804
baa(lp7805
g29
(g30
(I0
tp7806
g32
tp7807
Rp7808
(I1
(I1
tp7809
g6
I00
S'\xa2/\xc1\x9e_\xd4Z?'
p7810
tp7811
bag29
(g30
(I0
tp7812
g32
tp7813
Rp7814
(I1
(I1
tp7815
g6
I00
S'\xf2\xd8\x96\xbb\x8a\x8cY?'
p7816
tp7817
bag29
(g30
(I0
tp7818
g32
tp7819
Rp7820
(I1
(I1
tp7821
g6
I00
S'\xa7\xc3\x84\x86\xd7\xc7*?'
p7822
tp7823
baa(lp7824
g29
(g30
(I0
tp7825
g32
tp7826
Rp7827
(I1
(I1
tp7828
g6
I00
S'@\xdd\xa5\xc2\xee\x82V?'
p7829
tp7830
bag29
(g30
(I0
tp7831
g32
tp7832
Rp7833
(I1
(I1
tp7834
g6
I00
S'\xa4\xb9\xcd\xc4NAV?'
p7835
tp7836
bag29
(g30
(I0
tp7837
g32
tp7838
Rp7839
(I1
(I1
tp7840
g6
I00
S'\xb8N\x84\x93\xba\xc8)?'
p7841
tp7842
baa(lp7843
g29
(g30
(I0
tp7844
g32
tp7845
Rp7846
(I1
(I1
tp7847
g6
I00
S'T\x1cl}\xa7\x10]?'
p7848
tp7849
bag29
(g30
(I0
tp7850
g32
tp7851
Rp7852
(I1
(I1
tp7853
g6
I00
S'\xb8\xf8\x93\x7f\x07\xcf\\?'
p7854
tp7855
bag29
(g30
(I0
tp7856
g32
tp7857
Rp7858
(I1
(I1
tp7859
g6
I00
S'\xb8N\x84\x93\xba\xc8)?'
p7860
tp7861
baa(lp7862
g29
(g30
(I0
tp7863
g32
tp7864
Rp7865
(I1
(I1
tp7866
g6
I00
S'\xdc\xbb~\x04\x9a\x82]?'
p7867
tp7868
bag29
(g30
(I0
tp7869
g32
tp7870
Rp7871
(I1
(I1
tp7872
g6
I00
S'\xa0\x191\xba.\x97]?'
p7873
tp7874
bag29
(g30
(I0
tp7875
g32
tp7876
Rp7877
(I1
(I1
tp7878
g6
I00
S'\xfb\xd6\x9c\xc8%T)?'
p7879
tp7880
baa(lp7881
g29
(g30
(I0
tp7882
g32
tp7883
Rp7884
(I1
(I1
tp7885
g6
I00
S'\x1dV\xbdR\n\xbf]?'
p7886
tp7887
bag29
(g30
(I0
tp7888
g32
tp7889
Rp7890
(I1
(I1
tp7891
g6
I00
S' \x0e\xb2Fy\x10^?'
p7892
tp7893
bag29
(g30
(I0
tp7894
g32
tp7895
Rp7896
(I1
(I1
tp7897
g6
I00
S'P\x87aG\x08\xe5(?'
p7898
tp7899
baa(lp7900
g29
(g30
(I0
tp7901
g32
tp7902
Rp7903
(I1
(I1
tp7904
g6
I00
S'\x84\x16\xce\xdc|\xde]?'
p7905
tp7906
bag29
(g30
(I0
tp7907
g32
tp7908
Rp7909
(I1
(I1
tp7910
g6
I00
S'\xee8^T=X^?'
p7911
tp7912
bag29
(g30
(I0
tp7913
g32
tp7914
Rp7915
(I1
(I1
tp7916
g6
I00
S'\x12\xa1\xed\xbc\x92z(?'
p7917
tp7918
baa(lp7919
g29
(g30
(I0
tp7920
g32
tp7921
Rp7922
(I1
(I1
tp7923
g6
I00
S'\xdbN]6H\xebZ?'
p7924
tp7925
bag29
(g30
(I0
tp7926
g32
tp7927
Rp7928
(I1
(I1
tp7929
g6
I00
S'n$\xf2\xd8yy[?'
p7930
tp7931
bag29
(g30
(I0
tp7932
g32
tp7933
Rp7934
(I1
(I1
tp7935
g6
I00
S'D\x02K\x00Q\x14(?'
p7936
tp7937
baa(lp7938
g29
(g30
(I0
tp7939
g32
tp7940
Rp7941
(I1
(I1
tp7942
g6
I00
S'[\xe5\xda}E4\\?'
p7943
tp7944
bag29
(g30
(I0
tp7945
g32
tp7946
Rp7947
(I1
(I1
tp7948
g6
I00
S'\xe2\xddLP\xf8\xcd\\?'
p7949
tp7950
bag29
(g30
(I0
tp7951
g32
tp7952
Rp7953
(I1
(I1
tp7954
g6
I00
S"2\x18!\x08\xbb\xb1'?"
p7955
tp7956
baa(lp7957
g29
(g30
(I0
tp7958
g32
tp7959
Rp7960
(I1
(I1
tp7961
g6
I00
S'\xe0\x0f\x16\xfa\xb6\xf9\\?'
p7962
tp7963
bag29
(g30
(I0
tp7964
g32
tp7965
Rp7966
(I1
(I1
tp7967
g6
I00
S'\xa7\xf0:\xe6A\x96]?'
p7968
tp7969
bag29
(g30
(I0
tp7970
g32
tp7971
Rp7972
(I1
(I1
tp7973
g6
I00
S'\xf4"n\x93\x99R\'?'
p7974
tp7975
baa(lp7976
g29
(g30
(I0
tp7977
g32
tp7978
Rp7979
(I1
(I1
tp7980
g6
I00
S'\xd5\x01\x1bero]?'
p7981
tp7982
bag29
(g30
(I0
tp7983
g32
tp7984
Rp7985
(I1
(I1
tp7986
g6
I00
S'\xcd\t\x80\xa9\x7f\x07^?'
p7987
tp7988
bag29
(g30
(I0
tp7989
g32
tp7990
Rp7991
(I1
(I1
tp7992
g6
I00
S',\x87\xf3\xd1\xb7\xf6&?'
p7993
tp7994
baa(lp7995
g29
(g30
(I0
tp7996
g32
tp7997
Rp7998
(I1
(I1
tp7999
g6
I00
S'\x00#\x8d\xb0\xa6\xb6]?'
p8000
tp8001
bag29
(g30
(I0
tp8002
g32
tp8003
Rp8004
(I1
(I1
tp8005
g6
I00
S'\xa0H\t;PD^?'
p8006
tp8007
bag29
(g30
(I0
tp8008
g32
tp8009
Rp8010
(I1
(I1
tp8011
g6
I00
S'\xd1V\xcbv\xe8\x9d&?'
p8012
tp8013
baa(lp8014
g29
(g30
(I0
tp8015
g32
tp8016
Rp8017
(I1
(I1
tp8018
g6
I00
S'\x0b\x90\x08\xe5\xdesW?'
p8019
tp8020
bag29
(g30
(I0
tp8021
g32
tp8022
Rp8023
(I1
(I1
tp8024
g6
I00
S'l\xb1\xba_\xd8\xdfW?'
p8025
tp8026
bag29
(g30
(I0
tp8027
g32
tp8028
Rp8029
(I1
(I1
tp8030
g6
I00
S'\xfb\xb7\xd0y\xe5\xf4%?'
p8031
tp8032
baa(lp8033
g29
(g30
(I0
tp8034
g32
tp8035
Rp8036
(I1
(I1
tp8037
g6
I00
S'\x11\x0bL\x9a3\x8aW?'
p8038
tp8039
bag29
(g30
(I0
tp8040
g32
tp8041
Rp8042
(I1
(I1
tp8043
g6
I00
S'\x8d2\xdd\xfa\xaa\xe0W?'
p8044
tp8045
bag29
(g30
(I0
tp8046
g32
tp8047
Rp8048
(I1
(I1
tp8049
g6
I00
S'\x9f\xa4\x0b\x14m\xa4%?'
p8050
tp8051
baa(lp8052
g29
(g30
(I0
tp8053
g32
tp8054
Rp8055
(I1
(I1
tp8056
g6
I00
S' \xf7l\xb6\xea)^?'
p8057
tp8058
bag29
(g30
(I0
tp8059
g32
tp8060
Rp8061
(I1
(I1
tp8062
g6
I00
S'j\x9bUT]i^?'
p8063
tp8064
bag29
(g30
(I0
tp8065
g32
tp8066
Rp8067
(I1
(I1
tp8068
g6
I00
S'\xf8?\xaf\xea{V%?'
p8069
tp8070
baa(lp8071
g29
(g30
(I0
tp8072
g32
tp8073
Rp8074
(I1
(I1
tp8075
g6
I00
S'g\xc1f\x11\xaf\xabW?'
p8076
tp8077
bag29
(g30
(I0
tp8078
g32
tp8079
Rp8080
(I1
(I1
tp8081
g6
I00
S'\x98\x02\x99\x85\xa1\xd3W?'
p8082
tp8083
bag29
(g30
(I0
tp8084
g32
tp8085
Rp8086
(I1
(I1
tp8087
g6
I00
S"'\n[\x0e\xf5\n%?"
p8088
tp8089
baa(lp8090
g29
(g30
(I0
tp8091
g32
tp8092
Rp8093
(I1
(I1
tp8094
g6
I00
S'\x0e\x191\xccg9^?'
p8095
tp8096
bag29
(g30
(I0
tp8097
g32
tp8098
Rp8099
(I1
(I1
tp8100
g6
I00
S'@Zc@Za^?'
p8101
tp8102
bag29
(g30
(I0
tp8103
g32
tp8104
Rp8105
(I1
(I1
tp8106
g6
I00
S"'\n[\x0e\xf5\n%?"
p8107
tp8108
baa(lp8109
g29
(g30
(I0
tp8110
g32
tp8111
Rp8112
(I1
(I1
tp8113
g6
I00
S'\x8d\x11l"KG^?'
p8114
tp8115
bag29
(g30
(I0
tp8116
g32
tp8117
Rp8118
(I1
(I1
tp8119
g6
I00
S'\xc2\x8f\n\x0b\rX^?'
p8120
tp8121
bag29
(g30
(I0
tp8122
g32
tp8123
Rp8124
(I1
(I1
tp8125
g6
I00
S']\x16\x98\xee\xbc\xc1$?'
p8126
tp8127
baa(lp8128
g29
(g30
(I0
tp8129
g32
tp8130
Rp8131
(I1
(I1
tp8132
g6
I00
S'3y\xb1N\xf9S^?'
p8133
tp8134
bag29
(g30
(I0
tp8135
g32
tp8136
Rp8137
(I1
(I1
tp8138
g6
I00
S';j\xd7jxN^?'
p8139
tp8140
bag29
(g30
(I0
tp8141
g32
tp8142
Rp8143
(I1
(I1
tp8144
g6
I00
S'\xf0\x1fs<\xb9z$?'
p8145
tp8146
baa(lp8147
g29
(g30
(I0
tp8148
g32
tp8149
Rp8150
(I1
(I1
tp8151
g6
I00
S'\xe7@\xb1]\x90_^?'
p8152
tp8153
bag29
(g30
(I0
tp8154
g32
tp8155
Rp8156
(I1
(I1
tp8157
g6
I00
S'\x95\xeaE>7E^?'
p8158
tp8159
bag29
(g30
(I0
tp8160
g32
tp8161
Rp8162
(I1
(I1
tp8163
g6
I00
S'\x98\xf1\x9a\xd3\xd05$?'
p8164
tp8165
baa(lp8166
g29
(g30
(I0
tp8167
g32
tp8168
Rp8169
(I1
(I1
tp8170
g6
I00
S'\xac`\x94\x13\nj^?'
p8171
tp8172
bag29
(g30
(I0
tp8173
g32
tp8174
Rp8175
(I1
(I1
tp8176
g6
I00
S'\xf24\x91\xe4\xa6<^?'
p8177
tp8178
bag29
(g30
(I0
tp8179
g32
tp8180
Rp8181
(I1
(I1
tp8182
g6
I00
S'\xc2\x94\x7f\xad\xeb\xf2#?'
p8183
tp8184
baa(lp8185
g29
(g30
(I0
tp8186
g32
tp8187
Rp8188
(I1
(I1
tp8189
g6
I00
S'x\x15\xdd\x08Os^?'
p8190
tp8191
bag29
(g30
(I0
tp8192
g32
tp8193
Rp8194
(I1
(I1
tp8195
g6
I00
S'\xbe\x04F*\x005^?'
p8196
tp8197
bag29
(g30
(I0
tp8198
g32
tp8199
Rp8200
(I1
(I1
tp8201
g6
I00
S'\xcbM\xa6\xd2\xf2\xb1#?'
p8202
tp8203
baa(lp8204
g29
(g30
(I0
tp8205
g32
tp8206
Rp8207
(I1
(I1
tp8208
g6
I00
S'\xa9\xech>A{^?'
p8209
tp8210
bag29
(g30
(I0
tp8211
g32
tp8212
Rp8213
(I1
(I1
tp8214
g6
I00
S'\x1eH\xbdef.^?'
p8215
tp8216
bag29
(g30
(I0
tp8217
g32
tp8218
Rp8219
(I1
(I1
tp8220
g6
I00
S't;\x0fR\xd0r#?'
p8221
tp8222
baa(lp8223
g29
(g30
(I0
tp8224
g32
tp8225
Rp8226
(I1
(I1
tp8227
g6
I00
S'\x9b\xcd\xaeG\xc2\x81^?'
p8228
tp8229
bag29
(g30
(I0
tp8230
g32
tp8231
Rp8232
(I1
(I1
tp8233
g6
I00
S'\x96:\x8f~\xf0(^?'
p8234
tp8235
bag29
(g30
(I0
tp8236
g32
tp8237
Rp8238
(I1
(I1
tp8239
g6
I00
S'\x9b\x18L5o5#?'
p8240
tp8241
baa(lp8242
g29
(g30
(I0
tp8243
g32
tp8244
Rp8245
(I1
(I1
tp8246
g6
I00
S';*\x1e\x1a\xe1\xaeZ?'
p8247
tp8248
bag29
(g30
(I0
tp8249
g32
tp8250
Rp8251
(I1
(I1
tp8252
g6
I00
S',k<\xb4\xf7CZ?'
p8253
tp8254
bag29
(g30
(I0
tp8255
g32
tp8256
Rp8257
(I1
(I1
tp8258
g6
I00
S'\x82\xe1\x01\xe8\xa1\xbf"?'
p8259
tp8260
baa(lp8261
g8245
ag8251
ag8257
aa(lp8262
g29
(g30
(I0
tp8263
g32
tp8264
Rp8265
(I1
(I1
tp8266
g6
I00
S'\x0b\x04\xd6!l\x7fY?'
p8267
tp8268
bag29
(g30
(I0
tp8269
g32
tp8270
Rp8271
(I1
(I1
tp8272
g6
I00
S'\x9d\xde\n\x1a\x0b\x0fY?'
p8273
tp8274
bag29
(g30
(I0
tp8275
g32
tp8276
Rp8277
(I1
(I1
tp8278
g6
I00
S'\x01lnv\x11\x87"?'
p8279
tp8280
baa(lp8281
g29
(g30
(I0
tp8282
g32
tp8283
Rp8284
(I1
(I1
tp8285
g6
I00
S'\xe2\xbc\x13\xc0>\x95T?'
p8286
tp8287
bag29
(g30
(I0
tp8288
g32
tp8289
Rp8290
(I1
(I1
tp8291
g6
I00
S'\x17\xe2\xbc\x9eQ\x1eT?'
p8292
tp8293
bag29
(g30
(I0
tp8294
g32
tp8295
Rp8296
(I1
(I1
tp8297
g6
I00
S'\x81]\x9e\x99I\x1a"?'
p8298
tp8299
baa(lp8300
g29
(g30
(I0
tp8301
g32
tp8302
Rp8303
(I1
(I1
tp8304
g6
I00
S'\xf6\xfb\xd9z\xf7"[?'
p8305
tp8306
bag29
(g30
(I0
tp8307
g32
tp8308
Rp8309
(I1
(I1
tp8310
g6
I00
S'+!\x83Y\n\xacZ?'
p8311
tp8312
bag29
(g30
(I0
tp8313
g32
tp8314
Rp8315
(I1
(I1
tp8316
g6
I00
S'\x81]\x9e\x99I\x1a"?'
p8317
tp8318
baa(lp8319
g29
(g30
(I0
tp8320
g32
tp8321
Rp8322
(I1
(I1
tp8323
g6
I00
S'T\xa7\x1fo\x92\xbfY?'
p8324
tp8325
bag29
(g30
(I0
tp8326
g32
tp8327
Rp8328
(I1
(I1
tp8329
g6
I00
S'O\x03\xe6\x7f\xebEY?'
p8330
tp8331
bag29
(g30
(I0
tp8332
g32
tp8333
Rp8334
(I1
(I1
tp8335
g6
I00
S'g_\xb0\x14\xf4\xe5!?'
p8336
tp8337
baa(lp8338
g29
(g30
(I0
tp8339
g32
tp8340
Rp8341
(I1
(I1
tp8342
g6
I00
S'%\xa4\n3J\xfeX?'
p8343
tp8344
bag29
(g30
(I0
tp8345
g32
tp8346
Rp8347
(I1
(I1
tp8348
g6
I00
S'\xb3\xc07\xec\x97\x82X?'
p8349
tp8350
bag29
(g30
(I0
tp8351
g32
tp8352
Rp8353
(I1
(I1
tp8354
g6
I00
S'\xa5v;\xd6\xeb\xb2!?'
p8355
tp8356
baa(lp8357
g29
(g30
(I0
tp8358
g32
tp8359
Rp8360
(I1
(I1
tp8361
g6
I00
S'Jp\xd3\xb8\xa3\xe3Y?'
p8362
tp8363
bag29
(g30
(I0
tp8364
g32
tp8365
Rp8366
(I1
(I1
tp8367
g6
I00
S'\xc6\x94z\x86tfY?'
p8368
tp8369
bag29
(g30
(I0
tp8370
g32
tp8371
Rp8372
(I1
(I1
tp8373
g6
I00
S'\xe5\xeb\xf2)$\x81!?'
p8374
tp8375
baa(lp8376
g29
(g30
(I0
tp8377
g32
tp8378
Rp8379
(I1
(I1
tp8380
g6
I00
S'\xf9\xb8\xe8\xaf\xed\xca[?'
p8381
tp8382
bag29
(g30
(I0
tp8383
g32
tp8384
Rp8385
(I1
(I1
tp8386
g6
I00
S'j\xb8\x87\xf3\xa3L[?'
p8387
tp8388
bag29
(g30
(I0
tp8389
g32
tp8390
Rp8391
(I1
(I1
tp8392
g6
I00
S'xPS\xf8\x90P!?'
p8393
tp8394
baa(lp8395
g29
(g30
(I0
tp8396
g32
tp8397
Rp8398
(I1
(I1
tp8399
g6
I00
S'\xed\x1a\rk}_U?'
p8400
tp8401
bag29
(g30
(I0
tp8402
g32
tp8403
Rp8404
(I1
(I1
tp8405
g6
I00
S'\xc1\x98\xe2\x0c6\xdfT?'
p8406
tp8407
bag29
(g30
(I0
tp8408
g32
tp8409
Rp8410
(I1
(I1
tp8411
g6
I00
S'd\xb6@\x08\xdc\xf2 ?'
p8412
tp8413
baa(lp8414
g29
(g30
(I0
tp8415
g32
tp8416
Rp8417
(I1
(I1
tp8418
g6
I00
S'\x01Z\xd3%6\xed[?'
p8419
tp8420
bag29
(g30
(I0
tp8421
g32
tp8422
Rp8423
(I1
(I1
tp8424
g6
I00
S'\xd5\xd7\xa8\xc7\xeel[?'
p8425
tp8426
bag29
(g30
(I0
tp8427
g32
tp8428
Rp8429
(I1
(I1
tp8430
g6
I00
S'd\xb6@\x08\xdc\xf2 ?'
p8431
tp8432
baa(lp8433
g29
(g30
(I0
tp8434
g32
tp8435
Rp8436
(I1
(I1
tp8437
g6
I00
S'\xa7\xcb\xe5Er\t]?'
p8438
tp8439
bag29
(g30
(I0
tp8440
g32
tp8441
Rp8442
(I1
(I1
tp8443
g6
I00
S'S\xe1\xbe\x92p\x88\\?'
p8444
tp8445
bag29
(g30
(I0
tp8446
g32
tp8447
Rp8448
(I1
(I1
tp8449
g6
I00
S'^qr\x83\xa5\xc5 ?'
p8450
tp8451
baa(lp8452
g29
(g30
(I0
tp8453
g32
tp8454
Rp8455
(I1
(I1
tp8456
g6
I00
S'\x9e\xa0\xb2|\xd4\xb1]?'
p8457
tp8458
bag29
(g30
(I0
tp8459
g32
tp8460
Rp8461
(I1
(I1
tp8462
g6
I00
S'\xa6V\x81H)0]?'
p8463
tp8464
bag29
(g30
(I0
tp8465
g32
tp8466
Rp8467
(I1
(I1
tp8468
g6
I00
S'S_\xc9\xeey\x99 ?'
p8469
tp8470
baa(lp8471
g29
(g30
(I0
tp8472
g32
tp8473
Rp8474
(I1
(I1
tp8475
g6
I00
S'j\rDR\xfd\x13^?'
p8476
tp8477
bag29
(g30
(I0
tp8478
g32
tp8479
Rp8480
(I1
(I1
tp8481
g6
I00
S't\x13\xc0\xae\xb9\x91]?'
p8482
tp8483
bag29
(g30
(I0
tp8484
g32
tp8485
Rp8486
(I1
(I1
tp8487
g6
I00
S's$^\x1ePn ?'
p8488
tp8489
baa.