(lp0
(lp1
cnumpy.core.multiarray
_reconstruct
p2
(cnumpy
ndarray
p3
(I0
tp4
S'b'
p5
tp6
Rp7
(I1
(I1
tp8
cnumpy
dtype
p9
(S'f8'
p10
I0
I1
tp11
Rp12
(I3
S'<'
p13
NNNI-1
I-1
I0
tp14
bI00
S'\x00\xec\xb5\xa4^\x82\xad?'
p15
tp16
bag2
(g3
(I0
tp17
g5
tp18
Rp19
(I1
(I1
tp20
g12
I00
S'\x000\xa7\x16\xb8H\xbe?'
p21
tp22
bag2
(g3
(I0
tp23
g5
tp24
Rp25
(I1
(I1
tp26
g12
I00
S'\x00h#\x94c(\xc1?'
p27
tp28
baa(lp29
g2
(g3
(I0
tp30
g5
tp31
Rp32
(I1
(I1
tp33
g12
I00
S'\x00\x00\x00\x00\x00\x00\x00\x00'
p34
tp35
bag2
(g3
(I0
tp36
g5
tp37
Rp38
(I1
(I1
tp39
g12
I00
S'\x00\x00\x00\x00\x00\x00\x00\x00'
p40
tp41
bag2
(g3
(I0
tp42
g5
tp43
Rp44
(I1
(I1
tp45
g12
I00
S'\x00\x00\x00\x00\x00\x00\x00\x00'
p46
tp47
baa(lp48
g2
(g3
(I0
tp49
g5
tp50
Rp51
(I1
(I1
tp52
g12
I00
S'\xc0\x0e\x1c\xeb\xe26j?'
p53
tp54
bag2
(g3
(I0
tp55
g5
tp56
Rp57
(I1
(I1
tp58
g12
I00
S'\xc0\x0e\x1c\xeb\xe26j?'
p59
tp60
bag2
(g3
(I0
tp61
g5
tp62
Rp63
(I1
(I1
tp64
g12
I00
S'\x00\x00\x00\x00\x00\x00\x00\x00'
p65
tp66
baa(lp67
g2
(g3
(I0
tp68
g5
tp69
Rp70
(I1
(I1
tp71
g12
I00
S'\x0f\xed\x08u\xcc\xcfi?'
p72
tp73
bag2
(g3
(I0
tp74
g5
tp75
Rp76
(I1
(I1
tp77
g12
I00
S'\r\xed\x08u\xcc\xcfi?'
p78
tp79
bag2
(g3
(I0
tp80
g5
tp81
Rp82
(I1
(I1
tp83
g12
I00
S'\x00\x00\x00\x00\x00\x00\x00\x00'
p84
tp85
baa(lp86
g2
(g3
(I0
tp87
g5
tp88
Rp89
(I1
(I1
tp90
g12
I00
S'\x9d\xfbS\x8b\x81\xd4o?'
p91
tp92
bag2
(g3
(I0
tp93
g5
tp94
Rp95
(I1
(I1
tp96
g12
I00
S'\x98\xfbS\x8b\x81\xd4o?'
p97
tp98
bag2
(g3
(I0
tp99
g5
tp100
Rp101
(I1
(I1
tp102
g12
I00
S'\x00\x00\x00\x00\x00\x00\x00\x00'
p103
tp104
baa(lp105
g2
(g3
(I0
tp106
g5
tp107
Rp108
(I1
(I1
tp109
g12
I00
S'%\xef\xb9\x10\t\x15t?'
p110
tp111
bag2
(g3
(I0
tp112
g5
tp113
Rp114
(I1
(I1
tp115
g12
I00
S'"\xef\xb9\x10\t\x15t?'
p116
tp117
bag2
(g3
(I0
tp118
g5
tp119
Rp120
(I1
(I1
tp121
g12
I00
S'\x00\x00\x00\x00\x00\x00\x00\x00'
p122
tp123
baa(lp124
g2
(g3
(I0
tp125
g5
tp126
Rp127
(I1
(I1
tp128
g12
I00
S'\xd4\xc9\xee,\xde\x93p?'
p129
tp130
bag2
(g3
(I0
tp131
g5
tp132
Rp133
(I1
(I1
tp134
g12
I00
S'\xd0\xc9\xee,\xde\x93p?'
p135
tp136
bag2
(g3
(I0
tp137
g5
tp138
Rp139
(I1
(I1
tp140
g12
I00
S'\x00\x00\x00\x00\x00\x00\x00\x00'
p141
tp142
baa(lp143
g2
(g3
(I0
tp144
g5
tp145
Rp146
(I1
(I1
tp147
g12
I00
S'\x15;3f$dq?'
p148
tp149
bag2
(g3
(I0
tp150
g5
tp151
Rp152
(I1
(I1
tp153
g12
I00
S'\x11;3f$dq?'
p154
tp155
bag2
(g3
(I0
tp156
g5
tp157
Rp158
(I1
(I1
tp159
g12
I00
S'\x00\x00\x00\x00\x00\x00\x00\x00'
p160
tp161
baa(lp162
g2
(g3
(I0
tp163
g5
tp164
Rp165
(I1
(I1
tp166
g12
I00
S'\x90\x04\xd0E\x03\xfaq?'
p167
tp168
bag2
(g3
(I0
tp169
g5
tp170
Rp171
(I1
(I1
tp172
g12
I00
S'\x8c\x04\xd0E\x03\xfaq?'
p173
tp174
bag2
(g3
(I0
tp175
g5
tp176
Rp177
(I1
(I1
tp178
g12
I00
S'\x00\x00\x00\x00\x00\x00\x00\x00'
p179
tp180
baa(lp181
g2
(g3
(I0
tp182
g5
tp183
Rp184
(I1
(I1
tp185
g12
I00
S'\xe5 \xe6`\xb7Gr?'
p186
tp187
bag2
(g3
(I0
tp188
g5
tp189
Rp190
(I1
(I1
tp191
g12
I00
S'\xe2 \xe6`\xb7Gr?'
p192
tp193
bag2
(g3
(I0
tp194
g5
tp195
Rp196
(I1
(I1
tp197
g12
I00
S'\x00\x00\x00\x00\x00\x00\x00\x00'
p198
tp199
baa(lp200
g2
(g3
(I0
tp201
g5
tp202
Rp203
(I1
(I1
tp204
g12
I00
S'N\x86\x15\x18\xc7\x06r?'
p205
tp206
bag2
(g3
(I0
tp207
g5
tp208
Rp209
(I1
(I1
tp210
g12
I00
S'J\x86\x15\x18\xc7\x06r?'
p211
tp212
bag2
(g3
(I0
tp213
g5
tp214
Rp215
(I1
(I1
tp216
g12
I00
S'\x00\x00\x00\x00\x00\x00\x00\x00'
p217
tp218
baa(lp219
g2
(g3
(I0
tp220
g5
tp221
Rp222
(I1
(I1
tp223
g12
I00
S'[I\x9a\xe3Q`r?'
p224
tp225
bag2
(g3
(I0
tp226
g5
tp227
Rp228
(I1
(I1
tp229
g12
I00
S'WI\x9a\xe3Q`r?'
p230
tp231
bag2
(g3
(I0
tp232
g5
tp233
Rp234
(I1
(I1
tp235
g12
I00
S'\x00\x00\x00\x00\x00\x00\x00\x00'
p236
tp237
baa(lp238
g2
(g3
(I0
tp239
g5
tp240
Rp241
(I1
(I1
tp242
g12
I00
S'\x1c\x01\xc7\xb3\x95\xacr?'
p243
tp244
bag2
(g3
(I0
tp245
g5
tp246
Rp247
(I1
(I1
tp248
g12
I00
S'\x19\x01\xc7\xb3\x95\xacr?'
p249
tp250
bag2
(g3
(I0
tp251
g5
tp252
Rp253
(I1
(I1
tp254
g12
I00
S'\x00\x00\x00\x00\x00\x00\x00\x00'
p255
tp256
baa(lp257
g2
(g3
(I0
tp258
g5
tp259
Rp260
(I1
(I1
tp261
g12
I00
S'\xaa9\xb6\xab1\xc4r?'
p262
tp263
bag2
(g3
(I0
tp264
g5
tp265
Rp266
(I1
(I1
tp267
g12
I00
S'\xa79\xb6\xab1\xc4r?'
p268
tp269
bag2
(g3
(I0
tp270
g5
tp271
Rp272
(I1
(I1
tp273
g12
I00
S'\x00\x00\x00\x00\x00\x00\x00\x00'
p274
tp275
baa(lp276
g2
(g3
(I0
tp277
g5
tp278
Rp279
(I1
(I1
tp280
g12
I00
S'\xb8y\xbf\xaa9\x0fp?'
p281
tp282
bag2
(g3
(I0
tp283
g5
tp284
Rp285
(I1
(I1
tp286
g12
I00
S'\xb5y\xbf\xaa9\x0fp?'
p287
tp288
bag2
(g3
(I0
tp289
g5
tp290
Rp291
(I1
(I1
tp292
g12
I00
S'\x00\x00\x00\x00\x00\x00\x00\x00'
p293
tp294
baa(lp295
g2
(g3
(I0
tp296
g5
tp297
Rp298
(I1
(I1
tp299
g12
I00
S']@\xd5CBcs?'
p300
tp301
bag2
(g3
(I0
tp302
g5
tp303
Rp304
(I1
(I1
tp305
g12
I00
S'Y@\xd5CBcs?'
p306
tp307
bag2
(g3
(I0
tp308
g5
tp309
Rp310
(I1
(I1
tp311
g12
I00
S'\x00\x00\x00\x00\x00\x00\x00\x00'
p312
tp313
baa(lp314
g2
(g3
(I0
tp315
g5
tp316
Rp317
(I1
(I1
tp318
g12
I00
S'Y\xfc\x8d\xed\x13\x01s?'
p319
tp320
bag2
(g3
(I0
tp321
g5
tp322
Rp323
(I1
(I1
tp324
g12
I00
S'V\xfc\x8d\xed\x13\x01s?'
p325
tp326
bag2
(g3
(I0
tp327
g5
tp328
Rp329
(I1
(I1
tp330
g12
I00
S'\x00\x00\x00\x00\x00\x00\x00\x00'
p331
tp332
baa(lp333
g2
(g3
(I0
tp334
g5
tp335
Rp336
(I1
(I1
tp337
g12
I00
S'8\x98\x16\xe2\xb4\x1cs?'
p338
tp339
bag2
(g3
(I0
tp340
g5
tp341
Rp342
(I1
(I1
tp343
g12
I00
S'6\x98\x16\xe2\xb4\x1cs?'
p344
tp345
bag2
(g3
(I0
tp346
g5
tp347
Rp348
(I1
(I1
tp349
g12
I00
S'\x00\x00\x00\x00\x00\x00\x00\x00'
p350
tp351
baa(lp352
g2
(g3
(I0
tp353
g5
tp354
Rp355
(I1
(I1
tp356
g12
I00
S'\xbamW\xb1\xf5/s?'
p357
tp358
bag2
(g3
(I0
tp359
g5
tp360
Rp361
(I1
(I1
tp362
g12
I00
S'\xb8mW\xb1\xf5/s?'
p363
tp364
bag2
(g3
(I0
tp365
g5
tp366
Rp367
(I1
(I1
tp368
g12
I00
S'\x00\x00\x00\x00\x00\x00\x00\x00'
p369
tp370
baa(lp371
g2
(g3
(I0
tp372
g5
tp373
Rp374
(I1
(I1
tp375
g12
I00
S'\xf7\x04k\rI=s?'
p376
tp377
bag2
(g3
(I0
tp378
g5
tp379
Rp380
(I1
(I1
tp381
g12
I00
S'\xf5\x04k\rI=s?'
p382
tp383
bag2
(g3
(I0
tp384
g5
tp385
Rp386
(I1
(I1
tp387
g12
I00
S'\x00\x00\x00\x00\x00\x00\x00\x00'
p388
tp389
baa(lp390
g2
(g3
(I0
tp391
g5
tp392
Rp393
(I1
(I1
tp394
g12
I00
S'\xb8A/\x1f\x7fFs?'
p395
tp396
bag2
(g3
(I0
tp397
g5
tp398
Rp399
(I1
(I1
tp400
g12
I00
S'\xb8A/\x1f\x7fFs?'
p401
tp402
bag2
(g3
(I0
tp403
g5
tp404
Rp405
(I1
(I1
tp406
g12
I00
S'\x00\x00\x00\x00\x00\x00\x00\x00'
p407
tp408
baa(lp409
g2
(g3
(I0
tp410
g5
tp411
Rp412
(I1
(I1
tp413
g12
I00
S',r\xa1\x89\xdbLs?'
p414
tp415
bag2
(g3
(I0
tp416
g5
tp417
Rp418
(I1
(I1
tp419
g12
I00
S'/r\xa1\x89\xdbLs?'
p420
tp421
bag2
(g3
(I0
tp422
g5
tp423
Rp424
(I1
(I1
tp425
g12
I00
S'\x00\x00\x00\x00\x00\x00\x00\x00'
p426
tp427
baa(lp428
g2
(g3
(I0
tp429
g5
tp430
Rp431
(I1
(I1
tp432
g12
I00
S'\xbbqET\xad=r?'
p433
tp434
bag2
(g3
(I0
tp435
g5
tp436
Rp437
(I1
(I1
tp438
g12
I00
S'\xbeqET\xad=r?'
p439
tp440
bag2
(g3
(I0
tp441
g5
tp442
Rp443
(I1
(I1
tp444
g12
I00
S'\x00\x00\x00\x00\x00\x00\x00\x00'
p445
tp446
baa(lp447
g2
(g3
(I0
tp448
g5
tp449
Rp450
(I1
(I1
tp451
g12
I00
S'V\xdfv\x1d,\x94r?'
p452
tp453
bag2
(g3
(I0
tp454
g5
tp455
Rp456
(I1
(I1
tp457
g12
I00
S'X\xdfv\x1d,\x94r?'
p458
tp459
bag2
(g3
(I0
tp460
g5
tp461
Rp462
(I1
(I1
tp463
g12
I00
S'\x00\x00\x00\x00\x00\x00\x00\x00'
p464
tp465
baa(lp466
g2
(g3
(I0
tp467
g5
tp468
Rp469
(I1
(I1
tp470
g12
I00
S']a\xb6\xc0J\xc3r?'
p471
tp472
bag2
(g3
(I0
tp473
g5
tp474
Rp475
(I1
(I1
tp476
g12
I00
S']a\xb6\xc0J\xc3r?'
p477
tp478
bag2
(g3
(I0
tp479
g5
tp480
Rp481
(I1
(I1
tp482
g12
I00
S'\x00\x00\x00\x00\x00\x00\x00\x00'
p483
tp484
baa(lp485
g2
(g3
(I0
tp486
g5
tp487
Rp488
(I1
(I1
tp489
g12
I00
S'dK\xce\xef\x15\xe4r?'
p490
tp491
bag2
(g3
(I0
tp492
g5
tp493
Rp494
(I1
(I1
tp495
g12
I00
S'dK\xce\xef\x15\xe4r?'
p496
tp497
bag2
(g3
(I0
tp498
g5
tp499
Rp500
(I1
(I1
tp501
g12
I00
S'\x00\x00\x00\x00\x00\x00\x00\x00'
p502
tp503
baa(lp504
g2
(g3
(I0
tp505
g5
tp506
Rp507
(I1
(I1
tp508
g12
I00
S'th\xa2\xc4\xa9\tp?'
p509
tp510
bag2
(g3
(I0
tp511
g5
tp512
Rp513
(I1
(I1
tp514
g12
I00
S'th\xa2\xc4\xa9\tp?'
p515
tp516
bag2
(g3
(I0
tp517
g5
tp518
Rp519
(I1
(I1
tp520
g12
I00
S'\x00\x00\x00\x00\x00\x00\x00\x00'
p521
tp522
baa(lp523
g2
(g3
(I0
tp524
g5
tp525
Rp526
(I1
(I1
tp527
g12
I00
S'\nb\x9f2\x15\xefr?'
p528
tp529
bag2
(g3
(I0
tp530
g5
tp531
Rp532
(I1
(I1
tp533
g12
I00
S'\nb\x9f2\x15\xefr?'
p534
tp535
bag2
(g3
(I0
tp536
g5
tp537
Rp538
(I1
(I1
tp539
g12
I00
S'\x00\x00\x00\x00\x00\x00\x00\x00'
p540
tp541
baa(lp542
g2
(g3
(I0
tp543
g5
tp544
Rp545
(I1
(I1
tp546
g12
I00
S'\x05\x145\xba\xa8$p?'
p547
tp548
bag2
(g3
(I0
tp549
g5
tp550
Rp551
(I1
(I1
tp552
g12
I00
S'\x05\x145\xba\xa8$p?'
p553
tp554
bag2
(g3
(I0
tp555
g5
tp556
Rp557
(I1
(I1
tp558
g12
I00
S'\x00\x00\x00\x00\x00\x00\x00\x00'
p559
tp560
baa(lp561
g2
(g3
(I0
tp562
g5
tp563
Rp564
(I1
(I1
tp565
g12
I00
S'\xcfD0\xa2\x03\ts?'
p566
tp567
bag2
(g3
(I0
tp568
g5
tp569
Rp570
(I1
(I1
tp571
g12
I00
S'\xd0D0\xa2\x03\ts?'
p572
tp573
bag2
(g3
(I0
tp574
g5
tp575
Rp576
(I1
(I1
tp577
g12
I00
S'\x00\x00\x00\x00\x00\x00\x00\x00'
p578
tp579
baa(lp580
g2
(g3
(I0
tp581
g5
tp582
Rp583
(I1
(I1
tp584
g12
I00
S'\x07\xef\xb346\x11r?'
p585
tp586
bag2
(g3
(I0
tp587
g5
tp588
Rp589
(I1
(I1
tp590
g12
I00
S'\t\xef\xb346\x11r?'
p591
tp592
bag2
(g3
(I0
tp593
g5
tp594
Rp595
(I1
(I1
tp596
g12
I00
S'\x00\x00\x00\x00\x00\x00\x00\x00'
p597
tp598
baa(lp599
g2
(g3
(I0
tp600
g5
tp601
Rp602
(I1
(I1
tp603
g12
I00
S'\x98\xb0\xd0\xf2\xc3Wr?'
p604
tp605
bag2
(g3
(I0
tp606
g5
tp607
Rp608
(I1
(I1
tp609
g12
I00
S'\x9b\xb0\xd0\xf2\xc3Wr?'
p610
tp611
bag2
(g3
(I0
tp612
g5
tp613
Rp614
(I1
(I1
tp615
g12
I00
S'\x00\x00\x00\x00\x00\x00\x00\x00'
p616
tp617
baa(lp618
g2
(g3
(I0
tp619
g5
tp620
Rp621
(I1
(I1
tp622
g12
I00
S'9\xc9Kvt\xa6r?'
p623
tp624
bag2
(g3
(I0
tp625
g5
tp626
Rp627
(I1
(I1
tp628
g12
I00
S'<\xc9Kvt\xa6r?'
p629
tp630
bag2
(g3
(I0
tp631
g5
tp632
Rp633
(I1
(I1
tp634
g12
I00
S'\x00\x00\x00\x00\x00\x00\x00\x00'
p635
tp636
baa(lp637
g2
(g3
(I0
tp638
g5
tp639
Rp640
(I1
(I1
tp641
g12
I00
S'\xbe\xd3L\xf7\x95\xddr?'
p642
tp643
bag2
(g3
(I0
tp644
g5
tp645
Rp646
(I1
(I1
tp647
g12
I00
S'\xc0\xd3L\xf7\x95\xddr?'
p648
tp649
bag2
(g3
(I0
tp650
g5
tp651
Rp652
(I1
(I1
tp653
g12
I00
S'\x00\x00\x00\x00\x00\x00\x00\x00'
p654
tp655
baa(lp656
g2
(g3
(I0
tp657
g5
tp658
Rp659
(I1
(I1
tp660
g12
I00
S'\xb4\x8f\x1d\xf5\x08\x04s?'
p661
tp662
bag2
(g3
(I0
tp663
g5
tp664
Rp665
(I1
(I1
tp666
g12
I00
S'\xb6\x8f\x1d\xf5\x08\x04s?'
p667
tp668
bag2
(g3
(I0
tp669
g5
tp670
Rp671
(I1
(I1
tp672
g12
I00
S'\x00\x00\x00\x00\x00\x00\x00\x00'
p673
tp674
baa(lp675
g2
(g3
(I0
tp676
g5
tp677
Rp678
(I1
(I1
tp679
g12
I00
S'o<2\x87\xb5\x00s?'
p680
tp681
bag2
(g3
(I0
tp682
g5
tp683
Rp684
(I1
(I1
tp685
g12
I00
S'q<2\x87\xb5\x00s?'
p686
tp687
bag2
(g3
(I0
tp688
g5
tp689
Rp690
(I1
(I1
tp691
g12
I00
S'\x00\x00\x00\x00\x00\x00\x00\x00'
p692
tp693
baa(lp694
g2
(g3
(I0
tp695
g5
tp696
Rp697
(I1
(I1
tp698
g12
I00
S'A\xe7\x97\x8eb\xfer?'
p699
tp700
bag2
(g3
(I0
tp701
g5
tp702
Rp703
(I1
(I1
tp704
g12
I00
S'D\xe7\x97\x8eb\xfer?'
p705
tp706
bag2
(g3
(I0
tp707
g5
tp708
Rp709
(I1
(I1
tp710
g12
I00
S'\x00\x00\x00\x00\x00\x00\x00\x00'
p711
tp712
baa(lp713
g2
(g3
(I0
tp714
g5
tp715
Rp716
(I1
(I1
tp717
g12
I00
S'*\xef\x00\xd4\xb3\x16p?'
p718
tp719
bag2
(g3
(I0
tp720
g5
tp721
Rp722
(I1
(I1
tp723
g12
I00
S'.\xef\x00\xd4\xb3\x16p?'
p724
tp725
bag2
(g3
(I0
tp726
g5
tp727
Rp728
(I1
(I1
tp729
g12
I00
S'\x00\x00\x00\x00\x00\x00\x00\x00'
p730
tp731
baa(lp732
g2
(g3
(I0
tp733
g5
tp734
Rp735
(I1
(I1
tp736
g12
I00
S'R{\xe5^\xba\x19s?'
p737
tp738
bag2
(g3
(I0
tp739
g5
tp740
Rp741
(I1
(I1
tp742
g12
I00
S'W{\xe5^\xba\x19s?'
p743
tp744
bag2
(g3
(I0
tp745
g5
tp746
Rp747
(I1
(I1
tp748
g12
I00
S'\x00\x00\x00\x00\x00\x00\x00\x00'
p749
tp750
baa(lp751
g2
(g3
(I0
tp752
g5
tp753
Rp754
(I1
(I1
tp755
g12
I00
S'\xb6\x9b\xfb\xbe\xd4-s?'
p756
tp757
bag2
(g3
(I0
tp758
g5
tp759
Rp760
(I1
(I1
tp761
g12
I00
S'\xba\x9b\xfb\xbe\xd4-s?'
p762
tp763
bag2
(g3
(I0
tp764
g5
tp765
Rp766
(I1
(I1
tp767
g12
I00
S'\x00\x00\x00\x00\x00\x00\x00\x00'
p768
tp769
baa(lp770
g2
(g3
(I0
tp771
g5
tp772
Rp773
(I1
(I1
tp774
g12
I00
S'\x04a\x9e\xc2\xc1;s?'
p775
tp776
bag2
(g3
(I0
tp777
g5
tp778
Rp779
(I1
(I1
tp780
g12
I00
S'\x08a\x9e\xc2\xc1;s?'
p781
tp782
bag2
(g3
(I0
tp783
g5
tp784
Rp785
(I1
(I1
tp786
g12
I00
S'\x00\x00\x00\x00\x00\x00\x00\x00'
p787
tp788
baa(lp789
g2
(g3
(I0
tp790
g5
tp791
Rp792
(I1
(I1
tp793
g12
I00
S'\x02Q\xf6~dEs?'
p794
tp795
bag2
(g3
(I0
tp796
g5
tp797
Rp798
(I1
(I1
tp799
g12
I00
S'\x04Q\xf6~dEs?'
p800
tp801
bag2
(g3
(I0
tp802
g5
tp803
Rp804
(I1
(I1
tp805
g12
I00
S'\x00\x00\x00\x00\x00\x00\x00\x00'
p806
tp807
baa(lp808
g2
(g3
(I0
tp809
g5
tp810
Rp811
(I1
(I1
tp812
g12
I00
S'\x1a\xe6\xb9\xf0\rLs?'
p813
tp814
bag2
(g3
(I0
tp815
g5
tp816
Rp817
(I1
(I1
tp818
g12
I00
S'\x1c\xe6\xb9\xf0\rLs?'
p819
tp820
bag2
(g3
(I0
tp821
g5
tp822
Rp823
(I1
(I1
tp824
g12
I00
S'\x00\x00\x00\x00\x00\x00\x00\x00'
p825
tp826
baa(lp827
g2
(g3
(I0
tp828
g5
tp829
Rp830
(I1
(I1
tp831
g12
I00
S'W\xa8i\xec\x1b=r?'
p832
tp833
bag2
(g3
(I0
tp834
g5
tp835
Rp836
(I1
(I1
tp837
g12
I00
S'Y\xa8i\xec\x1b=r?'
p838
tp839
bag2
(g3
(I0
tp840
g5
tp841
Rp842
(I1
(I1
tp843
g12
I00
S'\x00\x00\x00\x00\x00\x00\x00\x00'
p844
tp845
baa(lp846
g2
(g3
(I0
tp847
g5
tp848
Rp849
(I1
(I1
tp850
g12
I00
S'&I\x00\x1ek\xffq?'
p851
tp852
bag2
(g3
(I0
tp853
g5
tp854
Rp855
(I1
(I1
tp856
g12
I00
S'(I\x00\x1ek\xffq?'
p857
tp858
bag2
(g3
(I0
tp859
g5
tp860
Rp861
(I1
(I1
tp862
g12
I00
S'\x00\x00\x00\x00\x00\x00\x00\x00'
p863
tp864
baa(lp865
g2
(g3
(I0
tp866
g5
tp867
Rp868
(I1
(I1
tp869
g12
I00
S'\xeb9B\xb1JKr?'
p870
tp871
bag2
(g3
(I0
tp872
g5
tp873
Rp874
(I1
(I1
tp875
g12
I00
S'\xed9B\xb1JKr?'
p876
tp877
bag2
(g3
(I0
tp878
g5
tp879
Rp880
(I1
(I1
tp881
g12
I00
S'\x00\x00\x00\x00\x00\x00\x00\x00'
p882
tp883
baa(lp884
g2
(g3
(I0
tp885
g5
tp886
Rp887
(I1
(I1
tp888
g12
I00
S'\x9a\xaa\x84J\xb2\x9dr?'
p889
tp890
bag2
(g3
(I0
tp891
g5
tp892
Rp893
(I1
(I1
tp894
g12
I00
S'\x9c\xaa\x84J\xb2\x9dr?'
p895
tp896
bag2
(g3
(I0
tp897
g5
tp898
Rp899
(I1
(I1
tp900
g12
I00
S'\x00\x00\x00\x00\x00\x00\x00\x00'
p901
tp902
baa(lp903
g2
(g3
(I0
tp904
g5
tp905
Rp906
(I1
(I1
tp907
g12
I00
S'?"\xb4m\x98\xcaq?'
p908
tp909
bag2
(g3
(I0
tp910
g5
tp911
Rp912
(I1
(I1
tp913
g12
I00
S'A"\xb4m\x98\xcaq?'
p914
tp915
bag2
(g3
(I0
tp916
g5
tp917
Rp918
(I1
(I1
tp919
g12
I00
S'\x00\x00\x00\x00\x00\x00\x00\x00'
p920
tp921
baa(lp922
g2
(g3
(I0
tp923
g5
tp924
Rp925
(I1
(I1
tp926
g12
I00
S'\xa0\xe4k\x18\xd2Br?'
p927
tp928
bag2
(g3
(I0
tp929
g5
tp930
Rp931
(I1
(I1
tp932
g12
I00
S'\xa2\xe4k\x18\xd2Br?'
p933
tp934
bag2
(g3
(I0
tp935
g5
tp936
Rp937
(I1
(I1
tp938
g12
I00
S'\x00\x00\x00\x00\x00\x00\x00\x00'
p939
tp940
baa(lp941
g2
(g3
(I0
tp942
g5
tp943
Rp944
(I1
(I1
tp945
g12
I00
S'\xf6\x92\xa6B`\x8ar?'
p946
tp947
bag2
(g3
(I0
tp948
g5
tp949
Rp950
(I1
(I1
tp951
g12
I00
S'\xf9\x92\xa6B`\x8ar?'
p952
tp953
bag2
(g3
(I0
tp954
g5
tp955
Rp956
(I1
(I1
tp957
g12
I00
S'\x00\x00\x00\x00\x00\x00\x00\x00'
p958
tp959
baa(lp960
g2
(g3
(I0
tp961
g5
tp962
Rp963
(I1
(I1
tp964
g12
I00
S'3\x1f\xd0\xa9k\xbcr?'
p965
tp966
bag2
(g3
(I0
tp967
g5
tp968
Rp969
(I1
(I1
tp970
g12
I00
S'7\x1f\xd0\xa9k\xbcr?'
p971
tp972
bag2
(g3
(I0
tp973
g5
tp974
Rp975
(I1
(I1
tp976
g12
I00
S'\x00\x00\x00\x00\x00\x00\x00\x00'
p977
tp978
baa(lp979
g2
(g3
(I0
tp980
g5
tp981
Rp982
(I1
(I1
tp983
g12
I00
S'f\xe0\x89t\xf0\xecr?'
p984
tp985
bag2
(g3
(I0
tp986
g5
tp987
Rp988
(I1
(I1
tp989
g12
I00
S'j\xe0\x89t\xf0\xecr?'
p990
tp991
bag2
(g3
(I0
tp992
g5
tp993
Rp994
(I1
(I1
tp995
g12
I00
S'\x00\x00\x00\x00\x00\x00\x00\x00'
p996
tp997
baa(lp998
g2
(g3
(I0
tp999
g5
tp1000
Rp1001
(I1
(I1
tp1002
g12
I00
S'\xcb\xc3\xa9\x7f\xe6ur?'
p1003
tp1004
bag2
(g3
(I0
tp1005
g5
tp1006
Rp1007
(I1
(I1
tp1008
g12
I00
S'\xd0\xc3\xa9\x7f\xe6ur?'
p1009
tp1010
bag2
(g3
(I0
tp1011
g5
tp1012
Rp1013
(I1
(I1
tp1014
g12
I00
S'\x00\x00\x00\x00\x00\x00\x00\x00'
p1015
tp1016
baa(lp1017
g2
(g3
(I0
tp1018
g5
tp1019
Rp1020
(I1
(I1
tp1021
g12
I00
S'\x15\xfa\xfb+\x1e\xaer?'
p1022
tp1023
bag2
(g3
(I0
tp1024
g5
tp1025
Rp1026
(I1
(I1
tp1027
g12
I00
S'\x1a\xfa\xfb+\x1e\xaer?'
p1028
tp1029
bag2
(g3
(I0
tp1030
g5
tp1031
Rp1032
(I1
(I1
tp1033
g12
I00
S'\x00\x00\x00\x00\x00\x00\x00\x00'
p1034
tp1035
baa(lp1036
g2
(g3
(I0
tp1037
g5
tp1038
Rp1039
(I1
(I1
tp1040
g12
I00
S'M\xda\x95\xfd1\xc5r?'
p1041
tp1042
bag2
(g3
(I0
tp1043
g5
tp1044
Rp1045
(I1
(I1
tp1046
g12
I00
S'Q\xda\x95\xfd1\xc5r?'
p1047
tp1048
bag2
(g3
(I0
tp1049
g5
tp1050
Rp1051
(I1
(I1
tp1052
g12
I00
S'\x00\x00\x00\x00\x00\x00\x00\x00'
p1053
tp1054
baa(lp1055
g2
(g3
(I0
tp1056
g5
tp1057
Rp1058
(I1
(I1
tp1059
g12
I00
S'\xc6\xc9\xcb\xde\t\xf3r?'
p1060
tp1061
bag2
(g3
(I0
tp1062
g5
tp1063
Rp1064
(I1
(I1
tp1065
g12
I00
S'\xca\xc9\xcb\xde\t\xf3r?'
p1066
tp1067
bag2
(g3
(I0
tp1068
g5
tp1069
Rp1070
(I1
(I1
tp1071
g12
I00
S'\x00\x00\x00\x00\x00\x00\x00\x00'
p1072
tp1073
baa(lp1074
g2
(g3
(I0
tp1075
g5
tp1076
Rp1077
(I1
(I1
tp1078
g12
I00
S'\xd5\x7fM\xa2\xe0\xf4r?'
p1079
tp1080
bag2
(g3
(I0
tp1081
g5
tp1082
Rp1083
(I1
(I1
tp1084
g12
I00
S'\xda\x7fM\xa2\xe0\xf4r?'
p1085
tp1086
bag2
(g3
(I0
tp1087
g5
tp1088
Rp1089
(I1
(I1
tp1090
g12
I00
S'\x00\x00\x00\x00\x00\x00\x00\x00'
p1091
tp1092
baa(lp1093
g2
(g3
(I0
tp1094
g5
tp1095
Rp1096
(I1
(I1
tp1097
g12
I00
S'\xa5\xac\xd82\xfc\x03r?'
p1098
tp1099
bag2
(g3
(I0
tp1100
g5
tp1101
Rp1102
(I1
(I1
tp1103
g12
I00
S'\xab\xac\xd82\xfc\x03r?'
p1104
tp1105
bag2
(g3
(I0
tp1106
g5
tp1107
Rp1108
(I1
(I1
tp1109
g12
I00
S'\x00\x00\x00\x00\x00\x00\x00\x00'
p1110
tp1111
baa(lp1112
g2
(g3
(I0
tp1113
g5
tp1114
Rp1115
(I1
(I1
tp1116
g12
I00
S'\xb7\xfb=%\xd6[o?'
p1117
tp1118
bag2
(g3
(I0
tp1119
g5
tp1120
Rp1121
(I1
(I1
tp1122
g12
I00
S'\xc2\xfb=%\xd6[o?'
p1123
tp1124
bag2
(g3
(I0
tp1125
g5
tp1126
Rp1127
(I1
(I1
tp1128
g12
I00
S'\x00\x00\x00\x00\x00\x00\x00\x00'
p1129
tp1130
baa(lp1131
g2
(g3
(I0
tp1132
g5
tp1133
Rp1134
(I1
(I1
tp1135
g12
I00
S'}n \x07Y\xb4r?'
p1136
tp1137
bag2
(g3
(I0
tp1138
g5
tp1139
Rp1140
(I1
(I1
tp1141
g12
I00
S'\x83n \x07Y\xb4r?'
p1142
tp1143
bag2
(g3
(I0
tp1144
g5
tp1145
Rp1146
(I1
(I1
tp1147
g12
I00
S'\x00\x00\x00\x00\x00\x00\x00\x00'
p1148
tp1149
baa(lp1150
g2
(g3
(I0
tp1151
g5
tp1152
Rp1153
(I1
(I1
tp1154
g12
I00
S'\xe9\xb2\x08\xdf\x96\xc9r?'
p1155
tp1156
bag2
(g3
(I0
tp1157
g5
tp1158
Rp1159
(I1
(I1
tp1160
g12
I00
S'\xee\xb2\x08\xdf\x96\xc9r?'
p1161
tp1162
bag2
(g3
(I0
tp1163
g5
tp1164
Rp1165
(I1
(I1
tp1166
g12
I00
S'\x00\x00\x00\x00\x00\x00\x00\x00'
p1167
tp1168
baa(lp1169
g2
(g3
(I0
tp1170
g5
tp1171
Rp1172
(I1
(I1
tp1173
g12
I00
S'T\xe6\x089;^r?'
p1174
tp1175
bag2
(g3
(I0
tp1176
g5
tp1177
Rp1178
(I1
(I1
tp1179
g12
I00
S'Y\xe6\x089;^r?'
p1180
tp1181
bag2
(g3
(I0
tp1182
g5
tp1183
Rp1184
(I1
(I1
tp1185
g12
I00
S'\x00\x00\x00\x00\x00\x00\x00\x00'
p1186
tp1187
baa(lp1188
g2
(g3
(I0
tp1189
g5
tp1190
Rp1191
(I1
(I1
tp1192
g12
I00
S'eJ?\xc8\x98\x9dr?'
p1193
tp1194
bag2
(g3
(I0
tp1195
g5
tp1196
Rp1197
(I1
(I1
tp1198
g12
I00
S'iJ?\xc8\x98\x9dr?'
p1199
tp1200
bag2
(g3
(I0
tp1201
g5
tp1202
Rp1203
(I1
(I1
tp1204
g12
I00
S'\x00\x00\x00\x00\x00\x00\x00\x00'
p1205
tp1206
baa(lp1207
g2
(g3
(I0
tp1208
g5
tp1209
Rp1210
(I1
(I1
tp1211
g12
I00
S'\xfe\xf0\x1b\x08/\xe4o?'
p1212
tp1213
bag2
(g3
(I0
tp1214
g5
tp1215
Rp1216
(I1
(I1
tp1217
g12
I00
S'\t\xf1\x1b\x08/\xe4o?'
p1218
tp1219
bag2
(g3
(I0
tp1220
g5
tp1221
Rp1222
(I1
(I1
tp1223
g12
I00
S'\x00\x00\x00\x00\x00\x00\x00\x00'
p1224
tp1225
baa(lp1226
g2
(g3
(I0
tp1227
g5
tp1228
Rp1229
(I1
(I1
tp1230
g12
I00
S'\x1f\xe0\xb2\xfd\x9d\xe8r?'
p1231
tp1232
bag2
(g3
(I0
tp1233
g5
tp1234
Rp1235
(I1
(I1
tp1236
g12
I00
S'%\xe0\xb2\xfd\x9d\xe8r?'
p1237
tp1238
bag2
(g3
(I0
tp1239
g5
tp1240
Rp1241
(I1
(I1
tp1242
g12
I00
S'\x00\x00\x00\x00\x00\x00\x00\x00'
p1243
tp1244
baa(lp1245
g2
(g3
(I0
tp1246
g5
tp1247
Rp1248
(I1
(I1
tp1249
g12
I00
S'\x98\xb1\xf0L\xbd\x0bs?'
p1250
tp1251
bag2
(g3
(I0
tp1252
g5
tp1253
Rp1254
(I1
(I1
tp1255
g12
I00
S'\x9d\xb1\xf0L\xbd\x0bs?'
p1256
tp1257
bag2
(g3
(I0
tp1258
g5
tp1259
Rp1260
(I1
(I1
tp1261
g12
I00
S'\x00\x00\x00\x00\x00\x00\x00\x00'
p1262
tp1263
baa(lp1264
g2
(g3
(I0
tp1265
g5
tp1266
Rp1267
(I1
(I1
tp1268
g12
I00
S'\x9bj\x10[I\x16s?'
p1269
tp1270
bag2
(g3
(I0
tp1271
g5
tp1272
Rp1273
(I1
(I1
tp1274
g12
I00
S'\x9fj\x10[I\x16s?'
p1275
tp1276
bag2
(g3
(I0
tp1277
g5
tp1278
Rp1279
(I1
(I1
tp1280
g12
I00
S'\x00\x00\x00\x00\x00\x00\x00\x00'
p1281
tp1282
baa(lp1283
g2
(g3
(I0
tp1284
g5
tp1285
Rp1286
(I1
(I1
tp1287
g12
I00
S'o\x99\x83\xc7s+s?'
p1288
tp1289
bag2
(g3
(I0
tp1290
g5
tp1291
Rp1292
(I1
(I1
tp1293
g12
I00
S't\x99\x83\xc7s+s?'
p1294
tp1295
bag2
(g3
(I0
tp1296
g5
tp1297
Rp1298
(I1
(I1
tp1299
g12
I00
S'\x00\x00\x00\x00\x00\x00\x00\x00'
p1300
tp1301
baa(lp1302
g2
(g3
(I0
tp1303
g5
tp1304
Rp1305
(I1
(I1
tp1306
g12
I00
S'\xd6 \xf4\xbe\xc8\x1bs?'
p1307
tp1308
bag2
(g3
(I0
tp1309
g5
tp1310
Rp1311
(I1
(I1
tp1312
g12
I00
S'\xdc \xf4\xbe\xc8\x1bs?'
p1313
tp1314
bag2
(g3
(I0
tp1315
g5
tp1316
Rp1317
(I1
(I1
tp1318
g12
I00
S'\x00\x00\x00\x00\x00\x00\x00\x00'
p1319
tp1320
baa(lp1321
g2
(g3
(I0
tp1322
g5
tp1323
Rp1324
(I1
(I1
tp1325
g12
I00
S'\x0cJ\x9b\xe13%p?'
p1326
tp1327
bag2
(g3
(I0
tp1328
g5
tp1329
Rp1330
(I1
(I1
tp1331
g12
I00
S'\x12J\x9b\xe13%p?'
p1332
tp1333
bag2
(g3
(I0
tp1334
g5
tp1335
Rp1336
(I1
(I1
tp1337
g12
I00
S'\x00\x00\x00\x00\x00\x00\x00\x00'
p1338
tp1339
baa(lp1340
g2
(g3
(I0
tp1341
g5
tp1342
Rp1343
(I1
(I1
tp1344
g12
I00
S"vH\xf8J\xbe's?"
p1345
tp1346
bag2
(g3
(I0
tp1347
g5
tp1348
Rp1349
(I1
(I1
tp1350
g12
I00
S"|H\xf8J\xbe's?"
p1351
tp1352
bag2
(g3
(I0
tp1353
g5
tp1354
Rp1355
(I1
(I1
tp1356
g12
I00
S'\x00\x00\x00\x00\x00\x00\x00\x00'
p1357
tp1358
baa(lp1359
g2
(g3
(I0
tp1360
g5
tp1361
Rp1362
(I1
(I1
tp1363
g12
I00
S'\xefz\x0b\x0c\x9a)s?'
p1364
tp1365
bag2
(g3
(I0
tp1366
g5
tp1367
Rp1368
(I1
(I1
tp1369
g12
I00
S'\xf5z\x0b\x0c\x9a)s?'
p1370
tp1371
bag2
(g3
(I0
tp1372
g5
tp1373
Rp1374
(I1
(I1
tp1375
g12
I00
S'\x00\x00\x00\x00\x00\x00\x00\x00'
p1376
tp1377
baa(lp1378
g2
(g3
(I0
tp1379
g5
tp1380
Rp1381
(I1
(I1
tp1382
g12
I00
S'\\]Cp\xe3*s?'
p1383
tp1384
bag2
(g3
(I0
tp1385
g5
tp1386
Rp1387
(I1
(I1
tp1388
g12
I00
S'a]Cp\xe3*s?'
p1389
tp1390
bag2
(g3
(I0
tp1391
g5
tp1392
Rp1393
(I1
(I1
tp1394
g12
I00
S'\x00\x00\x00\x00\x00\x00\x00\x00'
p1395
tp1396
baa(lp1397
g2
(g3
(I0
tp1398
g5
tp1399
Rp1400
(I1
(I1
tp1401
g12
I00
S't\xf9$\xc0\xb49s?'
p1402
tp1403
bag2
(g3
(I0
tp1404
g5
tp1405
Rp1406
(I1
(I1
tp1407
g12
I00
S'x\xf9$\xc0\xb49s?'
p1408
tp1409
bag2
(g3
(I0
tp1410
g5
tp1411
Rp1412
(I1
(I1
tp1413
g12
I00
S'\x00\x00\x00\x00\x00\x00\x00\x00'
p1414
tp1415
baa(lp1416
g2
(g3
(I0
tp1417
g5
tp1418
Rp1419
(I1
(I1
tp1420
g12
I00
S'/Tr6\x0cDs?'
p1421
tp1422
bag2
(g3
(I0
tp1423
g5
tp1424
Rp1425
(I1
(I1
tp1426
g12
I00
S'4Tr6\x0cDs?'
p1427
tp1428
bag2
(g3
(I0
tp1429
g5
tp1430
Rp1431
(I1
(I1
tp1432
g12
I00
S'\x00\x00\x00\x00\x00\x00\x00\x00'
p1433
tp1434
baa(lp1435
g2
(g3
(I0
tp1436
g5
tp1437
Rp1438
(I1
(I1
tp1439
g12
I00
S'e\xb3-\xe2\xc0,s?'
p1440
tp1441
bag2
(g3
(I0
tp1442
g5
tp1443
Rp1444
(I1
(I1
tp1445
g12
I00
S'j\xb3-\xe2\xc0,s?'
p1446
tp1447
bag2
(g3
(I0
tp1448
g5
tp1449
Rp1450
(I1
(I1
tp1451
g12
I00
S'\x00\x00\x00\x00\x00\x00\x00\x00'
p1452
tp1453
baa(lp1454
g2
(g3
(I0
tp1455
g5
tp1456
Rp1457
(I1
(I1
tp1458
g12
I00
S'\x92\x16<\x8a\xb7\x1cs?'
p1459
tp1460
bag2
(g3
(I0
tp1461
g5
tp1462
Rp1463
(I1
(I1
tp1464
g12
I00
S'\x96\x16<\x8a\xb7\x1cs?'
p1465
tp1466
bag2
(g3
(I0
tp1467
g5
tp1468
Rp1469
(I1
(I1
tp1470
g12
I00
S'\x00\x00\x00\x00\x00\x00\x00\x00'
p1471
tp1472
baa(lp1473
g2
(g3
(I0
tp1474
g5
tp1475
Rp1476
(I1
(I1
tp1477
g12
I00
S'\xd23\x85\x8a\xe1\x95r?'
p1478
tp1479
bag2
(g3
(I0
tp1480
g5
tp1481
Rp1482
(I1
(I1
tp1483
g12
I00
S'\xd73\x85\x8a\xe1\x95r?'
p1484
tp1485
bag2
(g3
(I0
tp1486
g5
tp1487
Rp1488
(I1
(I1
tp1489
g12
I00
S'\x00\x00\x00\x00\x00\x00\x00\x00'
p1490
tp1491
baa(lp1492
g2
(g3
(I0
tp1493
g5
tp1494
Rp1495
(I1
(I1
tp1496
g12
I00
S'\xee\xf5\xa8ac\xb4r?'
p1497
tp1498
bag2
(g3
(I0
tp1499
g5
tp1500
Rp1501
(I1
(I1
tp1502
g12
I00
S'\xf2\xf5\xa8ac\xb4r?'
p1503
tp1504
bag2
(g3
(I0
tp1505
g5
tp1506
Rp1507
(I1
(I1
tp1508
g12
I00
S'\x00\x00\x00\x00\x00\x00\x00\x00'
p1509
tp1510
baa(lp1511
g2
(g3
(I0
tp1512
g5
tp1513
Rp1514
(I1
(I1
tp1515
g12
I00
S'>\x15\xba \x8b\xc9r?'
p1516
tp1517
bag2
(g3
(I0
tp1518
g5
tp1519
Rp1520
(I1
(I1
tp1521
g12
I00
S'C\x15\xba \x8b\xc9r?'
p1522
tp1523
bag2
(g3
(I0
tp1524
g5
tp1525
Rp1526
(I1
(I1
tp1527
g12
I00
S'\x00\x00\x00\x00\x00\x00\x00\x00'
p1528
tp1529
baa(lp1530
g2
(g3
(I0
tp1531
g5
tp1532
Rp1533
(I1
(I1
tp1534
g12
I00
S'\x84\x0b\x0c\xcc\x11\xf6r?'
p1535
tp1536
bag2
(g3
(I0
tp1537
g5
tp1538
Rp1539
(I1
(I1
tp1540
g12
I00
S'\x8a\x0b\x0c\xcc\x11\xf6r?'
p1541
tp1542
bag2
(g3
(I0
tp1543
g5
tp1544
Rp1545
(I1
(I1
tp1546
g12
I00
S'\x00\x00\x00\x00\x00\x00\x00\x00'
p1547
tp1548
baa(lp1549
g2
(g3
(I0
tp1550
g5
tp1551
Rp1552
(I1
(I1
tp1553
g12
I00
S'\xb1\x1e\x8e6\xf8\xf6r?'
p1554
tp1555
bag2
(g3
(I0
tp1556
g5
tp1557
Rp1558
(I1
(I1
tp1559
g12
I00
S'\xb8\x1e\x8e6\xf8\xf6r?'
p1560
tp1561
bag2
(g3
(I0
tp1562
g5
tp1563
Rp1564
(I1
(I1
tp1565
g12
I00
S'\x00\x00\x00\x00\x00\x00\x00\x00'
p1566
tp1567
baa(lp1568
g2
(g3
(I0
tp1569
g5
tp1570
Rp1571
(I1
(I1
tp1572
g12
I00
S'\xb7\x0e\xe4?\xde\x07s?'
p1573
tp1574
bag2
(g3
(I0
tp1575
g5
tp1576
Rp1577
(I1
(I1
tp1578
g12
I00
S'\xbe\x0e\xe4?\xde\x07s?'
p1579
tp1580
bag2
(g3
(I0
tp1581
g5
tp1582
Rp1583
(I1
(I1
tp1584
g12
I00
S'\x00\x00\x00\x00\x00\x00\x00\x00'
p1585
tp1586
baa(lp1587
g2
(g3
(I0
tp1588
g5
tp1589
Rp1590
(I1
(I1
tp1591
g12
I00
S'B\x1f?e\x83\x87r?'
p1592
tp1593
bag2
(g3
(I0
tp1594
g5
tp1595
Rp1596
(I1
(I1
tp1597
g12
I00
S'G\x1f?e\x83\x87r?'
p1598
tp1599
bag2
(g3
(I0
tp1600
g5
tp1601
Rp1602
(I1
(I1
tp1603
g12
I00
S'\x00\x00\x00\x00\x00\x00\x00\x00'
p1604
tp1605
baa(lp1606
g2
(g3
(I0
tp1607
g5
tp1608
Rp1609
(I1
(I1
tp1610
g12
I00
S'\xf3\xaaT\xec^\xb9r?'
p1611
tp1612
bag2
(g3
(I0
tp1613
g5
tp1614
Rp1615
(I1
(I1
tp1616
g12
I00
S'\xf9\xaaT\xec^\xb9r?'
p1617
tp1618
bag2
(g3
(I0
tp1619
g5
tp1620
Rp1621
(I1
(I1
tp1622
g12
I00
S'\x00\x00\x00\x00\x00\x00\x00\x00'
p1623
tp1624
baa(lp1625
g2
(g3
(I0
tp1626
g5
tp1627
Rp1628
(I1
(I1
tp1629
g12
I00
S'\xcb\x94\xc5\x8cm\xcbr?'
p1630
tp1631
bag2
(g3
(I0
tp1632
g5
tp1633
Rp1634
(I1
(I1
tp1635
g12
I00
S'\xd1\x94\xc5\x8cm\xcbr?'
p1636
tp1637
bag2
(g3
(I0
tp1638
g5
tp1639
Rp1640
(I1
(I1
tp1641
g12
I00
S'\x00\x00\x00\x00\x00\x00\x00\x00'
p1642
tp1643
baa(lp1644
g2
(g3
(I0
tp1645
g5
tp1646
Rp1647
(I1
(I1
tp1648
g12
I00
S'd\xfb$\x7fg\xf5r?'
p1649
tp1650
bag2
(g3
(I0
tp1651
g5
tp1652
Rp1653
(I1
(I1
tp1654
g12
I00
S'j\xfb$\x7fg\xf5r?'
p1655
tp1656
bag2
(g3
(I0
tp1657
g5
tp1658
Rp1659
(I1
(I1
tp1660
g12
I00
S'\x00\x00\x00\x00\x00\x00\x00\x00'
p1661
tp1662
baa(lp1663
g2
(g3
(I0
tp1664
g5
tp1665
Rp1666
(I1
(I1
tp1667
g12
I00
S'\xc2\t\xcb \xd5\x1ap?'
p1668
tp1669
bag2
(g3
(I0
tp1670
g5
tp1671
Rp1672
(I1
(I1
tp1673
g12
I00
S'\xc8\t\xcb \xd5\x1ap?'
p1674
tp1675
bag2
(g3
(I0
tp1676
g5
tp1677
Rp1678
(I1
(I1
tp1679
g12
I00
S'\x00\x00\x00\x00\x00\x00\x00\x00'
p1680
tp1681
baa(lp1682
g2
(g3
(I0
tp1683
g5
tp1684
Rp1685
(I1
(I1
tp1686
g12
I00
S'W\x08\x06r&\xfer?'
p1687
tp1688
bag2
(g3
(I0
tp1689
g5
tp1690
Rp1691
(I1
(I1
tp1692
g12
I00
S']\x08\x06r&\xfer?'
p1693
tp1694
bag2
(g3
(I0
tp1695
g5
tp1696
Rp1697
(I1
(I1
tp1698
g12
I00
S'\x00\x00\x00\x00\x00\x00\x00\x00'
p1699
tp1700
baa(lp1701
g2
(g3
(I0
tp1702
g5
tp1703
Rp1704
(I1
(I1
tp1705
g12
I00
S'~&\x90q\x80\x17s?'
p1706
tp1707
bag2
(g3
(I0
tp1708
g5
tp1709
Rp1710
(I1
(I1
tp1711
g12
I00
S'\x84&\x90q\x80\x17s?'
p1712
tp1713
bag2
(g3
(I0
tp1714
g5
tp1715
Rp1716
(I1
(I1
tp1717
g12
I00
S'\x00\x00\x00\x00\x00\x00\x00\x00'
p1718
tp1719
baa(lp1720
g2
(g3
(I0
tp1721
g5
tp1722
Rp1723
(I1
(I1
tp1724
g12
I00
S'\xf3n\x93\x80*\x07s?'
p1725
tp1726
bag2
(g3
(I0
tp1727
g5
tp1728
Rp1729
(I1
(I1
tp1730
g12
I00
S'\xf9n\x93\x80*\x07s?'
p1731
tp1732
bag2
(g3
(I0
tp1733
g5
tp1734
Rp1735
(I1
(I1
tp1736
g12
I00
S'\x00\x00\x00\x00\x00\x00\x00\x00'
p1737
tp1738
baa(lp1739
g2
(g3
(I0
tp1740
g5
tp1741
Rp1742
(I1
(I1
tp1743
g12
I00
S'\xf4\xd5d\xc4\xde}r?'
p1744
tp1745
bag2
(g3
(I0
tp1746
g5
tp1747
Rp1748
(I1
(I1
tp1749
g12
I00
S'\xfa\xd5d\xc4\xde}r?'
p1750
tp1751
bag2
(g3
(I0
tp1752
g5
tp1753
Rp1754
(I1
(I1
tp1755
g12
I00
S'\x00\x00\x00\x00\x00\x00\x00\x00'
p1756
tp1757
baa(lp1758
g2
(g3
(I0
tp1759
g5
tp1760
Rp1761
(I1
(I1
tp1762
g12
I00
S'\xab\xb6\xf9ty\xb9r?'
p1763
tp1764
bag2
(g3
(I0
tp1765
g5
tp1766
Rp1767
(I1
(I1
tp1768
g12
I00
S'\xb2\xb6\xf9ty\xb9r?'
p1769
tp1770
bag2
(g3
(I0
tp1771
g5
tp1772
Rp1773
(I1
(I1
tp1774
g12
I00
S'\x00\x00\x00\x00\x00\x00\x00\x00'
p1775
tp1776
baa(lp1777
g2
(g3
(I0
tp1778
g5
tp1779
Rp1780
(I1
(I1
tp1781
g12
I00
S'\xec\xf4\xf0\x97\xf4\xbcr?'
p1782
tp1783
bag2
(g3
(I0
tp1784
g5
tp1785
Rp1786
(I1
(I1
tp1787
g12
I00
S'\xf3\xf4\xf0\x97\xf4\xbcr?'
p1788
tp1789
bag2
(g3
(I0
tp1790
g5
tp1791
Rp1792
(I1
(I1
tp1793
g12
I00
S'\x00\x00\x00\x00\x00\x00\x00\x00'
p1794
tp1795
baa(lp1796
g2
(g3
(I0
tp1797
g5
tp1798
Rp1799
(I1
(I1
tp1800
g12
I00
S'\x82#P\xa1]\xb9r?'
p1801
tp1802
bag2
(g3
(I0
tp1803
g5
tp1804
Rp1805
(I1
(I1
tp1806
g12
I00
S'\x89#P\xa1]\xb9r?'
p1807
tp1808
bag2
(g3
(I0
tp1809
g5
tp1810
Rp1811
(I1
(I1
tp1812
g12
I00
S'\x00\x00\x00\x00\x00\x00\x00\x00'
p1813
tp1814
baa(lp1815
g2
(g3
(I0
tp1816
g5
tp1817
Rp1818
(I1
(I1
tp1819
g12
I00
S'\xf4\x16\xc6\x99\xa1\xbaq?'
p1820
tp1821
bag2
(g3
(I0
tp1822
g5
tp1823
Rp1824
(I1
(I1
tp1825
g12
I00
S'\xfc\x16\xc6\x99\xa1\xbaq?'
p1826
tp1827
bag2
(g3
(I0
tp1828
g5
tp1829
Rp1830
(I1
(I1
tp1831
g12
I00
S'\x00\x00\x00\x00\x00\x00\x00\x00'
p1832
tp1833
baa(lp1834
g2
(g3
(I0
tp1835
g5
tp1836
Rp1837
(I1
(I1
tp1838
g12
I00
S'\x00\xe2\xdb\xed\x0e\x88q?'
p1839
tp1840
bag2
(g3
(I0
tp1841
g5
tp1842
Rp1843
(I1
(I1
tp1844
g12
I00
S'\x08\xe2\xdb\xed\x0e\x88q?'
p1845
tp1846
bag2
(g3
(I0
tp1847
g5
tp1848
Rp1849
(I1
(I1
tp1850
g12
I00
S'\x00\x00\x00\x00\x00\x00\x00\x00'
p1851
tp1852
baa(lp1853
g2
(g3
(I0
tp1854
g5
tp1855
Rp1856
(I1
(I1
tp1857
g12
I00
S'\xc3\x17\x94\x02\xaf\xd7q?'
p1858
tp1859
bag2
(g3
(I0
tp1860
g5
tp1861
Rp1862
(I1
(I1
tp1863
g12
I00
S'\xcb\x17\x94\x02\xaf\xd7q?'
p1864
tp1865
bag2
(g3
(I0
tp1866
g5
tp1867
Rp1868
(I1
(I1
tp1869
g12
I00
S'\x00\x00\x00\x00\x00\x00\x00\x00'
p1870
tp1871
baa(lp1872
g2
(g3
(I0
tp1873
g5
tp1874
Rp1875
(I1
(I1
tp1876
g12
I00
S'\x11\x9d\xd0G\x08/r?'
p1877
tp1878
bag2
(g3
(I0
tp1879
g5
tp1880
Rp1881
(I1
(I1
tp1882
g12
I00
S'\x18\x9d\xd0G\x08/r?'
p1883
tp1884
bag2
(g3
(I0
tp1885
g5
tp1886
Rp1887
(I1
(I1
tp1888
g12
I00
S'\x00\x00\x00\x00\x00\x00\x00\x00'
p1889
tp1890
baa(lp1891
g2
(g3
(I0
tp1892
g5
tp1893
Rp1894
(I1
(I1
tp1895
g12
I00
S'\xcf\xd2\x9a\xd5\x8e@r?'
p1896
tp1897
bag2
(g3
(I0
tp1898
g5
tp1899
Rp1900
(I1
(I1
tp1901
g12
I00
S'\xd6\xd2\x9a\xd5\x8e@r?'
p1902
tp1903
bag2
(g3
(I0
tp1904
g5
tp1905
Rp1906
(I1
(I1
tp1907
g12
I00
S'\x00\x00\x00\x00\x00\x00\x00\x00'
p1908
tp1909
baa(lp1910
g2
(g3
(I0
tp1911
g5
tp1912
Rp1913
(I1
(I1
tp1914
g12
I00
S'p6\x8a\xaa\xb6qr?'
p1915
tp1916
bag2
(g3
(I0
tp1917
g5
tp1918
Rp1919
(I1
(I1
tp1920
g12
I00
S'v6\x8a\xaa\xb6qr?'
p1921
tp1922
bag2
(g3
(I0
tp1923
g5
tp1924
Rp1925
(I1
(I1
tp1926
g12
I00
S'\x00\x00\x00\x00\x00\x00\x00\x00'
p1927
tp1928
baa(lp1929
g2
(g3
(I0
tp1930
g5
tp1931
Rp1932
(I1
(I1
tp1933
g12
I00
S'\xbfko"\x8cwq?'
p1934
tp1935
bag2
(g3
(I0
tp1936
g5
tp1937
Rp1938
(I1
(I1
tp1939
g12
I00
S'\xc5ko"\x8cwq?'
p1940
tp1941
bag2
(g3
(I0
tp1942
g5
tp1943
Rp1944
(I1
(I1
tp1945
g12
I00
S'\x00\x00\x00\x00\x00\x00\x00\x00'
p1946
tp1947
baa(lp1948
g2
(g3
(I0
tp1949
g5
tp1950
Rp1951
(I1
(I1
tp1952
g12
I00
S'\xea=\xe2\xc4\xd8\xe1q?'
p1953
tp1954
bag2
(g3
(I0
tp1955
g5
tp1956
Rp1957
(I1
(I1
tp1958
g12
I00
S'\xf0=\xe2\xc4\xd8\xe1q?'
p1959
tp1960
bag2
(g3
(I0
tp1961
g5
tp1962
Rp1963
(I1
(I1
tp1964
g12
I00
S'\x00\x00\x00\x00\x00\x00\x00\x00'
p1965
tp1966
baa(lp1967
g2
(g3
(I0
tp1968
g5
tp1969
Rp1970
(I1
(I1
tp1971
g12
I00
S'\xc6\x9ff="\xfcq?'
p1972
tp1973
bag2
(g3
(I0
tp1974
g5
tp1975
Rp1976
(I1
(I1
tp1977
g12
I00
S'\xcb\x9ff="\xfcq?'
p1978
tp1979
bag2
(g3
(I0
tp1980
g5
tp1981
Rp1982
(I1
(I1
tp1983
g12
I00
S'\x00\x00\x00\x00\x00\x00\x00\x00'
p1984
tp1985
baa(lp1986
g2
(g3
(I0
tp1987
g5
tp1988
Rp1989
(I1
(I1
tp1990
g12
I00
S'\x86b\x92\xcb\x13\x95q?'
p1991
tp1992
bag2
(g3
(I0
tp1993
g5
tp1994
Rp1995
(I1
(I1
tp1996
g12
I00
S'\x8cb\x92\xcb\x13\x95q?'
p1997
tp1998
bag2
(g3
(I0
tp1999
g5
tp2000
Rp2001
(I1
(I1
tp2002
g12
I00
S'\x00\x00\x00\x00\x00\x00\x00\x00'
p2003
tp2004
baa(lp2005
g2
(g3
(I0
tp2006
g5
tp2007
Rp2008
(I1
(I1
tp2009
g12
I00
S'\xaf\xff\xfe\x7f\x9f\xc0q?'
p2010
tp2011
bag2
(g3
(I0
tp2012
g5
tp2013
Rp2014
(I1
(I1
tp2015
g12
I00
S'\xb5\xff\xfe\x7f\x9f\xc0q?'
p2016
tp2017
bag2
(g3
(I0
tp2018
g5
tp2019
Rp2020
(I1
(I1
tp2021
g12
I00
S'\x00\x00\x00\x00\x00\x00\x00\x00'
p2022
tp2023
baa(lp2024
g2
(g3
(I0
tp2025
g5
tp2026
Rp2027
(I1
(I1
tp2028
g12
I00
S'\xe8\xd3\xebOt*u?'
p2029
tp2030
bag2
(g3
(I0
tp2031
g5
tp2032
Rp2033
(I1
(I1
tp2034
g12
I00
S'\xee\xd3\xebOt*u?'
p2035
tp2036
bag2
(g3
(I0
tp2037
g5
tp2038
Rp2039
(I1
(I1
tp2040
g12
I00
S'\x00\x00\x00\x00\x00\x00\x00\x00'
p2041
tp2042
baa(lp2043
g2027
ag2033
ag2039
aa(lp2044
g2
(g3
(I0
tp2045
g5
tp2046
Rp2047
(I1
(I1
tp2048
g12
I00
S'\x84vO\xadPqx?'
p2049
tp2050
bag2
(g3
(I0
tp2051
g5
tp2052
Rp2053
(I1
(I1
tp2054
g12
I00
S'\x8avO\xadPqx?'
p2055
tp2056
bag2
(g3
(I0
tp2057
g5
tp2058
Rp2059
(I1
(I1
tp2060
g12
I00
S'\x00\x00\x00\x00\x00\x00\x00\x00'
p2061
tp2062
baa(lp2063
g2
(g3
(I0
tp2064
g5
tp2065
Rp2066
(I1
(I1
tp2067
g12
I00
S'\\\xf8\xb2\n-\xb8{?'
p2068
tp2069
bag2
(g3
(I0
tp2070
g5
tp2071
Rp2072
(I1
(I1
tp2073
g12
I00
S'b\xf8\xb2\n-\xb8{?'
p2074
tp2075
bag2
(g3
(I0
tp2076
g5
tp2077
Rp2078
(I1
(I1
tp2079
g12
I00
S'\x00\x00\x00\x00\x00\x00\x00\x00'
p2080
tp2081
baa(lp2082
g2
(g3
(I0
tp2083
g5
tp2084
Rp2085
(I1
(I1
tp2086
g12
I00
S'4z\x16h\t\xff~?'
p2087
tp2088
bag2
(g3
(I0
tp2089
g5
tp2090
Rp2091
(I1
(I1
tp2092
g12
I00
S':z\x16h\t\xff~?'
p2093
tp2094
bag2
(g3
(I0
tp2095
g5
tp2096
Rp2097
(I1
(I1
tp2098
g12
I00
S'\x00\x00\x00\x00\x00\x00\x00\x00'
p2099
tp2100
baa(lp2101
g2
(g3
(I0
tp2102
g5
tp2103
Rp2104
(I1
(I1
tp2105
g12
I00
S'\x06\xfe\xbc\xe2\xf2"\x81?'
p2106
tp2107
bag2
(g3
(I0
tp2108
g5
tp2109
Rp2110
(I1
(I1
tp2111
g12
I00
S'\t\xfe\xbc\xe2\xf2"\x81?'
p2112
tp2113
bag2
(g3
(I0
tp2114
g5
tp2115
Rp2116
(I1
(I1
tp2117
g12
I00
S'\x00\x00\x00\x00\x00\x00\x00\x00'
p2118
tp2119
baa(lp2120
g2
(g3
(I0
tp2121
g5
tp2122
Rp2123
(I1
(I1
tp2124
g12
I00
S'\xf2\xben\x11a\xc6\x82?'
p2125
tp2126
bag2
(g3
(I0
tp2127
g5
tp2128
Rp2129
(I1
(I1
tp2130
g12
I00
S'\xf5\xben\x11a\xc6\x82?'
p2131
tp2132
bag2
(g3
(I0
tp2133
g5
tp2134
Rp2135
(I1
(I1
tp2136
g12
I00
S'\x00\x00\x00\x00\x00\x00\x00\x00'
p2137
tp2138
baa(lp2139
g2
(g3
(I0
tp2140
g5
tp2141
Rp2142
(I1
(I1
tp2143
g12
I00
S'@\x90 @\xcfi\x84?'
p2144
tp2145
bag2
(g3
(I0
tp2146
g5
tp2147
Rp2148
(I1
(I1
tp2149
g12
I00
S'C\x90 @\xcfi\x84?'
p2150
tp2151
bag2
(g3
(I0
tp2152
g5
tp2153
Rp2154
(I1
(I1
tp2155
g12
I00
S'\x00\x00\x00\x00\x00\x00\x00\x00'
p2156
tp2157
baa(lp2158
g2
(g3
(I0
tp2159
g5
tp2160
Rp2161
(I1
(I1
tp2162
g12
I00
S',Q\xd2n=\r\x86?'
p2163
tp2164
bag2
(g3
(I0
tp2165
g5
tp2166
Rp2167
(I1
(I1
tp2168
g12
I00
S'/Q\xd2n=\r\x86?'
p2169
tp2170
bag2
(g3
(I0
tp2171
g5
tp2172
Rp2173
(I1
(I1
tp2174
g12
I00
S'\x00\x00\x00\x00\x00\x00\x00\x00'
p2175
tp2176
baa(lp2177
g2
(g3
(I0
tp2178
g5
tp2179
Rp2180
(I1
(I1
tp2181
g12
I00
S'\x18\x12\x84\x9d\xab\xb0\x87?'
p2182
tp2183
bag2
(g3
(I0
tp2184
g5
tp2185
Rp2186
(I1
(I1
tp2187
g12
I00
S'\x1b\x12\x84\x9d\xab\xb0\x87?'
p2188
tp2189
bag2
(g3
(I0
tp2190
g5
tp2191
Rp2192
(I1
(I1
tp2193
g12
I00
S'\x00\x00\x00\x00\x00\x00\x00\x00'
p2194
tp2195
baa(lp2196
g2
(g3
(I0
tp2197
g5
tp2198
Rp2199
(I1
(I1
tp2200
g12
I00
S'\x04\xd35\xcc\x19T\x89?'
p2201
tp2202
bag2
(g3
(I0
tp2203
g5
tp2204
Rp2205
(I1
(I1
tp2206
g12
I00
S'\x07\xd35\xcc\x19T\x89?'
p2207
tp2208
bag2
(g3
(I0
tp2209
g5
tp2210
Rp2211
(I1
(I1
tp2212
g12
I00
S'\x00\x00\x00\x00\x00\x00\x00\x00'
p2213
tp2214
baa(lp2215
g2
(g3
(I0
tp2216
g5
tp2217
Rp2218
(I1
(I1
tp2219
g12
I00
S'\xf0\x93\xe7\xfa\x87\xf7\x8a?'
p2220
tp2221
bag2
(g3
(I0
tp2222
g5
tp2223
Rp2224
(I1
(I1
tp2225
g12
I00
S'\xf3\x93\xe7\xfa\x87\xf7\x8a?'
p2226
tp2227
bag2
(g3
(I0
tp2228
g5
tp2229
Rp2230
(I1
(I1
tp2231
g12
I00
S'\x00\x00\x00\x00\x00\x00\x00\x00'
p2232
tp2233
baa(lp2234
g2
(g3
(I0
tp2235
g5
tp2236
Rp2237
(I1
(I1
tp2238
g12
I00
S'>e\x99)\xf6\x9a\x8c?'
p2239
tp2240
bag2
(g3
(I0
tp2241
g5
tp2242
Rp2243
(I1
(I1
tp2244
g12
I00
S'Ae\x99)\xf6\x9a\x8c?'
p2245
tp2246
bag2
(g3
(I0
tp2247
g5
tp2248
Rp2249
(I1
(I1
tp2250
g12
I00
S'\x00\x00\x00\x00\x00\x00\x00\x00'
p2251
tp2252
baa(lp2253
g2
(g3
(I0
tp2254
g5
tp2255
Rp2256
(I1
(I1
tp2257
g12
I00
S'\x16\xe7\xfc\x86\xd2\xe1\x8f?'
p2258
tp2259
bag2
(g3
(I0
tp2260
g5
tp2261
Rp2262
(I1
(I1
tp2263
g12
I00
S'\x19\xe7\xfc\x86\xd2\xe1\x8f?'
p2264
tp2265
bag2
(g3
(I0
tp2266
g5
tp2267
Rp2268
(I1
(I1
tp2269
g12
I00
S'\x00\x00\x00\x00\x00\x00\x00\x00'
p2270
tp2271
baa(lp2272
g2256
ag2262
ag2268
aa(lp2273
g2
(g3
(I0
tp2274
g5
tp2275
Rp2276
(I1
(I1
tp2277
g12
I00
S'\x01T\xd7Z\xa0\xc2\x90?'
p2278
tp2279
bag2
(g3
(I0
tp2280
g5
tp2281
Rp2282
(I1
(I1
tp2283
g12
I00
S'\x02T\xd7Z\xa0\xc2\x90?'
p2284
tp2285
bag2
(g3
(I0
tp2286
g5
tp2287
Rp2288
(I1
(I1
tp2289
g12
I00
S'\x00\x00\x00\x00\x00\x00\x00\x00'
p2290
tp2291
baa(lp2292
g2
(g3
(I0
tp2293
g5
tp2294
Rp2295
(I1
(I1
tp2296
g12
I00
S'\x1e\x1d\x89\x89\x0ef\x92?'
p2297
tp2298
bag2
(g3
(I0
tp2299
g5
tp2300
Rp2301
(I1
(I1
tp2302
g12
I00
S'\x1f\x1d\x89\x89\x0ef\x92?'
p2303
tp2304
bag2
(g3
(I0
tp2305
g5
tp2306
Rp2307
(I1
(I1
tp2308
g12
I00
S'\x00\x00\x00\x00\x00\x00\x00\x00'
p2309
tp2310
baa(lp2311
g2295
ag2301
ag2307
aa(lp2312
g2
(g3
(I0
tp2313
g5
tp2314
Rp2315
(I1
(I1
tp2316
g12
I00
S'\x94\xfd\xe1\xa0\xc57\x93?'
p2317
tp2318
bag2
(g3
(I0
tp2319
g5
tp2320
Rp2321
(I1
(I1
tp2322
g12
I00
S'\x95\xfd\xe1\xa0\xc57\x93?'
p2323
tp2324
bag2
(g3
(I0
tp2325
g5
tp2326
Rp2327
(I1
(I1
tp2328
g12
I00
S'\x00\x00\x00\x00\x00\x00\x00\x00'
p2329
tp2330
baa(lp2331
g2
(g3
(I0
tp2332
g5
tp2333
Rp2334
(I1
(I1
tp2335
g12
I00
S'\n\xde:\xb8|\t\x94?'
p2336
tp2337
bag2
(g3
(I0
tp2338
g5
tp2339
Rp2340
(I1
(I1
tp2341
g12
I00
S'\x0b\xde:\xb8|\t\x94?'
p2342
tp2343
bag2
(g3
(I0
tp2344
g5
tp2345
Rp2346
(I1
(I1
tp2347
g12
I00
S'\x00\x00\x00\x00\x00\x00\x00\x00'
p2348
tp2349
baa(lp2350
g2
(g3
(I0
tp2351
g5
tp2352
Rp2353
(I1
(I1
tp2354
g12
I00
S'\x80\xbe\x93\xcf3\xdb\x94?'
p2355
tp2356
bag2
(g3
(I0
tp2357
g5
tp2358
Rp2359
(I1
(I1
tp2360
g12
I00
S'\x81\xbe\x93\xcf3\xdb\x94?'
p2361
tp2362
bag2
(g3
(I0
tp2363
g5
tp2364
Rp2365
(I1
(I1
tp2366
g12
I00
S'\x00\x00\x00\x00\x00\x00\x00\x00'
p2367
tp2368
baa(lp2369
g2
(g3
(I0
tp2370
g5
tp2371
Rp2372
(I1
(I1
tp2373
g12
I00
S'\x9d\x87E\xfe\xa1~\x96?'
p2374
tp2375
bag2
(g3
(I0
tp2376
g5
tp2377
Rp2378
(I1
(I1
tp2379
g12
I00
S'\x9e\x87E\xfe\xa1~\x96?'
p2380
tp2381
bag2
(g3
(I0
tp2382
g5
tp2383
Rp2384
(I1
(I1
tp2385
g12
I00
S'\x00\x00\x00\x00\x00\x00\x00\x00'
p2386
tp2387
baa(lp2388
g2372
ag2378
ag2384
aa(lp2389
g2
(g3
(I0
tp2390
g5
tp2391
Rp2392
(I1
(I1
tp2393
g12
I00
S'\x13h\x9e\x15YP\x97?'
p2394
tp2395
bag2
(g3
(I0
tp2396
g5
tp2397
Rp2398
(I1
(I1
tp2399
g12
I00
S'\x14h\x9e\x15YP\x97?'
p2400
tp2401
bag2
(g3
(I0
tp2402
g5
tp2403
Rp2404
(I1
(I1
tp2405
g12
I00
S'\x00\x00\x00\x00\x00\x00\x00\x00'
p2406
tp2407
baa(lp2408
g2
(g3
(I0
tp2409
g5
tp2410
Rp2411
(I1
(I1
tp2412
g12
I00
S'\x89H\xf7,\x10"\x98?'
p2413
tp2414
bag2
(g3
(I0
tp2415
g5
tp2416
Rp2417
(I1
(I1
tp2418
g12
I00
S'\x8aH\xf7,\x10"\x98?'
p2419
tp2420
bag2
(g3
(I0
tp2421
g5
tp2422
Rp2423
(I1
(I1
tp2424
g12
I00
S'\x00\x00\x00\x00\x00\x00\x00\x00'
p2425
tp2426
baa(lp2427
g2
(g3
(I0
tp2428
g5
tp2429
Rp2430
(I1
(I1
tp2431
g12
I00
S'\xff(PD\xc7\xf3\x98?'
p2432
tp2433
bag2
(g3
(I0
tp2434
g5
tp2435
Rp2436
(I1
(I1
tp2437
g12
I00
S'\x00)PD\xc7\xf3\x98?'
p2438
tp2439
bag2
(g3
(I0
tp2440
g5
tp2441
Rp2442
(I1
(I1
tp2443
g12
I00
S'\x00\x00\x00\x00\x00\x00\x00\x00'
p2444
tp2445
baa(lp2446
g2
(g3
(I0
tp2447
g5
tp2448
Rp2449
(I1
(I1
tp2450
g12
I00
S'u\t\xa9[~\xc5\x99?'
p2451
tp2452
bag2
(g3
(I0
tp2453
g5
tp2454
Rp2455
(I1
(I1
tp2456
g12
I00
S'v\t\xa9[~\xc5\x99?'
p2457
tp2458
bag2
(g3
(I0
tp2459
g5
tp2460
Rp2461
(I1
(I1
tp2462
g12
I00
S'\x00\x00\x00\x00\x00\x00\x00\x00'
p2463
tp2464
baa(lp2465
g2
(g3
(I0
tp2466
g5
tp2467
Rp2468
(I1
(I1
tp2469
g12
I00
S'\x1c\xf2\x01s5\x97\x9a?'
p2470
tp2471
bag2
(g3
(I0
tp2472
g5
tp2473
Rp2474
(I1
(I1
tp2475
g12
I00
S'\x1d\xf2\x01s5\x97\x9a?'
p2476
tp2477
bag2
(g3
(I0
tp2478
g5
tp2479
Rp2480
(I1
(I1
tp2481
g12
I00
S'\x00\x00\x00\x00\x00\x00\x00\x00'
p2482
tp2483
baa(lp2484
g2
(g3
(I0
tp2485
g5
tp2486
Rp2487
(I1
(I1
tp2488
g12
I00
S'\x92\xd2Z\x8a\xech\x9b?'
p2489
tp2490
bag2
(g3
(I0
tp2491
g5
tp2492
Rp2493
(I1
(I1
tp2494
g12
I00
S'\x93\xd2Z\x8a\xech\x9b?'
p2495
tp2496
bag2
(g3
(I0
tp2497
g5
tp2498
Rp2499
(I1
(I1
tp2500
g12
I00
S'\x00\x00\x00\x00\x00\x00\x00\x00'
p2501
tp2502
baa(lp2503
g2
(g3
(I0
tp2504
g5
tp2505
Rp2506
(I1
(I1
tp2507
g12
I00
S'\x08\xb3\xb3\xa1\xa3:\x9c?'
p2508
tp2509
bag2
(g3
(I0
tp2510
g5
tp2511
Rp2512
(I1
(I1
tp2513
g12
I00
S'\t\xb3\xb3\xa1\xa3:\x9c?'
p2514
tp2515
bag2
(g3
(I0
tp2516
g5
tp2517
Rp2518
(I1
(I1
tp2519
g12
I00
S'\x00\x00\x00\x00\x00\x00\x00\x00'
p2520
tp2521
baa(lp2522
g2
(g3
(I0
tp2523
g5
tp2524
Rp2525
(I1
(I1
tp2526
g12
I00
S'~\x93\x0c\xb9Z\x0c\x9d?'
p2527
tp2528
bag2
(g3
(I0
tp2529
g5
tp2530
Rp2531
(I1
(I1
tp2532
g12
I00
S'\x7f\x93\x0c\xb9Z\x0c\x9d?'
p2533
tp2534
bag2
(g3
(I0
tp2535
g5
tp2536
Rp2537
(I1
(I1
tp2538
g12
I00
S'\x00\x00\x00\x00\x00\x00\x00\x00'
p2539
tp2540
baa(lp2541
g2
(g3
(I0
tp2542
g5
tp2543
Rp2544
(I1
(I1
tp2545
g12
I00
S'\xf4se\xd0\x11\xde\x9d?'
p2546
tp2547
bag2
(g3
(I0
tp2548
g5
tp2549
Rp2550
(I1
(I1
tp2551
g12
I00
S'\xf5se\xd0\x11\xde\x9d?'
p2552
tp2553
bag2
(g3
(I0
tp2554
g5
tp2555
Rp2556
(I1
(I1
tp2557
g12
I00
S'\x00\x00\x00\x00\x00\x00\x00\x00'
p2558
tp2559
baa(lp2560
g2
(g3
(I0
tp2561
g5
tp2562
Rp2563
(I1
(I1
tp2564
g12
I00
S'\x98K\xf20W\xe0\x8c?'
p2565
tp2566
bag2
(g3
(I0
tp2567
g5
tp2568
Rp2569
(I1
(I1
tp2570
g12
I00
S'\x98K\xf20W\xe0\x8c?'
p2571
tp2572
bag2
(g3
(I0
tp2573
g5
tp2574
Rp2575
(I1
(I1
tp2576
g12
I00
S'\x00\x00\x00\x00\x00\x00\x00\x00'
p2577
tp2578
baa(lp2579
g2
(g3
(I0
tp2580
g5
tp2581
Rp2582
(I1
(I1
tp2583
g12
I00
S'\xbd\x81}L\xdd\x8d\x83?'
p2584
tp2585
bag2
(g3
(I0
tp2586
g5
tp2587
Rp2588
(I1
(I1
tp2589
g12
I00
S'\xbd\x81}L\xdd\x8d\x83?'
p2590
tp2591
bag2
(g3
(I0
tp2592
g5
tp2593
Rp2594
(I1
(I1
tp2595
g12
I00
S'\x00\x00\x00\x00\x00\x00\x00\x00'
p2596
tp2597
baa(lp2598
g2
(g3
(I0
tp2599
g5
tp2600
Rp2601
(I1
(I1
tp2602
g12
I00
S'\xa9B/{K1\x85?'
p2603
tp2604
bag2
(g3
(I0
tp2605
g5
tp2606
Rp2607
(I1
(I1
tp2608
g12
I00
S'\xa9B/{K1\x85?'
p2609
tp2610
bag2
(g3
(I0
tp2611
g5
tp2612
Rp2613
(I1
(I1
tp2614
g12
I00
S'\x00\x00\x00\x00\x00\x00\x00\x00'
p2615
tp2616
baa(lp2617
g2
(g3
(I0
tp2618
g5
tp2619
Rp2620
(I1
(I1
tp2621
g12
I00
S'\xca\x97\xb3\x92\xa8\xe1\x80?'
p2622
tp2623
bag2
(g3
(I0
tp2624
g5
tp2625
Rp2626
(I1
(I1
tp2627
g12
I00
S'\xca\x97\xb3\x92\xa8\xe1\x80?'
p2628
tp2629
bag2
(g3
(I0
tp2630
g5
tp2631
Rp2632
(I1
(I1
tp2633
g12
I00
S'\x00\x00\x00\x00\x00\x00\x00\x00'
p2634
tp2635
baa(lp2636
g2
(g3
(I0
tp2637
g5
tp2638
Rp2639
(I1
(I1
tp2640
g12
I00
S'\xde;\xf6\x95|<|?'
p2641
tp2642
bag2
(g3
(I0
tp2643
g5
tp2644
Rp2645
(I1
(I1
tp2646
g12
I00
S'\xde;\xf6\x95|<|?'
p2647
tp2648
bag2
(g3
(I0
tp2649
g5
tp2650
Rp2651
(I1
(I1
tp2652
g12
I00
S'\x00\x00\x00\x00\x00\x00\x00\x00'
p2653
tp2654
baa(lp2655
g2
(g3
(I0
tp2656
g5
tp2657
Rp2658
(I1
(I1
tp2659
g12
I00
S'\xf0<Y\xe8\x81\xacy?'
p2660
tp2661
bag2
(g3
(I0
tp2662
g5
tp2663
Rp2664
(I1
(I1
tp2665
g12
I00
S'\xf0<Y\xe8\x81\xacy?'
p2666
tp2667
bag2
(g3
(I0
tp2668
g5
tp2669
Rp2670
(I1
(I1
tp2671
g12
I00
S'\x00\x00\x00\x00\x00\x00\x00\x00'
p2672
tp2673
baa(lp2674
g2
(g3
(I0
tp2675
g5
tp2676
Rp2677
(I1
(I1
tp2678
g12
I00
S'\x9es>\x0e\xfdcw?'
p2679
tp2680
bag2
(g3
(I0
tp2681
g5
tp2682
Rp2683
(I1
(I1
tp2684
g12
I00
S'\x9es>\x0e\xfdcw?'
p2685
tp2686
bag2
(g3
(I0
tp2687
g5
tp2688
Rp2689
(I1
(I1
tp2690
g12
I00
S'\x00\x00\x00\x00\x00\x00\x00\x00'
p2691
tp2692
baa(lp2693
g2
(g3
(I0
tp2694
g5
tp2695
Rp2696
(I1
(I1
tp2697
g12
I00
S'\x9c\xe5\x012`~v?'
p2698
tp2699
bag2
(g3
(I0
tp2700
g5
tp2701
Rp2702
(I1
(I1
tp2703
g12
I00
S'\x9c\xe5\x012`~v?'
p2704
tp2705
bag2
(g3
(I0
tp2706
g5
tp2707
Rp2708
(I1
(I1
tp2709
g12
I00
S'\x00\x00\x00\x00\x00\x00\x00\x00'
p2710
tp2711
baa(lp2712
g2
(g3
(I0
tp2713
g5
tp2714
Rp2715
(I1
(I1
tp2716
g12
I00
S'\xaa,x\xf1\x11\xe0u?'
p2717
tp2718
bag2
(g3
(I0
tp2719
g5
tp2720
Rp2721
(I1
(I1
tp2722
g12
I00
S'\xaa,x\xf1\x11\xe0u?'
p2723
tp2724
bag2
(g3
(I0
tp2725
g5
tp2726
Rp2727
(I1
(I1
tp2728
g12
I00
S'\x00\x00\x00\x00\x00\x00\x00\x00'
p2729
tp2730
baa(lp2731
g2
(g3
(I0
tp2732
g5
tp2733
Rp2734
(I1
(I1
tp2735
g12
I00
S'\x87\xf5cp.qu?'
p2736
tp2737
bag2
(g3
(I0
tp2738
g5
tp2739
Rp2740
(I1
(I1
tp2741
g12
I00
S'\x87\xf5cp.qu?'
p2742
tp2743
bag2
(g3
(I0
tp2744
g5
tp2745
Rp2746
(I1
(I1
tp2747
g12
I00
S'\x00\x00\x00\x00\x00\x00\x00\x00'
p2748
tp2749
baa(lp2750
g2
(g3
(I0
tp2751
g5
tp2752
Rp2753
(I1
(I1
tp2754
g12
I00
S'\x90\xc6\x87ZV"u?'
p2755
tp2756
bag2
(g3
(I0
tp2757
g5
tp2758
Rp2759
(I1
(I1
tp2760
g12
I00
S'\x90\xc6\x87ZV"u?'
p2761
tp2762
bag2
(g3
(I0
tp2763
g5
tp2764
Rp2765
(I1
(I1
tp2766
g12
I00
S'\x00\x00\x00\x00\x00\x00\x00\x00'
p2767
tp2768
baa(lp2769
g2
(g3
(I0
tp2770
g5
tp2771
Rp2772
(I1
(I1
tp2773
g12
I00
S'\xe9\xb7lb\x8d\xe9t?'
p2774
tp2775
bag2
(g3
(I0
tp2776
g5
tp2777
Rp2778
(I1
(I1
tp2779
g12
I00
S'\xe9\xb7lb\x8d\xe9t?'
p2780
tp2781
bag2
(g3
(I0
tp2782
g5
tp2783
Rp2784
(I1
(I1
tp2785
g12
I00
S'\x00\x00\x00\x00\x00\x00\x00\x00'
p2786
tp2787
baa(lp2788
g2
(g3
(I0
tp2789
g5
tp2790
Rp2791
(I1
(I1
tp2792
g12
I00
S'\xbc\xeb\x0fa\t\xc0t?'
p2793
tp2794
bag2
(g3
(I0
tp2795
g5
tp2796
Rp2797
(I1
(I1
tp2798
g12
I00
S'\xbc\xeb\x0fa\t\xc0t?'
p2799
tp2800
bag2
(g3
(I0
tp2801
g5
tp2802
Rp2803
(I1
(I1
tp2804
g12
I00
S'\x00\x00\x00\x00\x00\x00\x00\x00'
p2805
tp2806
baa(lp2807
g2
(g3
(I0
tp2808
g5
tp2809
Rp2810
(I1
(I1
tp2811
g12
I00
S'Sb\x0e\x8a*\xa1t?'
p2812
tp2813
bag2
(g3
(I0
tp2814
g5
tp2815
Rp2816
(I1
(I1
tp2817
g12
I00
S'Sb\x0e\x8a*\xa1t?'
p2818
tp2819
bag2
(g3
(I0
tp2820
g5
tp2821
Rp2822
(I1
(I1
tp2823
g12
I00
S'\x00\x00\x00\x00\x00\x00\x00\x00'
p2824
tp2825
baa(lp2826
g2
(g3
(I0
tp2827
g5
tp2828
Rp2829
(I1
(I1
tp2830
g12
I00
S'\xcf\xd4\xeb\xf7\xc2\x89t?'
p2831
tp2832
bag2
(g3
(I0
tp2833
g5
tp2834
Rp2835
(I1
(I1
tp2836
g12
I00
S'\xd0\xd4\xeb\xf7\xc2\x89t?'
p2837
tp2838
bag2
(g3
(I0
tp2839
g5
tp2840
Rp2841
(I1
(I1
tp2842
g12
I00
S'\x00\x00\x00\x00\x00\x00\x00\x00'
p2843
tp2844
baa(lp2845
g2
(g3
(I0
tp2846
g5
tp2847
Rp2848
(I1
(I1
tp2849
g12
I00
S'~\xed\xc4\x83\x9fwt?'
p2850
tp2851
bag2
(g3
(I0
tp2852
g5
tp2853
Rp2854
(I1
(I1
tp2855
g12
I00
S'~\xed\xc4\x83\x9fwt?'
p2856
tp2857
bag2
(g3
(I0
tp2858
g5
tp2859
Rp2860
(I1
(I1
tp2861
g12
I00
S'\x00\x00\x00\x00\x00\x00\x00\x00'
p2862
tp2863
baa(lp2864
g2
(g3
(I0
tp2865
g5
tp2866
Rp2867
(I1
(I1
tp2868
g12
I00
S'A\xe6\xff\xc8\xa1\x16q?'
p2869
tp2870
bag2
(g3
(I0
tp2871
g5
tp2872
Rp2873
(I1
(I1
tp2874
g12
I00
S'@\xe6\xff\xc8\xa1\x16q?'
p2875
tp2876
bag2
(g3
(I0
tp2877
g5
tp2878
Rp2879
(I1
(I1
tp2880
g12
I00
S'\x00\x00\x00\x00\x00\x00\x00\x00'
p2881
tp2882
baa(lp2883
g2
(g3
(I0
tp2884
g5
tp2885
Rp2886
(I1
(I1
tp2887
g12
I00
S'\x19hc&~]t?'
p2888
tp2889
bag2
(g3
(I0
tp2890
g5
tp2891
Rp2892
(I1
(I1
tp2893
g12
I00
S'\x18hc&~]t?'
p2894
tp2895
bag2
(g3
(I0
tp2896
g5
tp2897
Rp2898
(I1
(I1
tp2899
g12
I00
S'\x00\x00\x00\x00\x00\x00\x00\x00'
p2900
tp2901
baa(lp2902
g2
(g3
(I0
tp2903
g5
tp2904
Rp2905
(I1
(I1
tp2906
g12
I00
S'\x9fcV\x8f\xb1St?'
p2907
tp2908
bag2
(g3
(I0
tp2909
g5
tp2910
Rp2911
(I1
(I1
tp2912
g12
I00
S'\x9ecV\x8f\xb1St?'
p2913
tp2914
bag2
(g3
(I0
tp2915
g5
tp2916
Rp2917
(I1
(I1
tp2918
g12
I00
S'\x00\x00\x00\x00\x00\x00\x00\x00'
p2919
tp2920
baa(lp2921
g2
(g3
(I0
tp2922
g5
tp2923
Rp2924
(I1
(I1
tp2925
g12
I00
S'}\xa5\xbbrNKt?'
p2926
tp2927
bag2
(g3
(I0
tp2928
g5
tp2929
Rp2930
(I1
(I1
tp2931
g12
I00
S'|\xa5\xbbrNKt?'
p2932
tp2933
bag2
(g3
(I0
tp2934
g5
tp2935
Rp2936
(I1
(I1
tp2937
g12
I00
S'\x00\x00\x00\x00\x00\x00\x00\x00'
p2938
tp2939
baa(lp2940
g2
(g3
(I0
tp2941
g5
tp2942
Rp2943
(I1
(I1
tp2944
g12
I00
S'6\xf2\xe19\x8a\xf6p?'
p2945
tp2946
bag2
(g3
(I0
tp2947
g5
tp2948
Rp2949
(I1
(I1
tp2950
g12
I00
S'6\xf2\xe19\x8a\xf6p?'
p2951
tp2952
bag2
(g3
(I0
tp2953
g5
tp2954
Rp2955
(I1
(I1
tp2956
g12
I00
S'\x00\x00\x00\x00\x00\x00\x00\x00'
p2957
tp2958
baa(lp2959
g2
(g3
(I0
tp2960
g5
tp2961
Rp2962
(I1
(I1
tp2963
g12
I00
S'\x0etE\x97f=t?'
p2964
tp2965
bag2
(g3
(I0
tp2966
g5
tp2967
Rp2968
(I1
(I1
tp2969
g12
I00
S'\x0etE\x97f=t?'
p2970
tp2971
bag2
(g3
(I0
tp2972
g5
tp2973
Rp2974
(I1
(I1
tp2975
g12
I00
S'\x00\x00\x00\x00\x00\x00\x00\x00'
p2976
tp2977
baa(lp2978
g2
(g3
(I0
tp2979
g5
tp2980
Rp2981
(I1
(I1
tp2982
g12
I00
S'\xae+&\x92}7t?'
p2983
tp2984
bag2
(g3
(I0
tp2985
g5
tp2986
Rp2987
(I1
(I1
tp2988
g12
I00
S'\xae+&\x92}7t?'
p2989
tp2990
bag2
(g3
(I0
tp2991
g5
tp2992
Rp2993
(I1
(I1
tp2994
g12
I00
S'\x00\x00\x00\x00\x00\x00\x00\x00'
p2995
tp2996
baa(lp2997
g2
(g3
(I0
tp2998
g5
tp2999
Rp3000
(I1
(I1
tp3001
g12
I00
S'\xb6m\xa6\xc8@\xa9s?'
p3002
tp3003
bag2
(g3
(I0
tp3004
g5
tp3005
Rp3006
(I1
(I1
tp3007
g12
I00
S'\xb6m\xa6\xc8@\xa9s?'
p3008
tp3009
bag2
(g3
(I0
tp3010
g5
tp3011
Rp3012
(I1
(I1
tp3013
g12
I00
S'\x00\x00\x00\x00\x00\x00\x00\x00'
p3014
tp3015
baa(lp3016
g2
(g3
(I0
tp3017
g5
tp3018
Rp3019
(I1
(I1
tp3020
g12
I00
S'\xef\x95`\xb5\x07\xces?'
p3021
tp3022
bag2
(g3
(I0
tp3023
g5
tp3024
Rp3025
(I1
(I1
tp3026
g12
I00
S'\xef\x95`\xb5\x07\xces?'
p3027
tp3028
bag2
(g3
(I0
tp3029
g5
tp3030
Rp3031
(I1
(I1
tp3032
g12
I00
S'\x00\x00\x00\x00\x00\x00\x00\x00'
p3033
tp3034
baa(lp3035
g2
(g3
(I0
tp3036
g5
tp3037
Rp3038
(I1
(I1
tp3039
g12
I00
S'V\xfb\xbb\x85\xda\xe6s?'
p3040
tp3041
bag2
(g3
(I0
tp3042
g5
tp3043
Rp3044
(I1
(I1
tp3045
g12
I00
S'X\xfb\xbb\x85\xda\xe6s?'
p3046
tp3047
bag2
(g3
(I0
tp3048
g5
tp3049
Rp3050
(I1
(I1
tp3051
g12
I00
S'\x00\x00\x00\x00\x00\x00\x00\x00'
p3052
tp3053
baa(lp3054
g2
(g3
(I0
tp3055
g5
tp3056
Rp3057
(I1
(I1
tp3058
g12
I00
S'\xdd\x9bQ\x04@\xf7s?'
p3059
tp3060
bag2
(g3
(I0
tp3061
g5
tp3062
Rp3063
(I1
(I1
tp3064
g12
I00
S'\xde\x9bQ\x04@\xf7s?'
p3065
tp3066
bag2
(g3
(I0
tp3067
g5
tp3068
Rp3069
(I1
(I1
tp3070
g12
I00
S'\x00\x00\x00\x00\x00\x00\x00\x00'
p3071
tp3072
baa(lp3073
g2
(g3
(I0
tp3074
g5
tp3075
Rp3076
(I1
(I1
tp3077
g12
I00
S'\xab2j&\xc1\x01t?'
p3078
tp3079
bag2
(g3
(I0
tp3080
g5
tp3081
Rp3082
(I1
(I1
tp3083
g12
I00
S'\xac2j&\xc1\x01t?'
p3084
tp3085
bag2
(g3
(I0
tp3086
g5
tp3087
Rp3088
(I1
(I1
tp3089
g12
I00
S'\x00\x00\x00\x00\x00\x00\x00\x00'
p3090
tp3091
baa(lp3092
g2
(g3
(I0
tp3093
g5
tp3094
Rp3095
(I1
(I1
tp3096
g12
I00
S';^`Y-\x08t?'
p3097
tp3098
bag2
(g3
(I0
tp3099
g5
tp3100
Rp3101
(I1
(I1
tp3102
g12
I00
S'<^`Y-\x08t?'
p3103
tp3104
bag2
(g3
(I0
tp3105
g5
tp3106
Rp3107
(I1
(I1
tp3108
g12
I00
S'\x00\x00\x00\x00\x00\x00\x00\x00'
p3109
tp3110
baa(lp3111
g2
(g3
(I0
tp3112
g5
tp3113
Rp3114
(I1
(I1
tp3115
g12
I00
S'\xafxe"\xce\x0bt?'
p3116
tp3117
bag2
(g3
(I0
tp3118
g5
tp3119
Rp3120
(I1
(I1
tp3121
g12
I00
S'\xb2xe"\xce\x0bt?'
p3122
tp3123
bag2
(g3
(I0
tp3124
g5
tp3125
Rp3126
(I1
(I1
tp3127
g12
I00
S'\x00\x00\x00\x00\x00\x00\x00\x00'
p3128
tp3129
baa(lp3130
g2
(g3
(I0
tp3131
g5
tp3132
Rp3133
(I1
(I1
tp3134
g12
I00
S'L\x1b\xc9\x7f\xaaRw?'
p3135
tp3136
bag2
(g3
(I0
tp3137
g5
tp3138
Rp3139
(I1
(I1
tp3140
g12
I00
S'N\x1b\xc9\x7f\xaaRw?'
p3141
tp3142
bag2
(g3
(I0
tp3143
g5
tp3144
Rp3145
(I1
(I1
tp3146
g12
I00
S'\x00\x00\x00\x00\x00\x00\x00\x00'
p3147
tp3148
baa(lp3149
g2
(g3
(I0
tp3150
g5
tp3151
Rp3152
(I1
(I1
tp3153
g12
I00
S'$\x9d,\xdd\x86\x99z?'
p3154
tp3155
bag2
(g3
(I0
tp3156
g5
tp3157
Rp3158
(I1
(I1
tp3159
g12
I00
S'&\x9d,\xdd\x86\x99z?'
p3160
tp3161
bag2
(g3
(I0
tp3162
g5
tp3163
Rp3164
(I1
(I1
tp3165
g12
I00
S'\x00\x00\x00\x00\x00\x00\x00\x00'
p3166
tp3167
baa(lp3168
g2
(g3
(I0
tp3169
g5
tp3170
Rp3171
(I1
(I1
tp3172
g12
I00
S'\xfc\x1e\x90:c\xe0}?'
p3173
tp3174
bag2
(g3
(I0
tp3175
g5
tp3176
Rp3177
(I1
(I1
tp3178
g12
I00
S'\xfe\x1e\x90:c\xe0}?'
p3179
tp3180
bag2
(g3
(I0
tp3181
g5
tp3182
Rp3183
(I1
(I1
tp3184
g12
I00
S'\x00\x00\x00\x00\x00\x00\x00\x00'
p3185
tp3186
baa(lp3187
g2
(g3
(I0
tp3188
g5
tp3189
Rp3190
(I1
(I1
tp3191
g12
I00
S'j\xd0\xf9\xcb\x9f\x93\x80?'
p3192
tp3193
bag2
(g3
(I0
tp3194
g5
tp3195
Rp3196
(I1
(I1
tp3197
g12
I00
S'k\xd0\xf9\xcb\x9f\x93\x80?'
p3198
tp3199
bag2
(g3
(I0
tp3200
g5
tp3201
Rp3202
(I1
(I1
tp3203
g12
I00
S'\x00\x00\x00\x00\x00\x00\x00\x00'
p3204
tp3205
baa(lp3206
g2
(g3
(I0
tp3207
g5
tp3208
Rp3209
(I1
(I1
tp3210
g12
I00
S'V\x91\xab\xfa\r7\x82?'
p3211
tp3212
bag2
(g3
(I0
tp3213
g5
tp3214
Rp3215
(I1
(I1
tp3216
g12
I00
S'W\x91\xab\xfa\r7\x82?'
p3217
tp3218
bag2
(g3
(I0
tp3219
g5
tp3220
Rp3221
(I1
(I1
tp3222
g12
I00
S'\x00\x00\x00\x00\x00\x00\x00\x00'
p3223
tp3224
baa(lp3225
g2
(g3
(I0
tp3226
g5
tp3227
Rp3228
(I1
(I1
tp3229
g12
I00
S'\xa4b])|\xda\x83?'
p3230
tp3231
bag2
(g3
(I0
tp3232
g5
tp3233
Rp3234
(I1
(I1
tp3235
g12
I00
S'\xa5b])|\xda\x83?'
p3236
tp3237
bag2
(g3
(I0
tp3238
g5
tp3239
Rp3240
(I1
(I1
tp3241
g12
I00
S'\x00\x00\x00\x00\x00\x00\x00\x00'
p3242
tp3243
baa(lp3244
g2
(g3
(I0
tp3245
g5
tp3246
Rp3247
(I1
(I1
tp3248
g12
I00
S'\x90#\x0fX\xea}\x85?'
p3249
tp3250
bag2
(g3
(I0
tp3251
g5
tp3252
Rp3253
(I1
(I1
tp3254
g12
I00
S'\x91#\x0fX\xea}\x85?'
p3255
tp3256
bag2
(g3
(I0
tp3257
g5
tp3258
Rp3259
(I1
(I1
tp3260
g12
I00
S'\x00\x00\x00\x00\x00\x00\x00\x00'
p3261
tp3262
baa(lp3263
g2
(g3
(I0
tp3264
g5
tp3265
Rp3266
(I1
(I1
tp3267
g12
I00
S'|\xe4\xc0\x86X!\x87?'
p3268
tp3269
bag2
(g3
(I0
tp3270
g5
tp3271
Rp3272
(I1
(I1
tp3273
g12
I00
S'}\xe4\xc0\x86X!\x87?'
p3274
tp3275
bag2
(g3
(I0
tp3276
g5
tp3277
Rp3278
(I1
(I1
tp3279
g12
I00
S'\x00\x00\x00\x00\x00\x00\x00\x00'
p3280
tp3281
baa(lp3282
g2
(g3
(I0
tp3283
g5
tp3284
Rp3285
(I1
(I1
tp3286
g12
I00
S'h\xa5r\xb5\xc6\xc4\x88?'
p3287
tp3288
bag2
(g3
(I0
tp3289
g5
tp3290
Rp3291
(I1
(I1
tp3292
g12
I00
S'i\xa5r\xb5\xc6\xc4\x88?'
p3293
tp3294
bag2
(g3
(I0
tp3295
g5
tp3296
Rp3297
(I1
(I1
tp3298
g12
I00
S'\x00\x00\x00\x00\x00\x00\x00\x00'
p3299
tp3300
baa(lp3301
g2
(g3
(I0
tp3302
g5
tp3303
Rp3304
(I1
(I1
tp3305
g12
I00
S'Tf$\xe44h\x8a?'
p3306
tp3307
bag2
(g3
(I0
tp3308
g5
tp3309
Rp3310
(I1
(I1
tp3311
g12
I00
S'Uf$\xe44h\x8a?'
p3312
tp3313
bag2
(g3
(I0
tp3314
g5
tp3315
Rp3316
(I1
(I1
tp3317
g12
I00
S'\x00\x00\x00\x00\x00\x00\x00\x00'
p3318
tp3319
baa(lp3320
g2
(g3
(I0
tp3321
g5
tp3322
Rp3323
(I1
(I1
tp3324
g12
I00
S'\xa27\xd6\x12\xa3\x0b\x8c?'
p3325
tp3326
bag2
(g3
(I0
tp3327
g5
tp3328
Rp3329
(I1
(I1
tp3330
g12
I00
S'\xa37\xd6\x12\xa3\x0b\x8c?'
p3331
tp3332
bag2
(g3
(I0
tp3333
g5
tp3334
Rp3335
(I1
(I1
tp3336
g12
I00
S'\x00\x00\x00\x00\x00\x00\x00\x00'
p3337
tp3338
baa(lp3339
g2
(g3
(I0
tp3340
g5
tp3341
Rp3342
(I1
(I1
tp3343
g12
I00
S'\x8e\xf8\x87A\x11\xaf\x8d?'
p3344
tp3345
bag2
(g3
(I0
tp3346
g5
tp3347
Rp3348
(I1
(I1
tp3349
g12
I00
S'\x8f\xf8\x87A\x11\xaf\x8d?'
p3350
tp3351
bag2
(g3
(I0
tp3352
g5
tp3353
Rp3354
(I1
(I1
tp3355
g12
I00
S'\x00\x00\x00\x00\x00\x00\x00\x00'
p3356
tp3357
baa(lp3358
g2
(g3
(I0
tp3359
g5
tp3360
Rp3361
(I1
(I1
tp3362
g12
I00
S'z\xb99p\x7fR\x8f?'
p3363
tp3364
bag2
(g3
(I0
tp3365
g5
tp3366
Rp3367
(I1
(I1
tp3368
g12
I00
S'{\xb99p\x7fR\x8f?'
p3369
tp3370
bag2
(g3
(I0
tp3371
g5
tp3372
Rp3373
(I1
(I1
tp3374
g12
I00
S'\x00\x00\x00\x00\x00\x00\x00\x00'
p3375
tp3376
baa(lp3377
g2
(g3
(I0
tp3378
g5
tp3379
Rp3380
(I1
(I1
tp3381
g12
I00
S'3\xbdu\xcf\xf6z\x90?'
p3382
tp3383
bag2
(g3
(I0
tp3384
g5
tp3385
Rp3386
(I1
(I1
tp3387
g12
I00
S'4\xbdu\xcf\xf6z\x90?'
p3388
tp3389
bag2
(g3
(I0
tp3390
g5
tp3391
Rp3392
(I1
(I1
tp3393
g12
I00
S'\x00\x00\x00\x00\x00\x00\x00\x00'
p3394
tp3395
baa(lp3396
g2
(g3
(I0
tp3397
g5
tp3398
Rp3399
(I1
(I1
tp3400
g12
I00
S'\xa9\x9d\xce\xe6\xadL\x91?'
p3401
tp3402
bag2
(g3
(I0
tp3403
g5
tp3404
Rp3405
(I1
(I1
tp3406
g12
I00
S'\xaa\x9d\xce\xe6\xadL\x91?'
p3407
tp3408
bag2
(g3
(I0
tp3409
g5
tp3410
Rp3411
(I1
(I1
tp3412
g12
I00
S'\x00\x00\x00\x00\x00\x00\x00\x00'
p3413
tp3414
baa(lp3415
g2
(g3
(I0
tp3416
g5
tp3417
Rp3418
(I1
(I1
tp3419
g12
I00
S"P\x86'\xfed\x1e\x92?"
p3420
tp3421
bag2
(g3
(I0
tp3422
g5
tp3423
Rp3424
(I1
(I1
tp3425
g12
I00
S"Q\x86'\xfed\x1e\x92?"
p3426
tp3427
bag2
(g3
(I0
tp3428
g5
tp3429
Rp3430
(I1
(I1
tp3431
g12
I00
S'\x00\x00\x00\x00\x00\x00\x00\x00'
p3432
tp3433
baa(lp3434
g2
(g3
(I0
tp3435
g5
tp3436
Rp3437
(I1
(I1
tp3438
g12
I00
S'\xc6f\x80\x15\x1c\xf0\x92?'
p3439
tp3440
bag2
(g3
(I0
tp3441
g5
tp3442
Rp3443
(I1
(I1
tp3444
g12
I00
S'\xc7f\x80\x15\x1c\xf0\x92?'
p3445
tp3446
bag2
(g3
(I0
tp3447
g5
tp3448
Rp3449
(I1
(I1
tp3450
g12
I00
S'\x00\x00\x00\x00\x00\x00\x00\x00'
p3451
tp3452
baa(lp3453
g2
(g3
(I0
tp3454
g5
tp3455
Rp3456
(I1
(I1
tp3457
g12
I00
S'<G\xd9,\xd3\xc1\x93?'
p3458
tp3459
bag2
(g3
(I0
tp3460
g5
tp3461
Rp3462
(I1
(I1
tp3463
g12
I00
S'=G\xd9,\xd3\xc1\x93?'
p3464
tp3465
bag2
(g3
(I0
tp3466
g5
tp3467
Rp3468
(I1
(I1
tp3469
g12
I00
S'\x00\x00\x00\x00\x00\x00\x00\x00'
p3470
tp3471
baa(lp3472
g2
(g3
(I0
tp3473
g5
tp3474
Rp3475
(I1
(I1
tp3476
g12
I00
S"\xb2'2D\x8a\x93\x94?"
p3477
tp3478
bag2
(g3
(I0
tp3479
g5
tp3480
Rp3481
(I1
(I1
tp3482
g12
I00
S"\xb3'2D\x8a\x93\x94?"
p3483
tp3484
bag2
(g3
(I0
tp3485
g5
tp3486
Rp3487
(I1
(I1
tp3488
g12
I00
S'\x00\x00\x00\x00\x00\x00\x00\x00'
p3489
tp3490
baa(lp3491
g2
(g3
(I0
tp3492
g5
tp3493
Rp3494
(I1
(I1
tp3495
g12
I00
S'(\x08\x8b[Ae\x95?'
p3496
tp3497
bag2
(g3
(I0
tp3498
g5
tp3499
Rp3500
(I1
(I1
tp3501
g12
I00
S')\x08\x8b[Ae\x95?'
p3502
tp3503
bag2
(g3
(I0
tp3504
g5
tp3505
Rp3506
(I1
(I1
tp3507
g12
I00
S'\x00\x00\x00\x00\x00\x00\x00\x00'
p3508
tp3509
baa(lp3510
g2
(g3
(I0
tp3511
g5
tp3512
Rp3513
(I1
(I1
tp3514
g12
I00
S'\xcf\xf0\xe3r\xf86\x96?'
p3515
tp3516
bag2
(g3
(I0
tp3517
g5
tp3518
Rp3519
(I1
(I1
tp3520
g12
I00
S'\xd0\xf0\xe3r\xf86\x96?'
p3521
tp3522
bag2
(g3
(I0
tp3523
g5
tp3524
Rp3525
(I1
(I1
tp3526
g12
I00
S'\x00\x00\x00\x00\x00\x00\x00\x00'
p3527
tp3528
baa(lp3529
g2
(g3
(I0
tp3530
g5
tp3531
Rp3532
(I1
(I1
tp3533
g12
I00
S'E\xd1<\x8a\xaf\x08\x97?'
p3534
tp3535
bag2
(g3
(I0
tp3536
g5
tp3537
Rp3538
(I1
(I1
tp3539
g12
I00
S'F\xd1<\x8a\xaf\x08\x97?'
p3540
tp3541
bag2
(g3
(I0
tp3542
g5
tp3543
Rp3544
(I1
(I1
tp3545
g12
I00
S'\x00\x00\x00\x00\x00\x00\x00\x00'
p3546
tp3547
baa(lp3548
g2
(g3
(I0
tp3549
g5
tp3550
Rp3551
(I1
(I1
tp3552
g12
I00
S'\xbb\xb1\x95\xa1f\xda\x97?'
p3553
tp3554
bag2
(g3
(I0
tp3555
g5
tp3556
Rp3557
(I1
(I1
tp3558
g12
I00
S'\xbc\xb1\x95\xa1f\xda\x97?'
p3559
tp3560
bag2
(g3
(I0
tp3561
g5
tp3562
Rp3563
(I1
(I1
tp3564
g12
I00
S'\x00\x00\x00\x00\x00\x00\x00\x00'
p3565
tp3566
baa(lp3567
g2
(g3
(I0
tp3568
g5
tp3569
Rp3570
(I1
(I1
tp3571
g12
I00
S'1\x92\xee\xb8\x1d\xac\x98?'
p3572
tp3573
bag2
(g3
(I0
tp3574
g5
tp3575
Rp3576
(I1
(I1
tp3577
g12
I00
S'2\x92\xee\xb8\x1d\xac\x98?'
p3578
tp3579
bag2
(g3
(I0
tp3580
g5
tp3581
Rp3582
(I1
(I1
tp3583
g12
I00
S'\x00\x00\x00\x00\x00\x00\x00\x00'
p3584
tp3585
baa(lp3586
g2
(g3
(I0
tp3587
g5
tp3588
Rp3589
(I1
(I1
tp3590
g12
I00
S'\xa7rG\xd0\xd4}\x99?'
p3591
tp3592
bag2
(g3
(I0
tp3593
g5
tp3594
Rp3595
(I1
(I1
tp3596
g12
I00
S'\xa8rG\xd0\xd4}\x99?'
p3597
tp3598
bag2
(g3
(I0
tp3599
g5
tp3600
Rp3601
(I1
(I1
tp3602
g12
I00
S'\x00\x00\x00\x00\x00\x00\x00\x00'
p3603
tp3604
baa(lp3605
g2
(g3
(I0
tp3606
g5
tp3607
Rp3608
(I1
(I1
tp3609
g12
I00
S'N[\xa0\xe7\x8bO\x9a?'
p3610
tp3611
bag2
(g3
(I0
tp3612
g5
tp3613
Rp3614
(I1
(I1
tp3615
g12
I00
S'O[\xa0\xe7\x8bO\x9a?'
p3616
tp3617
bag2
(g3
(I0
tp3618
g5
tp3619
Rp3620
(I1
(I1
tp3621
g12
I00
S'\x00\x00\x00\x00\x00\x00\x00\x00'
p3622
tp3623
baa(lp3624
g2
(g3
(I0
tp3625
g5
tp3626
Rp3627
(I1
(I1
tp3628
g12
I00
S'\xc4;\xf9\xfeB!\x9b?'
p3629
tp3630
bag2
(g3
(I0
tp3631
g5
tp3632
Rp3633
(I1
(I1
tp3634
g12
I00
S'\xc5;\xf9\xfeB!\x9b?'
p3635
tp3636
bag2
(g3
(I0
tp3637
g5
tp3638
Rp3639
(I1
(I1
tp3640
g12
I00
S'\x00\x00\x00\x00\x00\x00\x00\x00'
p3641
tp3642
baa(lp3643
g2
(g3
(I0
tp3644
g5
tp3645
Rp3646
(I1
(I1
tp3647
g12
I00
S':\x1cR\x16\xfa\xf2\x9b?'
p3648
tp3649
bag2
(g3
(I0
tp3650
g5
tp3651
Rp3652
(I1
(I1
tp3653
g12
I00
S';\x1cR\x16\xfa\xf2\x9b?'
p3654
tp3655
bag2
(g3
(I0
tp3656
g5
tp3657
Rp3658
(I1
(I1
tp3659
g12
I00
S'\x00\x00\x00\x00\x00\x00\x00\x00'
p3660
tp3661
baa(lp3662
g2
(g3
(I0
tp3663
g5
tp3664
Rp3665
(I1
(I1
tp3666
g12
I00
S'\xb0\xfc\xaa-\xb1\xc4\x9c?'
p3667
tp3668
bag2
(g3
(I0
tp3669
g5
tp3670
Rp3671
(I1
(I1
tp3672
g12
I00
S'\xb1\xfc\xaa-\xb1\xc4\x9c?'
p3673
tp3674
bag2
(g3
(I0
tp3675
g5
tp3676
Rp3677
(I1
(I1
tp3678
g12
I00
S'\x00\x00\x00\x00\x00\x00\x00\x00'
p3679
tp3680
baa(lp3681
g2
(g3
(I0
tp3682
g5
tp3683
Rp3684
(I1
(I1
tp3685
g12
I00
S'&\xdd\x03Eh\x96\x9d?'
p3686
tp3687
bag2
(g3
(I0
tp3688
g5
tp3689
Rp3690
(I1
(I1
tp3691
g12
I00
S"'\xdd\x03Eh\x96\x9d?"
p3692
tp3693
bag2
(g3
(I0
tp3694
g5
tp3695
Rp3696
(I1
(I1
tp3697
g12
I00
S'\x00\x00\x00\x00\x00\x00\x00\x00'
p3698
tp3699
baa(lp3700
g2
(g3
(I0
tp3701
g5
tp3702
Rp3703
(I1
(I1
tp3704
g12
I00
S'\xcd\xc5\\\\\x1fh\x9e?'
p3705
tp3706
bag2
(g3
(I0
tp3707
g5
tp3708
Rp3709
(I1
(I1
tp3710
g12
I00
S'\xce\xc5\\\\\x1fh\x9e?'
p3711
tp3712
bag2
(g3
(I0
tp3713
g5
tp3714
Rp3715
(I1
(I1
tp3716
g12
I00
S'\x00\x00\x00\x00\x00\x00\x00\x00'
p3717
tp3718
baa(lp3719
g2
(g3
(I0
tp3720
g5
tp3721
Rp3722
(I1
(I1
tp3723
g12
I00
S'C\xa6\xb5s\xd69\x9f?'
p3724
tp3725
bag2
(g3
(I0
tp3726
g5
tp3727
Rp3728
(I1
(I1
tp3729
g12
I00
S'D\xa6\xb5s\xd69\x9f?'
p3730
tp3731
bag2
(g3
(I0
tp3732
g5
tp3733
Rp3734
(I1
(I1
tp3735
g12
I00
S'\x00\x00\x00\x00\x00\x00\x00\x00'
p3736
tp3737
baa(lp3738
g2
(g3
(I0
tp3739
g5
tp3740
Rp3741
(I1
(I1
tp3742
g12
I00
S'\\C\x87\xc5\xc6\x05\xa0?'
p3743
tp3744
bag2
(g3
(I0
tp3745
g5
tp3746
Rp3747
(I1
(I1
tp3748
g12
I00
S']C\x87\xc5\xc6\x05\xa0?'
p3749
tp3750
bag2
(g3
(I0
tp3751
g5
tp3752
Rp3753
(I1
(I1
tp3754
g12
I00
S'\x00\x00\x00\x00\x00\x00\x00\x00'
p3755
tp3756
baa(lp3757
g2
(g3
(I0
tp3758
g5
tp3759
Rp3760
(I1
(I1
tp3761
g12
I00
S'\x97\xb33Q\xa2n\xa0?'
p3762
tp3763
bag2
(g3
(I0
tp3764
g5
tp3765
Rp3766
(I1
(I1
tp3767
g12
I00
S'\x98\xb33Q\xa2n\xa0?'
p3768
tp3769
bag2
(g3
(I0
tp3770
g5
tp3771
Rp3772
(I1
(I1
tp3773
g12
I00
S'\x00\x00\x00\x00\x00\x00\x00\x00'
p3774
tp3775
baa(lp3776
g2
(g3
(I0
tp3777
g5
tp3778
Rp3779
(I1
(I1
tp3780
g12
I00
S'\xd2#\xe0\xdc}\xd7\xa0?'
p3781
tp3782
bag2
(g3
(I0
tp3783
g5
tp3784
Rp3785
(I1
(I1
tp3786
g12
I00
S'\xd3#\xe0\xdc}\xd7\xa0?'
p3787
tp3788
bag2
(g3
(I0
tp3789
g5
tp3790
Rp3791
(I1
(I1
tp3792
g12
I00
S'\x00\x00\x00\x00\x00\x00\x00\x00'
p3793
tp3794
baa(lp3795
g2
(g3
(I0
tp3796
g5
tp3797
Rp3798
(I1
(I1
tp3799
g12
I00
S'&\x98\x8chY@\xa1?'
p3800
tp3801
bag2
(g3
(I0
tp3802
g5
tp3803
Rp3804
(I1
(I1
tp3805
g12
I00
S"'\x98\x8chY@\xa1?"
p3806
tp3807
bag2
(g3
(I0
tp3808
g5
tp3809
Rp3810
(I1
(I1
tp3811
g12
I00
S'\x00\x00\x00\x00\x00\x00\x00\x00'
p3812
tp3813
baa(lp3814
g2
(g3
(I0
tp3815
g5
tp3816
Rp3817
(I1
(I1
tp3818
g12
I00
S'a\x089\xf44\xa9\xa1?'
p3819
tp3820
bag2
(g3
(I0
tp3821
g5
tp3822
Rp3823
(I1
(I1
tp3824
g12
I00
S'b\x089\xf44\xa9\xa1?'
p3825
tp3826
bag2
(g3
(I0
tp3827
g5
tp3828
Rp3829
(I1
(I1
tp3830
g12
I00
S'\x00\x00\x00\x00\x00\x00\x00\x00'
p3831
tp3832
baa(lp3833
g2
(g3
(I0
tp3834
g5
tp3835
Rp3836
(I1
(I1
tp3837
g12
I00
S'\x9cx\xe5\x7f\x10\x12\xa2?'
p3838
tp3839
bag2
(g3
(I0
tp3840
g5
tp3841
Rp3842
(I1
(I1
tp3843
g12
I00
S'\x9dx\xe5\x7f\x10\x12\xa2?'
p3844
tp3845
bag2
(g3
(I0
tp3846
g5
tp3847
Rp3848
(I1
(I1
tp3849
g12
I00
S'\x00\x00\x00\x00\x00\x00\x00\x00'
p3850
tp3851
baa(lp3852
g2
(g3
(I0
tp3853
g5
tp3854
Rp3855
(I1
(I1
tp3856
g12
I00
S'\xd7\xe8\x91\x0b\xecz\xa2?'
p3857
tp3858
bag2
(g3
(I0
tp3859
g5
tp3860
Rp3861
(I1
(I1
tp3862
g12
I00
S'\xd8\xe8\x91\x0b\xecz\xa2?'
p3863
tp3864
bag2
(g3
(I0
tp3865
g5
tp3866
Rp3867
(I1
(I1
tp3868
g12
I00
S'\x00\x00\x00\x00\x00\x00\x00\x00'
p3869
tp3870
baa(lp3871
g2
(g3
(I0
tp3872
g5
tp3873
Rp3874
(I1
(I1
tp3875
g12
I00
S'\x12Y>\x97\xc7\xe3\xa2?'
p3876
tp3877
bag2
(g3
(I0
tp3878
g5
tp3879
Rp3880
(I1
(I1
tp3881
g12
I00
S'\x13Y>\x97\xc7\xe3\xa2?'
p3882
tp3883
bag2
(g3
(I0
tp3884
g5
tp3885
Rp3886
(I1
(I1
tp3887
g12
I00
S'\x00\x00\x00\x00\x00\x00\x00\x00'
p3888
tp3889
baa(lp3890
g2
(g3
(I0
tp3891
g5
tp3892
Rp3893
(I1
(I1
tp3894
g12
I00
S'f\xcd\xea"\xa3L\xa3?'
p3895
tp3896
bag2
(g3
(I0
tp3897
g5
tp3898
Rp3899
(I1
(I1
tp3900
g12
I00
S'g\xcd\xea"\xa3L\xa3?'
p3901
tp3902
bag2
(g3
(I0
tp3903
g5
tp3904
Rp3905
(I1
(I1
tp3906
g12
I00
S'\x00\x00\x00\x00\x00\x00\x00\x00'
p3907
tp3908
baa(lp3909
g2
(g3
(I0
tp3910
g5
tp3911
Rp3912
(I1
(I1
tp3913
g12
I00
S'\xa1=\x97\xae~\xb5\xa3?'
p3914
tp3915
bag2
(g3
(I0
tp3916
g5
tp3917
Rp3918
(I1
(I1
tp3919
g12
I00
S'\xa2=\x97\xae~\xb5\xa3?'
p3920
tp3921
bag2
(g3
(I0
tp3922
g5
tp3923
Rp3924
(I1
(I1
tp3925
g12
I00
S'\x00\x00\x00\x00\x00\x00\x00\x00'
p3926
tp3927
baa(lp3928
g2
(g3
(I0
tp3929
g5
tp3930
Rp3931
(I1
(I1
tp3932
g12
I00
S'\xdc\xadC:Z\x1e\xa4?'
p3933
tp3934
bag2
(g3
(I0
tp3935
g5
tp3936
Rp3937
(I1
(I1
tp3938
g12
I00
S'\xdd\xadC:Z\x1e\xa4?'
p3939
tp3940
bag2
(g3
(I0
tp3941
g5
tp3942
Rp3943
(I1
(I1
tp3944
g12
I00
S'\x00\x00\x00\x00\x00\x00\x00\x00'
p3945
tp3946
baa(lp3947
g2
(g3
(I0
tp3948
g5
tp3949
Rp3950
(I1
(I1
tp3951
g12
I00
S'R\x8e\x9cQ\x11\xf0\xa4?'
p3952
tp3953
bag2
(g3
(I0
tp3954
g5
tp3955
Rp3956
(I1
(I1
tp3957
g12
I00
S'S\x8e\x9cQ\x11\xf0\xa4?'
p3958
tp3959
bag2
(g3
(I0
tp3960
g5
tp3961
Rp3962
(I1
(I1
tp3963
g12
I00
S'\x00\x00\x00\x00\x00\x00\x00\x00'
p3964
tp3965
baa(lp3966
g3950
ag3956
ag3962
aa(lp3967
g2
(g3
(I0
tp3968
g5
tp3969
Rp3970
(I1
(I1
tp3971
g12
I00
S'\xa6\x02I\xdd\xecX\xa5?'
p3972
tp3973
bag2
(g3
(I0
tp3974
g5
tp3975
Rp3976
(I1
(I1
tp3977
g12
I00
S'\xa7\x02I\xdd\xecX\xa5?'
p3978
tp3979
bag2
(g3
(I0
tp3980
g5
tp3981
Rp3982
(I1
(I1
tp3983
g12
I00
S'\x00\x00\x00\x00\x00\x00\x00\x00'
p3984
tp3985
baa(lp3986
g2
(g3
(I0
tp3987
g5
tp3988
Rp3989
(I1
(I1
tp3990
g12
I00
S'\xe1r\xf5h\xc8\xc1\xa5?'
p3991
tp3992
bag2
(g3
(I0
tp3993
g5
tp3994
Rp3995
(I1
(I1
tp3996
g12
I00
S'\xe2r\xf5h\xc8\xc1\xa5?'
p3997
tp3998
bag2
(g3
(I0
tp3999
g5
tp4000
Rp4001
(I1
(I1
tp4002
g12
I00
S'\x00\x00\x00\x00\x00\x00\x00\x00'
p4003
tp4004
baa(lp4005
g2
(g3
(I0
tp4006
g5
tp4007
Rp4008
(I1
(I1
tp4009
g12
I00
S'\x1c\xe3\xa1\xf4\xa3*\xa6?'
p4010
tp4011
bag2
(g3
(I0
tp4012
g5
tp4013
Rp4014
(I1
(I1
tp4015
g12
I00
S'\x1d\xe3\xa1\xf4\xa3*\xa6?'
p4016
tp4017
bag2
(g3
(I0
tp4018
g5
tp4019
Rp4020
(I1
(I1
tp4021
g12
I00
S'\x00\x00\x00\x00\x00\x00\x00\x00'
p4022
tp4023
baa(lp4024
g2
(g3
(I0
tp4025
g5
tp4026
Rp4027
(I1
(I1
tp4028
g12
I00
S'WSN\x80\x7f\x93\xa6?'
p4029
tp4030
bag2
(g3
(I0
tp4031
g5
tp4032
Rp4033
(I1
(I1
tp4034
g12
I00
S'XSN\x80\x7f\x93\xa6?'
p4035
tp4036
bag2
(g3
(I0
tp4037
g5
tp4038
Rp4039
(I1
(I1
tp4040
g12
I00
S'\x00\x00\x00\x00\x00\x00\x00\x00'
p4041
tp4042
baa(lp4043
g2
(g3
(I0
tp4044
g5
tp4045
Rp4046
(I1
(I1
tp4047
g12
I00
S'\x92\xc3\xfa\x0b[\xfc\xa6?'
p4048
tp4049
bag2
(g3
(I0
tp4050
g5
tp4051
Rp4052
(I1
(I1
tp4053
g12
I00
S'\x93\xc3\xfa\x0b[\xfc\xa6?'
p4054
tp4055
bag2
(g3
(I0
tp4056
g5
tp4057
Rp4058
(I1
(I1
tp4059
g12
I00
S'\x00\x00\x00\x00\x00\x00\x00\x00'
p4060
tp4061
baa(lp4062
g2
(g3
(I0
tp4063
g5
tp4064
Rp4065
(I1
(I1
tp4066
g12
I00
S'\xe67\xa7\x976e\xa7?'
p4067
tp4068
bag2
(g3
(I0
tp4069
g5
tp4070
Rp4071
(I1
(I1
tp4072
g12
I00
S'\xe77\xa7\x976e\xa7?'
p4073
tp4074
bag2
(g3
(I0
tp4075
g5
tp4076
Rp4077
(I1
(I1
tp4078
g12
I00
S'\x00\x00\x00\x00\x00\x00\x00\x00'
p4079
tp4080
baa(lp4081
g2
(g3
(I0
tp4082
g5
tp4083
Rp4084
(I1
(I1
tp4085
g12
I00
S'!\xa8S#\x12\xce\xa7?'
p4086
tp4087
bag2
(g3
(I0
tp4088
g5
tp4089
Rp4090
(I1
(I1
tp4091
g12
I00
S'"\xa8S#\x12\xce\xa7?'
p4092
tp4093
bag2
(g3
(I0
tp4094
g5
tp4095
Rp4096
(I1
(I1
tp4097
g12
I00
S'\x00\x00\x00\x00\x00\x00\x00\x00'
p4098
tp4099
baa(lp4100
g2
(g3
(I0
tp4101
g5
tp4102
Rp4103
(I1
(I1
tp4104
g12
I00
S'\\\x18\x00\xaf\xed6\xa8?'
p4105
tp4106
bag2
(g3
(I0
tp4107
g5
tp4108
Rp4109
(I1
(I1
tp4110
g12
I00
S']\x18\x00\xaf\xed6\xa8?'
p4111
tp4112
bag2
(g3
(I0
tp4113
g5
tp4114
Rp4115
(I1
(I1
tp4116
g12
I00
S'\x00\x00\x00\x00\x00\x00\x00\x00'
p4117
tp4118
baa(lp4119
g2
(g3
(I0
tp4120
g5
tp4121
Rp4122
(I1
(I1
tp4123
g12
I00
S'\x97\x88\xac:\xc9\x9f\xa8?'
p4124
tp4125
bag2
(g3
(I0
tp4126
g5
tp4127
Rp4128
(I1
(I1
tp4129
g12
I00
S'\x98\x88\xac:\xc9\x9f\xa8?'
p4130
tp4131
bag2
(g3
(I0
tp4132
g5
tp4133
Rp4134
(I1
(I1
tp4135
g12
I00
S'\x00\x00\x00\x00\x00\x00\x00\x00'
p4136
tp4137
baa(lp4138
g2
(g3
(I0
tp4139
g5
tp4140
Rp4141
(I1
(I1
tp4142
g12
I00
S'\xd2\xf8X\xc6\xa4\x08\xa9?'
p4143
tp4144
bag2
(g3
(I0
tp4145
g5
tp4146
Rp4147
(I1
(I1
tp4148
g12
I00
S'\xd3\xf8X\xc6\xa4\x08\xa9?'
p4149
tp4150
bag2
(g3
(I0
tp4151
g5
tp4152
Rp4153
(I1
(I1
tp4154
g12
I00
S'\x00\x00\x00\x00\x00\x00\x00\x00'
p4155
tp4156
baa(lp4157
g2
(g3
(I0
tp4158
g5
tp4159
Rp4160
(I1
(I1
tp4161
g12
I00
S'&m\x05R\x80q\xa9?'
p4162
tp4163
bag2
(g3
(I0
tp4164
g5
tp4165
Rp4166
(I1
(I1
tp4167
g12
I00
S"'m\x05R\x80q\xa9?"
p4168
tp4169
bag2
(g3
(I0
tp4170
g5
tp4171
Rp4172
(I1
(I1
tp4173
g12
I00
S'\x00\x00\x00\x00\x00\x00\x00\x00'
p4174
tp4175
baa(lp4176
g2
(g3
(I0
tp4177
g5
tp4178
Rp4179
(I1
(I1
tp4180
g12
I00
S'a\xdd\xb1\xdd[\xda\xa9?'
p4181
tp4182
bag2
(g3
(I0
tp4183
g5
tp4184
Rp4185
(I1
(I1
tp4186
g12
I00
S'b\xdd\xb1\xdd[\xda\xa9?'
p4187
tp4188
bag2
(g3
(I0
tp4189
g5
tp4190
Rp4191
(I1
(I1
tp4192
g12
I00
S'\x00\x00\x00\x00\x00\x00\x00\x00'
p4193
tp4194
baa(lp4195
g2
(g3
(I0
tp4196
g5
tp4197
Rp4198
(I1
(I1
tp4199
g12
I00
S'\xd7\xbd\n\xf5\x12\xac\xaa?'
p4200
tp4201
bag2
(g3
(I0
tp4202
g5
tp4203
Rp4204
(I1
(I1
tp4205
g12
I00
S'\xd8\xbd\n\xf5\x12\xac\xaa?'
p4206
tp4207
bag2
(g3
(I0
tp4208
g5
tp4209
Rp4210
(I1
(I1
tp4211
g12
I00
S'\x00\x00\x00\x00\x00\x00\x00\x00'
p4212
tp4213
baa(lp4214
g4198
ag4204
ag4210
aa(lp4215
g2
(g3
(I0
tp4216
g5
tp4217
Rp4218
(I1
(I1
tp4219
g12
I00
S'\x12.\xb7\x80\xee\x14\xab?'
p4220
tp4221
bag2
(g3
(I0
tp4222
g5
tp4223
Rp4224
(I1
(I1
tp4225
g12
I00
S'\x13.\xb7\x80\xee\x14\xab?'
p4226
tp4227
bag2
(g3
(I0
tp4228
g5
tp4229
Rp4230
(I1
(I1
tp4231
g12
I00
S'\x00\x00\x00\x00\x00\x00\x00\x00'
p4232
tp4233
baa(lp4234
g2
(g3
(I0
tp4235
g5
tp4236
Rp4237
(I1
(I1
tp4238
g12
I00
S'f\xa2c\x0c\xca}\xab?'
p4239
tp4240
bag2
(g3
(I0
tp4241
g5
tp4242
Rp4243
(I1
(I1
tp4244
g12
I00
S'g\xa2c\x0c\xca}\xab?'
p4245
tp4246
bag2
(g3
(I0
tp4247
g5
tp4248
Rp4249
(I1
(I1
tp4250
g12
I00
S'\x00\x00\x00\x00\x00\x00\x00\x00'
p4251
tp4252
baa(lp4253
g2
(g3
(I0
tp4254
g5
tp4255
Rp4256
(I1
(I1
tp4257
g12
I00
S'\xa1\x12\x10\x98\xa5\xe6\xab?'
p4258
tp4259
bag2
(g3
(I0
tp4260
g5
tp4261
Rp4262
(I1
(I1
tp4263
g12
I00
S'\xa2\x12\x10\x98\xa5\xe6\xab?'
p4264
tp4265
bag2
(g3
(I0
tp4266
g5
tp4267
Rp4268
(I1
(I1
tp4269
g12
I00
S'\x00\x00\x00\x00\x00\x00\x00\x00'
p4270
tp4271
baa(lp4272
g2
(g3
(I0
tp4273
g5
tp4274
Rp4275
(I1
(I1
tp4276
g12
I00
S'\xdc\x82\xbc#\x81O\xac?'
p4277
tp4278
bag2
(g3
(I0
tp4279
g5
tp4280
Rp4281
(I1
(I1
tp4282
g12
I00
S'\xdd\x82\xbc#\x81O\xac?'
p4283
tp4284
bag2
(g3
(I0
tp4285
g5
tp4286
Rp4287
(I1
(I1
tp4288
g12
I00
S'\x00\x00\x00\x00\x00\x00\x00\x00'
p4289
tp4290
baa(lp4291
g2
(g3
(I0
tp4292
g5
tp4293
Rp4294
(I1
(I1
tp4295
g12
I00
S'\x17\xf3h\xaf\\\xb8\xac?'
p4296
tp4297
bag2
(g3
(I0
tp4298
g5
tp4299
Rp4300
(I1
(I1
tp4301
g12
I00
S'\x18\xf3h\xaf\\\xb8\xac?'
p4302
tp4303
bag2
(g3
(I0
tp4304
g5
tp4305
Rp4306
(I1
(I1
tp4307
g12
I00
S'\x00\x00\x00\x00\x00\x00\x00\x00'
p4308
tp4309
baa(lp4310
g2
(g3
(I0
tp4311
g5
tp4312
Rp4313
(I1
(I1
tp4314
g12
I00
S'Rc\x15;8!\xad?'
p4315
tp4316
bag2
(g3
(I0
tp4317
g5
tp4318
Rp4319
(I1
(I1
tp4320
g12
I00
S'Sc\x15;8!\xad?'
p4321
tp4322
bag2
(g3
(I0
tp4323
g5
tp4324
Rp4325
(I1
(I1
tp4326
g12
I00
S'\x00\x00\x00\x00\x00\x00\x00\x00'
p4327
tp4328
baa(lp4329
g2
(g3
(I0
tp4330
g5
tp4331
Rp4332
(I1
(I1
tp4333
g12
I00
S'\xa6\xd7\xc1\xc6\x13\x8a\xad?'
p4334
tp4335
bag2
(g3
(I0
tp4336
g5
tp4337
Rp4338
(I1
(I1
tp4339
g12
I00
S'\xa7\xd7\xc1\xc6\x13\x8a\xad?'
p4340
tp4341
bag2
(g3
(I0
tp4342
g5
tp4343
Rp4344
(I1
(I1
tp4345
g12
I00
S'\x00\x00\x00\x00\x00\x00\x00\x00'
p4346
tp4347
baa(lp4348
g2
(g3
(I0
tp4349
g5
tp4350
Rp4351
(I1
(I1
tp4352
g12
I00
S'\xe1GnR\xef\xf2\xad?'
p4353
tp4354
bag2
(g3
(I0
tp4355
g5
tp4356
Rp4357
(I1
(I1
tp4358
g12
I00
S'\xe2GnR\xef\xf2\xad?'
p4359
tp4360
bag2
(g3
(I0
tp4361
g5
tp4362
Rp4363
(I1
(I1
tp4364
g12
I00
S'\x00\x00\x00\x00\x00\x00\x00\x00'
p4365
tp4366
baa(lp4367
g2
(g3
(I0
tp4368
g5
tp4369
Rp4370
(I1
(I1
tp4371
g12
I00
S'\x1c\xb8\x1a\xde\xca[\xae?'
p4372
tp4373
bag2
(g3
(I0
tp4374
g5
tp4375
Rp4376
(I1
(I1
tp4377
g12
I00
S'\x1d\xb8\x1a\xde\xca[\xae?'
p4378
tp4379
bag2
(g3
(I0
tp4380
g5
tp4381
Rp4382
(I1
(I1
tp4383
g12
I00
S'\x00\x00\x00\x00\x00\x00\x00\x00'
p4384
tp4385
baa(lp4386
g2
(g3
(I0
tp4387
g5
tp4388
Rp4389
(I1
(I1
tp4390
g12
I00
S'W(\xc7i\xa6\xc4\xae?'
p4391
tp4392
bag2
(g3
(I0
tp4393
g5
tp4394
Rp4395
(I1
(I1
tp4396
g12
I00
S'X(\xc7i\xa6\xc4\xae?'
p4397
tp4398
bag2
(g3
(I0
tp4399
g5
tp4400
Rp4401
(I1
(I1
tp4402
g12
I00
S'\x00\x00\x00\x00\x00\x00\x00\x00'
p4403
tp4404
baa(lp4405
g2
(g3
(I0
tp4406
g5
tp4407
Rp4408
(I1
(I1
tp4409
g12
I00
S'\x92\x98s\xf5\x81-\xaf?'
p4410
tp4411
bag2
(g3
(I0
tp4412
g5
tp4413
Rp4414
(I1
(I1
tp4415
g12
I00
S'\x93\x98s\xf5\x81-\xaf?'
p4416
tp4417
bag2
(g3
(I0
tp4418
g5
tp4419
Rp4420
(I1
(I1
tp4421
g12
I00
S'\x00\x00\x00\x00\x00\x00\x00\x00'
p4422
tp4423
baa(lp4424
g2
(g3
(I0
tp4425
g5
tp4426
Rp4427
(I1
(I1
tp4428
g12
I00
S'\xe6\x0c \x81]\x96\xaf?'
p4429
tp4430
bag2
(g3
(I0
tp4431
g5
tp4432
Rp4433
(I1
(I1
tp4434
g12
I00
S'\xe7\x0c \x81]\x96\xaf?'
p4435
tp4436
bag2
(g3
(I0
tp4437
g5
tp4438
Rp4439
(I1
(I1
tp4440
g12
I00
S'\x00\x00\x00\x00\x00\x00\x00\x00'
p4441
tp4442
baa(lp4443
g2
(g3
(I0
tp4444
g5
tp4445
Rp4446
(I1
(I1
tp4447
g12
I00
S'!}\xcc\x0c9\xff\xaf?'
p4448
tp4449
bag2
(g3
(I0
tp4450
g5
tp4451
Rp4452
(I1
(I1
tp4453
g12
I00
S'"}\xcc\x0c9\xff\xaf?'
p4454
tp4455
bag2
(g3
(I0
tp4456
g5
tp4457
Rp4458
(I1
(I1
tp4459
g12
I00
S'\x00\x00\x00\x00\x00\x00\x00\x00'
p4460
tp4461
baa(lp4462
g2
(g3
(I0
tp4463
g5
tp4464
Rp4465
(I1
(I1
tp4466
g12
I00
S'\xaev<L\n4\xb0?'
p4467
tp4468
bag2
(g3
(I0
tp4469
g5
tp4470
Rp4471
(I1
(I1
tp4472
g12
I00
S'\xaev<L\n4\xb0?'
p4473
tp4474
bag2
(g3
(I0
tp4475
g5
tp4476
Rp4477
(I1
(I1
tp4478
g12
I00
S'\x00\x00\x00\x00\x00\x00\x00\x00'
p4479
tp4480
baa(lp4481
g2
(g3
(I0
tp4482
g5
tp4483
Rp4484
(I1
(I1
tp4485
g12
I00
S'\xcc\xae\x12\x12xh\xb0?'
p4486
tp4487
bag2
(g3
(I0
tp4488
g5
tp4489
Rp4490
(I1
(I1
tp4491
g12
I00
S'\xcc\xae\x12\x12xh\xb0?'
p4492
tp4493
bag2
(g3
(I0
tp4494
g5
tp4495
Rp4496
(I1
(I1
tp4497
g12
I00
S'\x00\x00\x00\x00\x00\x00\x00\x00'
p4498
tp4499
baa(lp4500
g2
(g3
(I0
tp4501
g5
tp4502
Rp4503
(I1
(I1
tp4504
g12
I00
S'\xea\xe6\xe8\xd7\xe5\x9c\xb0?'
p4505
tp4506
bag2
(g3
(I0
tp4507
g5
tp4508
Rp4509
(I1
(I1
tp4510
g12
I00
S'\xea\xe6\xe8\xd7\xe5\x9c\xb0?'
p4511
tp4512
bag2
(g3
(I0
tp4513
g5
tp4514
Rp4515
(I1
(I1
tp4516
g12
I00
S'\x00\x00\x00\x00\x00\x00\x00\x00'
p4517
tp4518
baa(lp4519
g2
(g3
(I0
tp4520
g5
tp4521
Rp4522
(I1
(I1
tp4523
g12
I00
S'\x14!\xbf\x9dS\xd1\xb0?'
p4524
tp4525
bag2
(g3
(I0
tp4526
g5
tp4527
Rp4528
(I1
(I1
tp4529
g12
I00
S'\x14!\xbf\x9dS\xd1\xb0?'
p4530
tp4531
bag2
(g3
(I0
tp4532
g5
tp4533
Rp4534
(I1
(I1
tp4535
g12
I00
S'\x00\x00\x00\x00\x00\x00\x00\x00'
p4536
tp4537
baa(lp4538
g2
(g3
(I0
tp4539
g5
tp4540
Rp4541
(I1
(I1
tp4542
g12
I00
S'2Y\x95c\xc1\x05\xb1?'
p4543
tp4544
bag2
(g3
(I0
tp4545
g5
tp4546
Rp4547
(I1
(I1
tp4548
g12
I00
S'2Y\x95c\xc1\x05\xb1?'
p4549
tp4550
bag2
(g3
(I0
tp4551
g5
tp4552
Rp4553
(I1
(I1
tp4554
g12
I00
S'\x00\x00\x00\x00\x00\x00\x00\x00'
p4555
tp4556
baa(lp4557
g2
(g3
(I0
tp4558
g5
tp4559
Rp4560
(I1
(I1
tp4561
g12
I00
S'P\x91k)/:\xb1?'
p4562
tp4563
bag2
(g3
(I0
tp4564
g5
tp4565
Rp4566
(I1
(I1
tp4567
g12
I00
S'P\x91k)/:\xb1?'
p4568
tp4569
bag2
(g3
(I0
tp4570
g5
tp4571
Rp4572
(I1
(I1
tp4573
g12
I00
S'\x00\x00\x00\x00\x00\x00\x00\x00'
p4574
tp4575
baa(lp4576
g2
(g3
(I0
tp4577
g5
tp4578
Rp4579
(I1
(I1
tp4580
g12
I00
S'n\xc9A\xef\x9cn\xb1?'
p4581
tp4582
bag2
(g3
(I0
tp4583
g5
tp4584
Rp4585
(I1
(I1
tp4586
g12
I00
S'n\xc9A\xef\x9cn\xb1?'
p4587
tp4588
bag2
(g3
(I0
tp4589
g5
tp4590
Rp4591
(I1
(I1
tp4592
g12
I00
S'\x00\x00\x00\x00\x00\x00\x00\x00'
p4593
tp4594
baa(lp4595
g2
(g3
(I0
tp4596
g5
tp4597
Rp4598
(I1
(I1
tp4599
g12
I00
S'\x8c\x01\x18\xb5\n\xa3\xb1?'
p4600
tp4601
bag2
(g3
(I0
tp4602
g5
tp4603
Rp4604
(I1
(I1
tp4605
g12
I00
S'\x8c\x01\x18\xb5\n\xa3\xb1?'
p4606
tp4607
bag2
(g3
(I0
tp4608
g5
tp4609
Rp4610
(I1
(I1
tp4611
g12
I00
S'\x00\x00\x00\x00\x00\x00\x00\x00'
p4612
tp4613
baa(lp4614
g2
(g3
(I0
tp4615
g5
tp4616
Rp4617
(I1
(I1
tp4618
g12
I00
S'\xb6;\xeezx\xd7\xb1?'
p4619
tp4620
bag2
(g3
(I0
tp4621
g5
tp4622
Rp4623
(I1
(I1
tp4624
g12
I00
S'\xb6;\xeezx\xd7\xb1?'
p4625
tp4626
bag2
(g3
(I0
tp4627
g5
tp4628
Rp4629
(I1
(I1
tp4630
g12
I00
S'\x00\x00\x00\x00\x00\x00\x00\x00'
p4631
tp4632
baa(lp4633
g2
(g3
(I0
tp4634
g5
tp4635
Rp4636
(I1
(I1
tp4637
g12
I00
S'\xd4s\xc4@\xe6\x0b\xb2?'
p4638
tp4639
bag2
(g3
(I0
tp4640
g5
tp4641
Rp4642
(I1
(I1
tp4643
g12
I00
S'\xd4s\xc4@\xe6\x0b\xb2?'
p4644
tp4645
bag2
(g3
(I0
tp4646
g5
tp4647
Rp4648
(I1
(I1
tp4649
g12
I00
S'\x00\x00\x00\x00\x00\x00\x00\x00'
p4650
tp4651
baa(lp4652
g2
(g3
(I0
tp4653
g5
tp4654
Rp4655
(I1
(I1
tp4656
g12
I00
S'\xf2\xab\x9a\x06T@\xb2?'
p4657
tp4658
bag2
(g3
(I0
tp4659
g5
tp4660
Rp4661
(I1
(I1
tp4662
g12
I00
S'\xf2\xab\x9a\x06T@\xb2?'
p4663
tp4664
bag2
(g3
(I0
tp4665
g5
tp4666
Rp4667
(I1
(I1
tp4668
g12
I00
S'\x00\x00\x00\x00\x00\x00\x00\x00'
p4669
tp4670
baa(lp4671
g2
(g3
(I0
tp4672
g5
tp4673
Rp4674
(I1
(I1
tp4675
g12
I00
S'\x10\xe4p\xcc\xc1t\xb2?'
p4676
tp4677
bag2
(g3
(I0
tp4678
g5
tp4679
Rp4680
(I1
(I1
tp4681
g12
I00
S'\x10\xe4p\xcc\xc1t\xb2?'
p4682
tp4683
bag2
(g3
(I0
tp4684
g5
tp4685
Rp4686
(I1
(I1
tp4687
g12
I00
S'\x00\x00\x00\x00\x00\x00\x00\x00'
p4688
tp4689
baa(lp4690
g2
(g3
(I0
tp4691
g5
tp4692
Rp4693
(I1
(I1
tp4694
g12
I00
S'.\x1cG\x92/\xa9\xb2?'
p4695
tp4696
bag2
(g3
(I0
tp4697
g5
tp4698
Rp4699
(I1
(I1
tp4700
g12
I00
S'.\x1cG\x92/\xa9\xb2?'
p4701
tp4702
bag2
(g3
(I0
tp4703
g5
tp4704
Rp4705
(I1
(I1
tp4706
g12
I00
S'\x00\x00\x00\x00\x00\x00\x00\x00'
p4707
tp4708
baa(lp4709
g2
(g3
(I0
tp4710
g5
tp4711
Rp4712
(I1
(I1
tp4713
g12
I00
S'XV\x1dX\x9d\xdd\xb2?'
p4714
tp4715
bag2
(g3
(I0
tp4716
g5
tp4717
Rp4718
(I1
(I1
tp4719
g12
I00
S'XV\x1dX\x9d\xdd\xb2?'
p4720
tp4721
bag2
(g3
(I0
tp4722
g5
tp4723
Rp4724
(I1
(I1
tp4725
g12
I00
S'\x00\x00\x00\x00\x00\x00\x00\x00'
p4726
tp4727
baa(lp4728
g2
(g3
(I0
tp4729
g5
tp4730
Rp4731
(I1
(I1
tp4732
g12
I00
S'v\x8e\xf3\x1d\x0b\x12\xb3?'
p4733
tp4734
bag2
(g3
(I0
tp4735
g5
tp4736
Rp4737
(I1
(I1
tp4738
g12
I00
S'v\x8e\xf3\x1d\x0b\x12\xb3?'
p4739
tp4740
bag2
(g3
(I0
tp4741
g5
tp4742
Rp4743
(I1
(I1
tp4744
g12
I00
S'\x00\x00\x00\x00\x00\x00\x00\x00'
p4745
tp4746
baa(lp4747
g2
(g3
(I0
tp4748
g5
tp4749
Rp4750
(I1
(I1
tp4751
g12
I00
S'\x94\xc6\xc9\xe3xF\xb3?'
p4752
tp4753
bag2
(g3
(I0
tp4754
g5
tp4755
Rp4756
(I1
(I1
tp4757
g12
I00
S'\x94\xc6\xc9\xe3xF\xb3?'
p4758
tp4759
bag2
(g3
(I0
tp4760
g5
tp4761
Rp4762
(I1
(I1
tp4763
g12
I00
S'\x00\x00\x00\x00\x00\x00\x00\x00'
p4764
tp4765
baa(lp4766
g2
(g3
(I0
tp4767
g5
tp4768
Rp4769
(I1
(I1
tp4770
g12
I00
S'\xb2\xfe\x9f\xa9\xe6z\xb3?'
p4771
tp4772
bag2
(g3
(I0
tp4773
g5
tp4774
Rp4775
(I1
(I1
tp4776
g12
I00
S'\xb2\xfe\x9f\xa9\xe6z\xb3?'
p4777
tp4778
bag2
(g3
(I0
tp4779
g5
tp4780
Rp4781
(I1
(I1
tp4782
g12
I00
S'\x00\x00\x00\x00\x00\x00\x00\x00'
p4783
tp4784
baa(lp4785
g2
(g3
(I0
tp4786
g5
tp4787
Rp4788
(I1
(I1
tp4789
g12
I00
S'\xd06voT\xaf\xb3?'
p4790
tp4791
bag2
(g3
(I0
tp4792
g5
tp4793
Rp4794
(I1
(I1
tp4795
g12
I00
S'\xd06voT\xaf\xb3?'
p4796
tp4797
bag2
(g3
(I0
tp4798
g5
tp4799
Rp4800
(I1
(I1
tp4801
g12
I00
S'\x00\x00\x00\x00\x00\x00\x00\x00'
p4802
tp4803
baa(lp4804
g2
(g3
(I0
tp4805
g5
tp4806
Rp4807
(I1
(I1
tp4808
g12
I00
S'\xfapL5\xc2\xe3\xb3?'
p4809
tp4810
bag2
(g3
(I0
tp4811
g5
tp4812
Rp4813
(I1
(I1
tp4814
g12
I00
S'\xfapL5\xc2\xe3\xb3?'
p4815
tp4816
bag2
(g3
(I0
tp4817
g5
tp4818
Rp4819
(I1
(I1
tp4820
g12
I00
S'\x00\x00\x00\x00\x00\x00\x00\x00'
p4821
tp4822
baa(lp4823
g2
(g3
(I0
tp4824
g5
tp4825
Rp4826
(I1
(I1
tp4827
g12
I00
S'\x18\xa9"\xfb/\x18\xb4?'
p4828
tp4829
bag2
(g3
(I0
tp4830
g5
tp4831
Rp4832
(I1
(I1
tp4833
g12
I00
S'\x18\xa9"\xfb/\x18\xb4?'
p4834
tp4835
bag2
(g3
(I0
tp4836
g5
tp4837
Rp4838
(I1
(I1
tp4839
g12
I00
S'\x00\x00\x00\x00\x00\x00\x00\x00'
p4840
tp4841
baa(lp4842
g2
(g3
(I0
tp4843
g5
tp4844
Rp4845
(I1
(I1
tp4846
g12
I00
S'6\xe1\xf8\xc0\x9dL\xb4?'
p4847
tp4848
bag2
(g3
(I0
tp4849
g5
tp4850
Rp4851
(I1
(I1
tp4852
g12
I00
S'6\xe1\xf8\xc0\x9dL\xb4?'
p4853
tp4854
bag2
(g3
(I0
tp4855
g5
tp4856
Rp4857
(I1
(I1
tp4858
g12
I00
S'\x00\x00\x00\x00\x00\x00\x00\x00'
p4859
tp4860
baa(lp4861
g2
(g3
(I0
tp4862
g5
tp4863
Rp4864
(I1
(I1
tp4865
g12
I00
S'T\x19\xcf\x86\x0b\x81\xb4?'
p4866
tp4867
bag2
(g3
(I0
tp4868
g5
tp4869
Rp4870
(I1
(I1
tp4871
g12
I00
S'T\x19\xcf\x86\x0b\x81\xb4?'
p4872
tp4873
bag2
(g3
(I0
tp4874
g5
tp4875
Rp4876
(I1
(I1
tp4877
g12
I00
S'\x00\x00\x00\x00\x00\x00\x00\x00'
p4878
tp4879
baa(lp4880
g2
(g3
(I0
tp4881
g5
tp4882
Rp4883
(I1
(I1
tp4884
g12
I00
S'rQ\xa5Ly\xb5\xb4?'
p4885
tp4886
bag2
(g3
(I0
tp4887
g5
tp4888
Rp4889
(I1
(I1
tp4890
g12
I00
S'rQ\xa5Ly\xb5\xb4?'
p4891
tp4892
bag2
(g3
(I0
tp4893
g5
tp4894
Rp4895
(I1
(I1
tp4896
g12
I00
S'\x00\x00\x00\x00\x00\x00\x00\x00'
p4897
tp4898
baa(lp4899
g2
(g3
(I0
tp4900
g5
tp4901
Rp4902
(I1
(I1
tp4903
g12
I00
S'\x9c\x8b{\x12\xe7\xe9\xb4?'
p4904
tp4905
bag2
(g3
(I0
tp4906
g5
tp4907
Rp4908
(I1
(I1
tp4909
g12
I00
S'\x9c\x8b{\x12\xe7\xe9\xb4?'
p4910
tp4911
bag2
(g3
(I0
tp4912
g5
tp4913
Rp4914
(I1
(I1
tp4915
g12
I00
S'\x00\x00\x00\x00\x00\x00\x00\x00'
p4916
tp4917
baa(lp4918
g2
(g3
(I0
tp4919
g5
tp4920
Rp4921
(I1
(I1
tp4922
g12
I00
S'\xba\xc3Q\xd8T\x1e\xb5?'
p4923
tp4924
bag2
(g3
(I0
tp4925
g5
tp4926
Rp4927
(I1
(I1
tp4928
g12
I00
S'\xba\xc3Q\xd8T\x1e\xb5?'
p4929
tp4930
bag2
(g3
(I0
tp4931
g5
tp4932
Rp4933
(I1
(I1
tp4934
g12
I00
S'\x00\x00\x00\x00\x00\x00\x00\x00'
p4935
tp4936
baa(lp4937
g2
(g3
(I0
tp4938
g5
tp4939
Rp4940
(I1
(I1
tp4941
g12
I00
S"\xd8\xfb'\x9e\xc2R\xb5?"
p4942
tp4943
bag2
(g3
(I0
tp4944
g5
tp4945
Rp4946
(I1
(I1
tp4947
g12
I00
S"\xd8\xfb'\x9e\xc2R\xb5?"
p4948
tp4949
bag2
(g3
(I0
tp4950
g5
tp4951
Rp4952
(I1
(I1
tp4953
g12
I00
S'\x00\x00\x00\x00\x00\x00\x00\x00'
p4954
tp4955
baa(lp4956
g2
(g3
(I0
tp4957
g5
tp4958
Rp4959
(I1
(I1
tp4960
g12
I00
S'\xf63\xfec0\x87\xb5?'
p4961
tp4962
bag2
(g3
(I0
tp4963
g5
tp4964
Rp4965
(I1
(I1
tp4966
g12
I00
S'\xf63\xfec0\x87\xb5?'
p4967
tp4968
bag2
(g3
(I0
tp4969
g5
tp4970
Rp4971
(I1
(I1
tp4972
g12
I00
S'\x00\x00\x00\x00\x00\x00\x00\x00'
p4973
tp4974
baa(lp4975
g2
(g3
(I0
tp4976
g5
tp4977
Rp4978
(I1
(I1
tp4979
g12
I00
S'\x14l\xd4)\x9e\xbb\xb5?'
p4980
tp4981
bag2
(g3
(I0
tp4982
g5
tp4983
Rp4984
(I1
(I1
tp4985
g12
I00
S'\x14l\xd4)\x9e\xbb\xb5?'
p4986
tp4987
bag2
(g3
(I0
tp4988
g5
tp4989
Rp4990
(I1
(I1
tp4991
g12
I00
S'\x00\x00\x00\x00\x00\x00\x00\x00'
p4992
tp4993
baa(lp4994
g2
(g3
(I0
tp4995
g5
tp4996
Rp4997
(I1
(I1
tp4998
g12
I00
S'>\xa6\xaa\xef\x0b\xf0\xb5?'
p4999
tp5000
bag2
(g3
(I0
tp5001
g5
tp5002
Rp5003
(I1
(I1
tp5004
g12
I00
S'>\xa6\xaa\xef\x0b\xf0\xb5?'
p5005
tp5006
bag2
(g3
(I0
tp5007
g5
tp5008
Rp5009
(I1
(I1
tp5010
g12
I00
S'\x00\x00\x00\x00\x00\x00\x00\x00'
p5011
tp5012
baa(lp5013
g2
(g3
(I0
tp5014
g5
tp5015
Rp5016
(I1
(I1
tp5017
g12
I00
S'\\\xde\x80\xb5y$\xb6?'
p5018
tp5019
bag2
(g3
(I0
tp5020
g5
tp5021
Rp5022
(I1
(I1
tp5023
g12
I00
S'\\\xde\x80\xb5y$\xb6?'
p5024
tp5025
bag2
(g3
(I0
tp5026
g5
tp5027
Rp5028
(I1
(I1
tp5029
g12
I00
S'\x00\x00\x00\x00\x00\x00\x00\x00'
p5030
tp5031
baa(lp5032
g2
(g3
(I0
tp5033
g5
tp5034
Rp5035
(I1
(I1
tp5036
g12
I00
S'\x98N-AU\x8d\xb6?'
p5037
tp5038
bag2
(g3
(I0
tp5039
g5
tp5040
Rp5041
(I1
(I1
tp5042
g12
I00
S'\x98N-AU\x8d\xb6?'
p5043
tp5044
bag2
(g3
(I0
tp5045
g5
tp5046
Rp5047
(I1
(I1
tp5048
g12
I00
S'\x00\x00\x00\x00\x00\x00\x00\x00'
p5049
tp5050
baa(lp5051
g5035
ag5041
ag5047
aa(lp5052
g2
(g3
(I0
tp5053
g5
tp5054
Rp5055
(I1
(I1
tp5056
g12
I00
S'\xb6\x86\x03\x07\xc3\xc1\xb6?'
p5057
tp5058
bag2
(g3
(I0
tp5059
g5
tp5060
Rp5061
(I1
(I1
tp5062
g12
I00
S'\xb6\x86\x03\x07\xc3\xc1\xb6?'
p5063
tp5064
bag2
(g3
(I0
tp5065
g5
tp5066
Rp5067
(I1
(I1
tp5068
g12
I00
S'\x00\x00\x00\x00\x00\x00\x00\x00'
p5069
tp5070
baa(lp5071
g2
(g3
(I0
tp5072
g5
tp5073
Rp5074
(I1
(I1
tp5075
g12
I00
S'\xe0\xc0\xd9\xcc0\xf6\xb6?'
p5076
tp5077
bag2
(g3
(I0
tp5078
g5
tp5079
Rp5080
(I1
(I1
tp5081
g12
I00
S'\xe0\xc0\xd9\xcc0\xf6\xb6?'
p5082
tp5083
bag2
(g3
(I0
tp5084
g5
tp5085
Rp5086
(I1
(I1
tp5087
g12
I00
S'\x00\x00\x00\x00\x00\x00\x00\x00'
p5088
tp5089
baa(lp5090
g2
(g3
(I0
tp5091
g5
tp5092
Rp5093
(I1
(I1
tp5094
g12
I00
S'\xfe\xf8\xaf\x92\x9e*\xb7?'
p5095
tp5096
bag2
(g3
(I0
tp5097
g5
tp5098
Rp5099
(I1
(I1
tp5100
g12
I00
S'\xfe\xf8\xaf\x92\x9e*\xb7?'
p5101
tp5102
bag2
(g3
(I0
tp5103
g5
tp5104
Rp5105
(I1
(I1
tp5106
g12
I00
S'\x00\x00\x00\x00\x00\x00\x00\x00'
p5107
tp5108
baa(lp5109
g2
(g3
(I0
tp5110
g5
tp5111
Rp5112
(I1
(I1
tp5113
g12
I00
S'\x1c1\x86X\x0c_\xb7?'
p5114
tp5115
bag2
(g3
(I0
tp5116
g5
tp5117
Rp5118
(I1
(I1
tp5119
g12
I00
S'\x1c1\x86X\x0c_\xb7?'
p5120
tp5121
bag2
(g3
(I0
tp5122
g5
tp5123
Rp5124
(I1
(I1
tp5125
g12
I00
S'\x00\x00\x00\x00\x00\x00\x00\x00'
p5126
tp5127
baa(lp5128
g2
(g3
(I0
tp5129
g5
tp5130
Rp5131
(I1
(I1
tp5132
g12
I00
S':i\\\x1ez\x93\xb7?'
p5133
tp5134
bag2
(g3
(I0
tp5135
g5
tp5136
Rp5137
(I1
(I1
tp5138
g12
I00
S':i\\\x1ez\x93\xb7?'
p5139
tp5140
bag2
(g3
(I0
tp5141
g5
tp5142
Rp5143
(I1
(I1
tp5144
g12
I00
S'\x00\x00\x00\x00\x00\x00\x00\x00'
p5145
tp5146
baa(lp5147
g2
(g3
(I0
tp5148
g5
tp5149
Rp5150
(I1
(I1
tp5151
g12
I00
S'X\xa12\xe4\xe7\xc7\xb7?'
p5152
tp5153
bag2
(g3
(I0
tp5154
g5
tp5155
Rp5156
(I1
(I1
tp5157
g12
I00
S'X\xa12\xe4\xe7\xc7\xb7?'
p5158
tp5159
bag2
(g3
(I0
tp5160
g5
tp5161
Rp5162
(I1
(I1
tp5163
g12
I00
S'\x00\x00\x00\x00\x00\x00\x00\x00'
p5164
tp5165
baa(lp5166
g2
(g3
(I0
tp5167
g5
tp5168
Rp5169
(I1
(I1
tp5170
g12
I00
S'\x82\xdb\x08\xaaU\xfc\xb7?'
p5171
tp5172
bag2
(g3
(I0
tp5173
g5
tp5174
Rp5175
(I1
(I1
tp5176
g12
I00
S'\x82\xdb\x08\xaaU\xfc\xb7?'
p5177
tp5178
bag2
(g3
(I0
tp5179
g5
tp5180
Rp5181
(I1
(I1
tp5182
g12
I00
S'\x00\x00\x00\x00\x00\x00\x00\x00'
p5183
tp5184
baa(lp5185
g2
(g3
(I0
tp5186
g5
tp5187
Rp5188
(I1
(I1
tp5189
g12
I00
S'\xa0\x13\xdfo\xc30\xb8?'
p5190
tp5191
bag2
(g3
(I0
tp5192
g5
tp5193
Rp5194
(I1
(I1
tp5195
g12
I00
S'\xa0\x13\xdfo\xc30\xb8?'
p5196
tp5197
bag2
(g3
(I0
tp5198
g5
tp5199
Rp5200
(I1
(I1
tp5201
g12
I00
S'\x00\x00\x00\x00\x00\x00\x00\x00'
p5202
tp5203
baa(lp5204
g2
(g3
(I0
tp5205
g5
tp5206
Rp5207
(I1
(I1
tp5208
g12
I00
S'\xbeK\xb551e\xb8?'
p5209
tp5210
bag2
(g3
(I0
tp5211
g5
tp5212
Rp5213
(I1
(I1
tp5214
g12
I00
S'\xbeK\xb551e\xb8?'
p5215
tp5216
bag2
(g3
(I0
tp5217
g5
tp5218
Rp5219
(I1
(I1
tp5220
g12
I00
S'\x00\x00\x00\x00\x00\x00\x00\x00'
p5221
tp5222
baa(lp5223
g2
(g3
(I0
tp5224
g5
tp5225
Rp5226
(I1
(I1
tp5227
g12
I00
S'\xdc\x83\x8b\xfb\x9e\x99\xb8?'
p5228
tp5229
bag2
(g3
(I0
tp5230
g5
tp5231
Rp5232
(I1
(I1
tp5233
g12
I00
S'\xdc\x83\x8b\xfb\x9e\x99\xb8?'
p5234
tp5235
bag2
(g3
(I0
tp5236
g5
tp5237
Rp5238
(I1
(I1
tp5239
g12
I00
S'\x00\x00\x00\x00\x00\x00\x00\x00'
p5240
tp5241
baa(lp5242
g2
(g3
(I0
tp5243
g5
tp5244
Rp5245
(I1
(I1
tp5246
g12
I00
S'\xfa\xbba\xc1\x0c\xce\xb8?'
p5247
tp5248
bag2
(g3
(I0
tp5249
g5
tp5250
Rp5251
(I1
(I1
tp5252
g12
I00
S'\xfa\xbba\xc1\x0c\xce\xb8?'
p5253
tp5254
bag2
(g3
(I0
tp5255
g5
tp5256
Rp5257
(I1
(I1
tp5258
g12
I00
S'\x00\x00\x00\x00\x00\x00\x00\x00'
p5259
tp5260
baa(lp5261
g2
(g3
(I0
tp5262
g5
tp5263
Rp5264
(I1
(I1
tp5265
g12
I00
S'$\xf67\x87z\x02\xb9?'
p5266
tp5267
bag2
(g3
(I0
tp5268
g5
tp5269
Rp5270
(I1
(I1
tp5271
g12
I00
S'$\xf67\x87z\x02\xb9?'
p5272
tp5273
bag2
(g3
(I0
tp5274
g5
tp5275
Rp5276
(I1
(I1
tp5277
g12
I00
S'\x00\x00\x00\x00\x00\x00\x00\x00'
p5278
tp5279
baa(lp5280
g2
(g3
(I0
tp5281
g5
tp5282
Rp5283
(I1
(I1
tp5284
g12
I00
S'`f\xe4\x12Vk\xb9?'
p5285
tp5286
bag2
(g3
(I0
tp5287
g5
tp5288
Rp5289
(I1
(I1
tp5290
g12
I00
S'`f\xe4\x12Vk\xb9?'
p5291
tp5292
bag2
(g3
(I0
tp5293
g5
tp5294
Rp5295
(I1
(I1
tp5296
g12
I00
S'\x00\x00\x00\x00\x00\x00\x00\x00'
p5297
tp5298
baa(lp5299
g5283
ag5289
ag5295
aa(lp5300
g2
(g3
(I0
tp5301
g5
tp5302
Rp5303
(I1
(I1
tp5304
g12
I00
S'~\x9e\xba\xd8\xc3\x9f\xb9?'
p5305
tp5306
bag2
(g3
(I0
tp5307
g5
tp5308
Rp5309
(I1
(I1
tp5310
g12
I00
S'~\x9e\xba\xd8\xc3\x9f\xb9?'
p5311
tp5312
bag2
(g3
(I0
tp5313
g5
tp5314
Rp5315
(I1
(I1
tp5316
g12
I00
S'\x00\x00\x00\x00\x00\x00\x00\x00'
p5317
tp5318
baa(lp5319
g2
(g3
(I0
tp5320
g5
tp5321
Rp5322
(I1
(I1
tp5323
g12
I00
S'\x9c\xd6\x90\x9e1\xd4\xb9?'
p5324
tp5325
bag2
(g3
(I0
tp5326
g5
tp5327
Rp5328
(I1
(I1
tp5329
g12
I00
S'\x9c\xd6\x90\x9e1\xd4\xb9?'
p5330
tp5331
bag2
(g3
(I0
tp5332
g5
tp5333
Rp5334
(I1
(I1
tp5335
g12
I00
S'\x00\x00\x00\x00\x00\x00\x00\x00'
p5336
tp5337
baa(lp5338
g2
(g3
(I0
tp5339
g5
tp5340
Rp5341
(I1
(I1
tp5342
g12
I00
S'\xc6\x10gd\x9f\x08\xba?'
p5343
tp5344
bag2
(g3
(I0
tp5345
g5
tp5346
Rp5347
(I1
(I1
tp5348
g12
I00
S'\xc6\x10gd\x9f\x08\xba?'
p5349
tp5350
bag2
(g3
(I0
tp5351
g5
tp5352
Rp5353
(I1
(I1
tp5354
g12
I00
S'\x00\x00\x00\x00\x00\x00\x00\x00'
p5355
tp5356
baa(lp5357
g2
(g3
(I0
tp5358
g5
tp5359
Rp5360
(I1
(I1
tp5361
g12
I00
S'\xe4H=*\r=\xba?'
p5362
tp5363
bag2
(g3
(I0
tp5364
g5
tp5365
Rp5366
(I1
(I1
tp5367
g12
I00
S'\xe4H=*\r=\xba?'
p5368
tp5369
bag2
(g3
(I0
tp5370
g5
tp5371
Rp5372
(I1
(I1
tp5373
g12
I00
S'\x00\x00\x00\x00\x00\x00\x00\x00'
p5374
tp5375
baa(lp5376
g2
(g3
(I0
tp5377
g5
tp5378
Rp5379
(I1
(I1
tp5380
g12
I00
S'\x02\x81\x13\xf0zq\xba?'
p5381
tp5382
bag2
(g3
(I0
tp5383
g5
tp5384
Rp5385
(I1
(I1
tp5386
g12
I00
S'\x02\x81\x13\xf0zq\xba?'
p5387
tp5388
bag2
(g3
(I0
tp5389
g5
tp5390
Rp5391
(I1
(I1
tp5392
g12
I00
S'\x00\x00\x00\x00\x00\x00\x00\x00'
p5393
tp5394
baa(lp5395
g2
(g3
(I0
tp5396
g5
tp5397
Rp5398
(I1
(I1
tp5399
g12
I00
S' \xb9\xe9\xb5\xe8\xa5\xba?'
p5400
tp5401
bag2
(g3
(I0
tp5402
g5
tp5403
Rp5404
(I1
(I1
tp5405
g12
I00
S' \xb9\xe9\xb5\xe8\xa5\xba?'
p5406
tp5407
bag2
(g3
(I0
tp5408
g5
tp5409
Rp5410
(I1
(I1
tp5411
g12
I00
S'\x00\x00\x00\x00\x00\x00\x00\x00'
p5412
tp5413
baa(lp5414
g2
(g3
(I0
tp5415
g5
tp5416
Rp5417
(I1
(I1
tp5418
g12
I00
S'>\xf1\xbf{V\xda\xba?'
p5419
tp5420
bag2
(g3
(I0
tp5421
g5
tp5422
Rp5423
(I1
(I1
tp5424
g12
I00
S'>\xf1\xbf{V\xda\xba?'
p5425
tp5426
bag2
(g3
(I0
tp5427
g5
tp5428
Rp5429
(I1
(I1
tp5430
g12
I00
S'\x00\x00\x00\x00\x00\x00\x00\x00'
p5431
tp5432
baa(lp5433
g2
(g3
(I0
tp5434
g5
tp5435
Rp5436
(I1
(I1
tp5437
g12
I00
S'h+\x96A\xc4\x0e\xbb?'
p5438
tp5439
bag2
(g3
(I0
tp5440
g5
tp5441
Rp5442
(I1
(I1
tp5443
g12
I00
S'h+\x96A\xc4\x0e\xbb?'
p5444
tp5445
bag2
(g3
(I0
tp5446
g5
tp5447
Rp5448
(I1
(I1
tp5449
g12
I00
S'\x00\x00\x00\x00\x00\x00\x00\x00'
p5450
tp5451
baa(lp5452
g2
(g3
(I0
tp5453
g5
tp5454
Rp5455
(I1
(I1
tp5456
g12
I00
S'\x86cl\x072C\xbb?'
p5457
tp5458
bag2
(g3
(I0
tp5459
g5
tp5460
Rp5461
(I1
(I1
tp5462
g12
I00
S'\x86cl\x072C\xbb?'
p5463
tp5464
bag2
(g3
(I0
tp5465
g5
tp5466
Rp5467
(I1
(I1
tp5468
g12
I00
S'\x00\x00\x00\x00\x00\x00\x00\x00'
p5469
tp5470
baa(lp5471
g2
(g3
(I0
tp5472
g5
tp5473
Rp5474
(I1
(I1
tp5475
g12
I00
S'\xa4\x9bB\xcd\x9fw\xbb?'
p5476
tp5477
bag2
(g3
(I0
tp5478
g5
tp5479
Rp5480
(I1
(I1
tp5481
g12
I00
S'\xa4\x9bB\xcd\x9fw\xbb?'
p5482
tp5483
bag2
(g3
(I0
tp5484
g5
tp5485
Rp5486
(I1
(I1
tp5487
g12
I00
S'\x00\x00\x00\x00\x00\x00\x00\x00'
p5488
tp5489
baa(lp5490
g2
(g3
(I0
tp5491
g5
tp5492
Rp5493
(I1
(I1
tp5494
g12
I00
S'\xc2\xd3\x18\x93\r\xac\xbb?'
p5495
tp5496
bag2
(g3
(I0
tp5497
g5
tp5498
Rp5499
(I1
(I1
tp5500
g12
I00
S'\xc2\xd3\x18\x93\r\xac\xbb?'
p5501
tp5502
bag2
(g3
(I0
tp5503
g5
tp5504
Rp5505
(I1
(I1
tp5506
g12
I00
S'\x00\x00\x00\x00\x00\x00\x00\x00'
p5507
tp5508
baa(lp5509
g2
(g3
(I0
tp5510
g5
tp5511
Rp5512
(I1
(I1
tp5513
g12
I00
S'\xe0\x0b\xefX{\xe0\xbb?'
p5514
tp5515
bag2
(g3
(I0
tp5516
g5
tp5517
Rp5518
(I1
(I1
tp5519
g12
I00
S'\xe0\x0b\xefX{\xe0\xbb?'
p5520
tp5521
bag2
(g3
(I0
tp5522
g5
tp5523
Rp5524
(I1
(I1
tp5525
g12
I00
S'\x00\x00\x00\x00\x00\x00\x00\x00'
p5526
tp5527
baa(lp5528
g2
(g3
(I0
tp5529
g5
tp5530
Rp5531
(I1
(I1
tp5532
g12
I00
S'(~\x9b\xe4VI\xbc?'
p5533
tp5534
bag2
(g3
(I0
tp5535
g5
tp5536
Rp5537
(I1
(I1
tp5538
g12
I00
S'(~\x9b\xe4VI\xbc?'
p5539
tp5540
bag2
(g3
(I0
tp5541
g5
tp5542
Rp5543
(I1
(I1
tp5544
g12
I00
S'\x00\x00\x00\x00\x00\x00\x00\x00'
p5545
tp5546
baa(lp5547
g5531
ag5537
ag5543
aa(lp5548
g2
(g3
(I0
tp5549
g5
tp5550
Rp5551
(I1
(I1
tp5552
g12
I00
S'F\xb6q\xaa\xc4}\xbc?'
p5553
tp5554
bag2
(g3
(I0
tp5555
g5
tp5556
Rp5557
(I1
(I1
tp5558
g12
I00
S'F\xb6q\xaa\xc4}\xbc?'
p5559
tp5560
bag2
(g3
(I0
tp5561
g5
tp5562
Rp5563
(I1
(I1
tp5564
g12
I00
S'\x00\x00\x00\x00\x00\x00\x00\x00'
p5565
tp5566
baa(lp5567
g2
(g3
(I0
tp5568
g5
tp5569
Rp5570
(I1
(I1
tp5571
g12
I00
S'd\xeeGp2\xb2\xbc?'
p5572
tp5573
bag2
(g3
(I0
tp5574
g5
tp5575
Rp5576
(I1
(I1
tp5577
g12
I00
S'd\xeeGp2\xb2\xbc?'
p5578
tp5579
bag2
(g3
(I0
tp5580
g5
tp5581
Rp5582
(I1
(I1
tp5583
g12
I00
S'\x00\x00\x00\x00\x00\x00\x00\x00'
p5584
tp5585
baa(lp5586
g2
(g3
(I0
tp5587
g5
tp5588
Rp5589
(I1
(I1
tp5590
g12
I00
S'\x82&\x1e6\xa0\xe6\xbc?'
p5591
tp5592
bag2
(g3
(I0
tp5593
g5
tp5594
Rp5595
(I1
(I1
tp5596
g12
I00
S'\x82&\x1e6\xa0\xe6\xbc?'
p5597
tp5598
bag2
(g3
(I0
tp5599
g5
tp5600
Rp5601
(I1
(I1
tp5602
g12
I00
S'\x00\x00\x00\x00\x00\x00\x00\x00'
p5603
tp5604
baa(lp5605
g2
(g3
(I0
tp5606
g5
tp5607
Rp5608
(I1
(I1
tp5609
g12
I00
S'\xac`\xf4\xfb\r\x1b\xbd?'
p5610
tp5611
bag2
(g3
(I0
tp5612
g5
tp5613
Rp5614
(I1
(I1
tp5615
g12
I00
S'\xac`\xf4\xfb\r\x1b\xbd?'
p5616
tp5617
bag2
(g3
(I0
tp5618
g5
tp5619
Rp5620
(I1
(I1
tp5621
g12
I00
S'\x00\x00\x00\x00\x00\x00\x00\x00'
p5622
tp5623
baa(lp5624
g2
(g3
(I0
tp5625
g5
tp5626
Rp5627
(I1
(I1
tp5628
g12
I00
S'\xca\x98\xca\xc1{O\xbd?'
p5629
tp5630
bag2
(g3
(I0
tp5631
g5
tp5632
Rp5633
(I1
(I1
tp5634
g12
I00
S'\xca\x98\xca\xc1{O\xbd?'
p5635
tp5636
bag2
(g3
(I0
tp5637
g5
tp5638
Rp5639
(I1
(I1
tp5640
g12
I00
S'\x00\x00\x00\x00\x00\x00\x00\x00'
p5641
tp5642
baa(lp5643
g2
(g3
(I0
tp5644
g5
tp5645
Rp5646
(I1
(I1
tp5647
g12
I00
S'\xe8\xd0\xa0\x87\xe9\x83\xbd?'
p5648
tp5649
bag2
(g3
(I0
tp5650
g5
tp5651
Rp5652
(I1
(I1
tp5653
g12
I00
S'\xe8\xd0\xa0\x87\xe9\x83\xbd?'
p5654
tp5655
bag2
(g3
(I0
tp5656
g5
tp5657
Rp5658
(I1
(I1
tp5659
g12
I00
S'\x00\x00\x00\x00\x00\x00\x00\x00'
p5660
tp5661
baa(lp5662
g2
(g3
(I0
tp5663
g5
tp5664
Rp5665
(I1
(I1
tp5666
g12
I00
S'\x06\twMW\xb8\xbd?'
p5667
tp5668
bag2
(g3
(I0
tp5669
g5
tp5670
Rp5671
(I1
(I1
tp5672
g12
I00
S'\x06\twMW\xb8\xbd?'
p5673
tp5674
bag2
(g3
(I0
tp5675
g5
tp5676
Rp5677
(I1
(I1
tp5678
g12
I00
S'\x00\x00\x00\x00\x00\x00\x00\x00'
p5679
tp5680
baa(lp5681
g2
(g3
(I0
tp5682
g5
tp5683
Rp5684
(I1
(I1
tp5685
g12
I00
S'$AM\x13\xc5\xec\xbd?'
p5686
tp5687
bag2
(g3
(I0
tp5688
g5
tp5689
Rp5690
(I1
(I1
tp5691
g12
I00
S'$AM\x13\xc5\xec\xbd?'
p5692
tp5693
bag2
(g3
(I0
tp5694
g5
tp5695
Rp5696
(I1
(I1
tp5697
g12
I00
S'\x00\x00\x00\x00\x00\x00\x00\x00'
p5698
tp5699
baa(lp5700
g2
(g3
(I0
tp5701
g5
tp5702
Rp5703
(I1
(I1
tp5704
g12
I00
S'N{#\xd92!\xbe?'
p5705
tp5706
bag2
(g3
(I0
tp5707
g5
tp5708
Rp5709
(I1
(I1
tp5710
g12
I00
S'N{#\xd92!\xbe?'
p5711
tp5712
bag2
(g3
(I0
tp5713
g5
tp5714
Rp5715
(I1
(I1
tp5716
g12
I00
S'\x00\x00\x00\x00\x00\x00\x00\x00'
p5717
tp5718
baa(lp5719
g2
(g3
(I0
tp5720
g5
tp5721
Rp5722
(I1
(I1
tp5723
g12
I00
S'l\xb3\xf9\x9e\xa0U\xbe?'
p5724
tp5725
bag2
(g3
(I0
tp5726
g5
tp5727
Rp5728
(I1
(I1
tp5729
g12
I00
S'l\xb3\xf9\x9e\xa0U\xbe?'
p5730
tp5731
bag2
(g3
(I0
tp5732
g5
tp5733
Rp5734
(I1
(I1
tp5735
g12
I00
S'\x00\x00\x00\x00\x00\x00\x00\x00'
p5736
tp5737
baa(lp5738
g2
(g3
(I0
tp5739
g5
tp5740
Rp5741
(I1
(I1
tp5742
g12
I00
S'\x8a\xeb\xcfd\x0e\x8a\xbe?'
p5743
tp5744
bag2
(g3
(I0
tp5745
g5
tp5746
Rp5747
(I1
(I1
tp5748
g12
I00
S'\x8a\xeb\xcfd\x0e\x8a\xbe?'
p5749
tp5750
bag2
(g3
(I0
tp5751
g5
tp5752
Rp5753
(I1
(I1
tp5754
g12
I00
S'\x00\x00\x00\x00\x00\x00\x00\x00'
p5755
tp5756
baa(lp5757
g2
(g3
(I0
tp5758
g5
tp5759
Rp5760
(I1
(I1
tp5761
g12
I00
S'\xa8#\xa6*|\xbe\xbe?'
p5762
tp5763
bag2
(g3
(I0
tp5764
g5
tp5765
Rp5766
(I1
(I1
tp5767
g12
I00
S'\xa8#\xa6*|\xbe\xbe?'
p5768
tp5769
bag2
(g3
(I0
tp5770
g5
tp5771
Rp5772
(I1
(I1
tp5773
g12
I00
S'\x00\x00\x00\x00\x00\x00\x00\x00'
p5774
tp5775
baa(lp5776
g2
(g3
(I0
tp5777
g5
tp5778
Rp5779
(I1
(I1
tp5780
g12
I00
S'\xc6[|\xf0\xe9\xf2\xbe?'
p5781
tp5782
bag2
(g3
(I0
tp5783
g5
tp5784
Rp5785
(I1
(I1
tp5786
g12
I00
S'\xc6[|\xf0\xe9\xf2\xbe?'
p5787
tp5788
bag2
(g3
(I0
tp5789
g5
tp5790
Rp5791
(I1
(I1
tp5792
g12
I00
S'\x00\x00\x00\x00\x00\x00\x00\x00'
p5793
tp5794
baa(lp5795
g2
(g3
(I0
tp5796
g5
tp5797
Rp5798
(I1
(I1
tp5799
g12
I00
S"\xf0\x95R\xb6W'\xbf?"
p5800
tp5801
bag2
(g3
(I0
tp5802
g5
tp5803
Rp5804
(I1
(I1
tp5805
g12
I00
S"\xf0\x95R\xb6W'\xbf?"
p5806
tp5807
bag2
(g3
(I0
tp5808
g5
tp5809
Rp5810
(I1
(I1
tp5811
g12
I00
S'\x00\x00\x00\x00\x00\x00\x00\x00'
p5812
tp5813
baa(lp5814
g2
(g3
(I0
tp5815
g5
tp5816
Rp5817
(I1
(I1
tp5818
g12
I00
S'\x0e\xce(|\xc5[\xbf?'
p5819
tp5820
bag2
(g3
(I0
tp5821
g5
tp5822
Rp5823
(I1
(I1
tp5824
g12
I00
S'\x0e\xce(|\xc5[\xbf?'
p5825
tp5826
bag2
(g3
(I0
tp5827
g5
tp5828
Rp5829
(I1
(I1
tp5830
g12
I00
S'\x00\x00\x00\x00\x00\x00\x00\x00'
p5831
tp5832
baa(lp5833
g2
(g3
(I0
tp5834
g5
tp5835
Rp5836
(I1
(I1
tp5837
g12
I00
S',\x06\xffA3\x90\xbf?'
p5838
tp5839
bag2
(g3
(I0
tp5840
g5
tp5841
Rp5842
(I1
(I1
tp5843
g12
I00
S',\x06\xffA3\x90\xbf?'
p5844
tp5845
bag2
(g3
(I0
tp5846
g5
tp5847
Rp5848
(I1
(I1
tp5849
g12
I00
S'\x00\x00\x00\x00\x00\x00\x00\x00'
p5850
tp5851
baa(lp5852
g2
(g3
(I0
tp5853
g5
tp5854
Rp5855
(I1
(I1
tp5856
g12
I00
S'J>\xd5\x07\xa1\xc4\xbf?'
p5857
tp5858
bag2
(g3
(I0
tp5859
g5
tp5860
Rp5861
(I1
(I1
tp5862
g12
I00
S'J>\xd5\x07\xa1\xc4\xbf?'
p5863
tp5864
bag2
(g3
(I0
tp5865
g5
tp5866
Rp5867
(I1
(I1
tp5868
g12
I00
S'\x00\x00\x00\x00\x00\x00\x00\x00'
p5869
tp5870
baa(lp5871
g2
(g3
(I0
tp5872
g5
tp5873
Rp5874
(I1
(I1
tp5875
g12
I00
S'hv\xab\xcd\x0e\xf9\xbf?'
p5876
tp5877
bag2
(g3
(I0
tp5878
g5
tp5879
Rp5880
(I1
(I1
tp5881
g12
I00
S'hv\xab\xcd\x0e\xf9\xbf?'
p5882
tp5883
bag2
(g3
(I0
tp5884
g5
tp5885
Rp5886
(I1
(I1
tp5887
g12
I00
S'\x00\x00\x00\x00\x00\x00\x00\x00'
p5888
tp5889
baa(lp5890
g2
(g3
(I0
tp5891
g5
tp5892
Rp5893
(I1
(I1
tp5894
g12
I00
S'I\xd8\xc0I\xbe\x16\xc0?'
p5895
tp5896
bag2
(g3
(I0
tp5897
g5
tp5898
Rp5899
(I1
(I1
tp5900
g12
I00
S'I\xd8\xc0I\xbe\x16\xc0?'
p5901
tp5902
bag2
(g3
(I0
tp5903
g5
tp5904
Rp5905
(I1
(I1
tp5906
g12
I00
S'\x00\x00\x00\x00\x00\x00\x00\x00'
p5907
tp5908
baa(lp5909
g2
(g3
(I0
tp5910
g5
tp5911
Rp5912
(I1
(I1
tp5913
g12
I00
S'X\xf4\xab,\xf50\xc0?'
p5914
tp5915
bag2
(g3
(I0
tp5916
g5
tp5917
Rp5918
(I1
(I1
tp5919
g12
I00
S'X\xf4\xab,\xf50\xc0?'
p5920
tp5921
bag2
(g3
(I0
tp5922
g5
tp5923
Rp5924
(I1
(I1
tp5925
g12
I00
S'\x00\x00\x00\x00\x00\x00\x00\x00'
p5926
tp5927
baa(lp5928
g2
(g3
(I0
tp5929
g5
tp5930
Rp5931
(I1
(I1
tp5932
g12
I00
S'g\x10\x97\x0f,K\xc0?'
p5933
tp5934
bag2
(g3
(I0
tp5935
g5
tp5936
Rp5937
(I1
(I1
tp5938
g12
I00
S'g\x10\x97\x0f,K\xc0?'
p5939
tp5940
bag2
(g3
(I0
tp5941
g5
tp5942
Rp5943
(I1
(I1
tp5944
g12
I00
S'\x00\x00\x00\x00\x00\x00\x00\x00'
p5945
tp5946
baa(lp5947
g2
(g3
(I0
tp5948
g5
tp5949
Rp5950
(I1
(I1
tp5951
g12
I00
S'v,\x82\xf2be\xc0?'
p5952
tp5953
bag2
(g3
(I0
tp5954
g5
tp5955
Rp5956
(I1
(I1
tp5957
g12
I00
S'v,\x82\xf2be\xc0?'
p5958
tp5959
bag2
(g3
(I0
tp5960
g5
tp5961
Rp5962
(I1
(I1
tp5963
g12
I00
S'\x00\x00\x00\x00\x00\x00\x00\x00'
p5964
tp5965
baa(lp5966
g2
(g3
(I0
tp5967
g5
tp5968
Rp5969
(I1
(I1
tp5970
g12
I00
S'\x85Hm\xd5\x99\x7f\xc0?'
p5971
tp5972
bag2
(g3
(I0
tp5973
g5
tp5974
Rp5975
(I1
(I1
tp5976
g12
I00
S'\x85Hm\xd5\x99\x7f\xc0?'
p5977
tp5978
bag2
(g3
(I0
tp5979
g5
tp5980
Rp5981
(I1
(I1
tp5982
g12
I00
S'\x00\x00\x00\x00\x00\x00\x00\x00'
p5983
tp5984
baa(lp5985
g2
(g3
(I0
tp5986
g5
tp5987
Rp5988
(I1
(I1
tp5989
g12
I00
S'\x9aeX\xb8\xd0\x99\xc0?'
p5990
tp5991
bag2
(g3
(I0
tp5992
g5
tp5993
Rp5994
(I1
(I1
tp5995
g12
I00
S'\x9aeX\xb8\xd0\x99\xc0?'
p5996
tp5997
bag2
(g3
(I0
tp5998
g5
tp5999
Rp6000
(I1
(I1
tp6001
g12
I00
S'\x00\x00\x00\x00\x00\x00\x00\x00'
p6002
tp6003
baa(lp6004
g2
(g3
(I0
tp6005
g5
tp6006
Rp6007
(I1
(I1
tp6008
g12
I00
S'\xa9\x81C\x9b\x07\xb4\xc0?'
p6009
tp6010
bag2
(g3
(I0
tp6011
g5
tp6012
Rp6013
(I1
(I1
tp6014
g12
I00
S'\xa9\x81C\x9b\x07\xb4\xc0?'
p6015
tp6016
bag2
(g3
(I0
tp6017
g5
tp6018
Rp6019
(I1
(I1
tp6020
g12
I00
S'\x00\x00\x00\x00\x00\x00\x00\x00'
p6021
tp6022
baa(lp6023
g2
(g3
(I0
tp6024
g5
tp6025
Rp6026
(I1
(I1
tp6027
g12
I00
S'\xb8\x9d.~>\xce\xc0?'
p6028
tp6029
bag2
(g3
(I0
tp6030
g5
tp6031
Rp6032
(I1
(I1
tp6033
g12
I00
S'\xb8\x9d.~>\xce\xc0?'
p6034
tp6035
bag2
(g3
(I0
tp6036
g5
tp6037
Rp6038
(I1
(I1
tp6039
g12
I00
S'\x00\x00\x00\x00\x00\x00\x00\x00'
p6040
tp6041
baa(lp6042
g2
(g3
(I0
tp6043
g5
tp6044
Rp6045
(I1
(I1
tp6046
g12
I00
S'\xd6\xd5\x04D\xac\x02\xc1?'
p6047
tp6048
bag2
(g3
(I0
tp6049
g5
tp6050
Rp6051
(I1
(I1
tp6052
g12
I00
S'\xd6\xd5\x04D\xac\x02\xc1?'
p6053
tp6054
bag2
(g3
(I0
tp6055
g5
tp6056
Rp6057
(I1
(I1
tp6058
g12
I00
S'\x00\x00\x00\x00\x00\x00\x00\x00'
p6059
tp6060
baa(lp6061
g6045
ag6051
ag6057
aa(lp6062
g2
(g3
(I0
tp6063
g5
tp6064
Rp6065
(I1
(I1
tp6066
g12
I00
S'\xeb\xf2\xef&\xe3\x1c\xc1?'
p6067
tp6068
bag2
(g3
(I0
tp6069
g5
tp6070
Rp6071
(I1
(I1
tp6072
g12
I00
S'\xeb\xf2\xef&\xe3\x1c\xc1?'
p6073
tp6074
bag2
(g3
(I0
tp6075
g5
tp6076
Rp6077
(I1
(I1
tp6078
g12
I00
S'\x00\x00\x00\x00\x00\x00\x00\x00'
p6079
tp6080
baa(lp6081
g2
(g3
(I0
tp6082
g5
tp6083
Rp6084
(I1
(I1
tp6085
g12
I00
S'\xfa\x0e\xdb\t\x1a7\xc1?'
p6086
tp6087
bag2
(g3
(I0
tp6088
g5
tp6089
Rp6090
(I1
(I1
tp6091
g12
I00
S'\xfa\x0e\xdb\t\x1a7\xc1?'
p6092
tp6093
bag2
(g3
(I0
tp6094
g5
tp6095
Rp6096
(I1
(I1
tp6097
g12
I00
S'\x00\x00\x00\x00\x00\x00\x00\x00'
p6098
tp6099
baa(lp6100
g2
(g3
(I0
tp6101
g5
tp6102
Rp6103
(I1
(I1
tp6104
g12
I00
S'\t+\xc6\xecPQ\xc1?'
p6105
tp6106
bag2
(g3
(I0
tp6107
g5
tp6108
Rp6109
(I1
(I1
tp6110
g12
I00
S'\t+\xc6\xecPQ\xc1?'
p6111
tp6112
bag2
(g3
(I0
tp6113
g5
tp6114
Rp6115
(I1
(I1
tp6116
g12
I00
S'\x00\x00\x00\x00\x00\x00\x00\x00'
p6117
tp6118
baa(lp6119
g2
(g3
(I0
tp6120
g5
tp6121
Rp6122
(I1
(I1
tp6123
g12
I00
S'\x18G\xb1\xcf\x87k\xc1?'
p6124
tp6125
bag2
(g3
(I0
tp6126
g5
tp6127
Rp6128
(I1
(I1
tp6129
g12
I00
S'\x18G\xb1\xcf\x87k\xc1?'
p6130
tp6131
bag2
(g3
(I0
tp6132
g5
tp6133
Rp6134
(I1
(I1
tp6135
g12
I00
S'\x00\x00\x00\x00\x00\x00\x00\x00'
p6136
tp6137
baa(lp6138
g2
(g3
(I0
tp6139
g5
tp6140
Rp6141
(I1
(I1
tp6142
g12
I00
S"'c\x9c\xb2\xbe\x85\xc1?"
p6143
tp6144
bag2
(g3
(I0
tp6145
g5
tp6146
Rp6147
(I1
(I1
tp6148
g12
I00
S"'c\x9c\xb2\xbe\x85\xc1?"
p6149
tp6150
bag2
(g3
(I0
tp6151
g5
tp6152
Rp6153
(I1
(I1
tp6154
g12
I00
S'\x00\x00\x00\x00\x00\x00\x00\x00'
p6155
tp6156
baa(lp6157
g2
(g3
(I0
tp6158
g5
tp6159
Rp6160
(I1
(I1
tp6161
g12
I00
S'<\x80\x87\x95\xf5\x9f\xc1?'
p6162
tp6163
bag2
(g3
(I0
tp6164
g5
tp6165
Rp6166
(I1
(I1
tp6167
g12
I00
S'<\x80\x87\x95\xf5\x9f\xc1?'
p6168
tp6169
bag2
(g3
(I0
tp6170
g5
tp6171
Rp6172
(I1
(I1
tp6173
g12
I00
S'\x00\x00\x00\x00\x00\x00\x00\x00'
p6174
tp6175
baa(lp6176
g2
(g3
(I0
tp6177
g5
tp6178
Rp6179
(I1
(I1
tp6180
g12
I00
S'K\x9crx,\xba\xc1?'
p6181
tp6182
bag2
(g3
(I0
tp6183
g5
tp6184
Rp6185
(I1
(I1
tp6186
g12
I00
S'K\x9crx,\xba\xc1?'
p6187
tp6188
bag2
(g3
(I0
tp6189
g5
tp6190
Rp6191
(I1
(I1
tp6192
g12
I00
S'\x00\x00\x00\x00\x00\x00\x00\x00'
p6193
tp6194
baa(lp6195
g2
(g3
(I0
tp6196
g5
tp6197
Rp6198
(I1
(I1
tp6199
g12
I00
S'Z\xb8][c\xd4\xc1?'
p6200
tp6201
bag2
(g3
(I0
tp6202
g5
tp6203
Rp6204
(I1
(I1
tp6205
g12
I00
S'Z\xb8][c\xd4\xc1?'
p6206
tp6207
bag2
(g3
(I0
tp6208
g5
tp6209
Rp6210
(I1
(I1
tp6211
g12
I00
S'\x00\x00\x00\x00\x00\x00\x00\x00'
p6212
tp6213
baa(lp6214
g2
(g3
(I0
tp6215
g5
tp6216
Rp6217
(I1
(I1
tp6218
g12
I00
S'i\xd4H>\x9a\xee\xc1?'
p6219
tp6220
bag2
(g3
(I0
tp6221
g5
tp6222
Rp6223
(I1
(I1
tp6224
g12
I00
S'i\xd4H>\x9a\xee\xc1?'
p6225
tp6226
bag2
(g3
(I0
tp6227
g5
tp6228
Rp6229
(I1
(I1
tp6230
g12
I00
S'\x00\x00\x00\x00\x00\x00\x00\x00'
p6231
tp6232
baa(lp6233
g2
(g3
(I0
tp6234
g5
tp6235
Rp6236
(I1
(I1
tp6237
g12
I00
S'x\xf03!\xd1\x08\xc2?'
p6238
tp6239
bag2
(g3
(I0
tp6240
g5
tp6241
Rp6242
(I1
(I1
tp6243
g12
I00
S'x\xf03!\xd1\x08\xc2?'
p6244
tp6245
bag2
(g3
(I0
tp6246
g5
tp6247
Rp6248
(I1
(I1
tp6249
g12
I00
S'\x00\x00\x00\x00\x00\x00\x00\x00'
p6250
tp6251
baa(lp6252
g2
(g3
(I0
tp6253
g5
tp6254
Rp6255
(I1
(I1
tp6256
g12
I00
S'\x8d\r\x1f\x04\x08#\xc2?'
p6257
tp6258
bag2
(g3
(I0
tp6259
g5
tp6260
Rp6261
(I1
(I1
tp6262
g12
I00
S'\x8d\r\x1f\x04\x08#\xc2?'
p6263
tp6264
bag2
(g3
(I0
tp6265
g5
tp6266
Rp6267
(I1
(I1
tp6268
g12
I00
S'\x00\x00\x00\x00\x00\x00\x00\x00'
p6269
tp6270
baa(lp6271
g2
(g3
(I0
tp6272
g5
tp6273
Rp6274
(I1
(I1
tp6275
g12
I00
S'\x9c)\n\xe7>=\xc2?'
p6276
tp6277
bag2
(g3
(I0
tp6278
g5
tp6279
Rp6280
(I1
(I1
tp6281
g12
I00
S'\x9c)\n\xe7>=\xc2?'
p6282
tp6283
bag2
(g3
(I0
tp6284
g5
tp6285
Rp6286
(I1
(I1
tp6287
g12
I00
S'\x00\x00\x00\x00\x00\x00\x00\x00'
p6288
tp6289
baa(lp6290
g2
(g3
(I0
tp6291
g5
tp6292
Rp6293
(I1
(I1
tp6294
g12
I00
S'\xabE\xf5\xc9uW\xc2?'
p6295
tp6296
bag2
(g3
(I0
tp6297
g5
tp6298
Rp6299
(I1
(I1
tp6300
g12
I00
S'\xabE\xf5\xc9uW\xc2?'
p6301
tp6302
bag2
(g3
(I0
tp6303
g5
tp6304
Rp6305
(I1
(I1
tp6306
g12
I00
S'\x00\x00\x00\x00\x00\x00\x00\x00'
p6307
tp6308
baa.