(lp0
(lp1
F8.2587873934479
aF3.5022522842807198
aF2.8993914645386774
aa(lp2
F8.2587873934479
aF3.5022522842807198
aF2.8993914645386774
aa(lp3
F8.2587873934479
aF3.5022522842807198
aF2.8993914645386774
aa(lp4
F8.2587873934479
aF3.5022522842807198
aF2.8993914645386774
aa(lp5
F8.2587873934479
aF3.5022522842807198
aF2.8993914645386774
aa(lp6
F8.2587873934479
aF3.5022522842807198
aF2.8993914645386774
aa(lp7
F8.2587873934479
aF3.5022522842807198
aF2.8993914645386774
aa(lp8
F8.2587873934479
aF3.5022522842807198
aF2.8993914645386774
aa(lp9
F8.2587873934479
aF3.5022522842807198
aF2.8993914645386774
aa(lp10
F8.2587873934479
aF3.5022522842807198
aF2.8993914645386774
aa(lp11
F8.2587873934479
aF3.5022522842807198
aF2.8993914645386774
aa(lp12
F8.2587873934479
aF3.5022522842807198
aF2.8993914645386774
aa(lp13
F8.2587873934479
aF3.5022522842807198
aF2.8993914645386774
aa(lp14
F8.2587873934479
aF3.5022522842807198
aF2.8993914645386774
aa(lp15
F8.2587873934479
aF3.5022522842807198
aF2.8993914645386774
aa(lp16
F8.2587873934479
aF3.5022522842807198
aF2.8993914645386774
aa(lp17
F8.2587873934479
aF3.5022522842807198
aF2.8993914645386774
aa(lp18
F8.2587873934479
aF3.5022522842807198
aF2.8993914645386774
aa(lp19
F8.2587873934479
aF3.5022522842807198
aF2.8993914645386774
aa(lp20
F8.2587873934479
aF3.5022522842807198
aF2.8993914645386774
aa(lp21
F8.2587873934479
aF3.5022522842807198
aF2.8993914645386774
aa(lp22
F8.2587873934479
aF3.5022522842807198
aF2.8993914645386774
aa(lp23
F8.2587873934479
aF3.5022522842807198
aF2.8993914645386774
aa(lp24
F8.2587873934479
aF3.5022522842807198
aF2.8993914645386774
aa(lp25
F8.2587873934479
aF3.5022522842807198
aF2.8993914645386774
aa(lp26
F8.2587873934479
aF3.5022522842807198
aF2.8993914645386774
aa(lp27
F8.2587873934479
aF3.5022522842807198
aF2.8993914645386774
aa(lp28
F8.2587873934479
aF3.5022522842807198
aF2.8993914645386774
aa(lp29
F8.2587873934479
aF3.5022522842807198
aF2.8993914645386774
aa(lp30
F8.2587873934479
aF3.5022522842807198
aF2.8993914645386774
aa(lp31
F8.2587873934479
aF3.5022522842807198
aF2.8993914645386774
aa(lp32
F8.2587873934479
aF3.5022522842807198
aF2.8993914645386774
aa(lp33
F8.2587873934479
aF3.5022522842807198
aF2.8993914645386774
aa(lp34
F8.2587873934479
aF3.5022522842807198
aF2.8993914645386774
aa(lp35
F8.2587873934479
aF3.5022522842807198
aF2.8993914645386774
aa(lp36
F8.2587873934479
aF3.5022522842807198
aF2.8993914645386774
aa(lp37
F8.2587873934479
aF3.5022522842807198
aF2.8993914645386774
aa(lp38
F8.2587873934479
aF3.5022522842807198
aF2.8993914645386774
aa(lp39
F8.2587873934479
aF3.5022522842807198
aF2.8993914645386774
aa(lp40
F8.2587873934479
aF3.5022522842807198
aF2.8993914645386774
aa(lp41
F8.2587873934479
aF3.5022522842807198
aF2.8993914645386774
aa(lp42
F8.2587873934479
aF3.5022522842807198
aF2.8993914645386774
aa(lp43
F8.2587873934479
aF3.5022522842807198
aF2.8993914645386774
aa(lp44
F8.2587873934479
aF3.5022522842807198
aF2.8993914645386774
aa(lp45
F8.2587873934479
aF3.5022522842807198
aF2.8993914645386774
aa(lp46
F8.2587873934479
aF3.5022522842807198
aF2.8993914645386774
aa(lp47
F8.2587873934479
aF3.5022522842807198
aF2.8993914645386774
aa(lp48
F8.2587873934479
aF3.5022522842807198
aF2.8993914645386774
aa(lp49
F8.2587873934479
aF3.5022522842807198
aF2.8993914645386774
aa(lp50
F8.2587873934479
aF3.5022522842807198
aF2.8993914645386774
aa(lp51
F8.2587873934479
aF3.5022522842807198
aF2.8993914645386774
aa(lp52
F8.2587873934479
aF3.5022522842807198
aF2.8993914645386774
aa(lp53
F8.2587873934479
aF3.5022522842807198
aF2.8993914645386774
aa(lp54
F8.2587873934479
aF3.5022522842807198
aF2.8993914645386774
aa(lp55
F8.2587873934479
aF3.5022522842807198
aF2.8993914645386774
aa(lp56
F8.2587873934479
aF3.5022522842807198
aF2.8993914645386774
aa(lp57
F8.2587873934479
aF3.5022522842807198
aF2.8993914645386774
aa(lp58
F8.2587873934479
aF3.5022522842807198
aF2.8993914645386774
aa(lp59
F8.2587873934479
aF3.5022522842807198
aF2.8993914645386774
aa(lp60
F8.2587873934479
aF3.5022522842807198
aF2.8993914645386774
aa(lp61
F8.2587873934479
aF3.5022522842807198
aF2.8993914645386774
aa(lp62
F8.2587873934479
aF3.5022522842807198
aF2.8993914645386774
aa(lp63
F8.2587873934479
aF3.5022522842807198
aF2.8993914645386774
aa(lp64
F8.2587873934479
aF3.5022522842807198
aF2.8993914645386774
aa(lp65
F8.2587873934479
aF3.5022522842807198
aF2.8993914645386774
aa(lp66
F8.2587873934479
aF3.5022522842807198
aF2.8993914645386774
aa(lp67
F8.2587873934479
aF3.5022522842807198
aF2.8993914645386774
aa(lp68
F8.2587873934479
aF3.5022522842807198
aF2.8993914645386774
aa(lp69
F8.2587873934479
aF3.5022522842807198
aF2.8993914645386774
aa(lp70
F8.2587873934479
aF3.5022522842807198
aF2.8993914645386774
aa(lp71
F8.2587873934479
aF3.5022522842807198
aF2.8993914645386774
aa(lp72
F8.2587873934479
aF3.5022522842807198
aF2.8993914645386774
aa(lp73
F8.2587873934479
aF3.5022522842807198
aF2.8993914645386774
aa(lp74
F8.2587873934479
aF3.5022522842807198
aF2.8993914645386774
aa(lp75
F8.2587873934479
aF3.5022522842807198
aF2.8993914645386774
aa(lp76
F8.2587873934479
aF3.5022522842807198
aF2.8993914645386774
aa(lp77
F8.2587873934479
aF3.5022522842807198
aF2.8993914645386774
aa(lp78
F8.2587873934479
aF3.5022522842807198
aF2.8993914645386774
aa(lp79
F8.2587873934479
aF3.5022522842807198
aF2.8993914645386774
aa(lp80
F8.2587873934479
aF3.5022522842807198
aF2.8993914645386774
aa(lp81
F8.2587873934479
aF3.5022522842807198
aF2.8993914645386774
aa(lp82
F8.2587873934479
aF3.5022522842807198
aF2.8993914645386774
aa(lp83
F8.253933331479496
aF3.503451485017492
aF2.8993914645386774
aa(lp84
F8.24422520754271
aF3.5058498864910312
aF2.8993914645386774
aa(lp85
F8.239371145574307
aF3.5070490872278035
aF2.8993914645386774
aa(lp86
F8.239371145574285
aF3.507049087227809
aF2.8993914645386774
aa(lp87
F8.239371145574285
aF3.507049087227809
aF2.8993914645386774
aa(lp88
F8.234517083605882
aF3.508248287964581
aF2.8993914645386774
aa(lp89
F8.224808959669096
aF3.5106466894381203
aF2.8993914645386774
aa(lp90
F8.210246773763927
aF3.514244291648427
aF2.8993914645386774
aa(lp91
F8.190830525890377
aF3.5190410945955004
aF2.8993914645386774
aa(lp92
F8.166560216048445
aF3.525037098279341
aF2.8993914645386774
aa(lp93
F8.137435844238109
aF3.5322323026999536
aF2.8993914645386774
aa(lp94
F8.103457410459391
aF3.5406267078573332
aF2.8993914645386774
aa(lp95
F8.064624914712292
aF3.55022031375148
aF2.8993914645386774
aa(lp96
F8.02093835699681
aF3.5610131203823934
aF2.8993914645386774
aa(lp97
F7.972397737312947
aF3.5730051277500743
aF2.8993914645386774
aa(lp98
F7.923857117629083
aF3.584997135117755
aF2.8993914645386774
aa(lp99
F7.87531649794522
aF3.596989142485436
aF2.8993914645386774
aa(lp100
F7.826775878261357
aF3.608981149853117
aF2.8993914645386774
aa(lp101
F7.778235258577493
aF3.620973157220798
aF2.8993914645386774
aa(lp102
F7.72969463889363
aF3.632965164588479
aF2.8993914645386774
aa(lp103
F7.6811540192097665
aF3.6449571719561598
aF2.8993914645386774
aa(lp104
F7.632613399525903
aF3.6569491793238407
aF2.8993914645386774
aa(lp105
F7.58407277984204
aF3.6689411866915216
aF2.8993914645386774
aa(lp106
F7.535532160158176
aF3.6809331940592025
aF2.8993914645386774
aa(lp107
F7.486991540474313
aF3.6929252014268834
aF2.8993914645386774
aa(lp108
F7.43845092079045
aF3.7049172087945643
aF2.8993914645386774
aa(lp109
F7.389910301106586
aF3.7169092161622452
aF2.8993914645386774
aa(lp110
F7.341369681422723
aF3.728901223529926
aF2.8993914645386774
aa(lp111
F7.29282906173886
aF3.740893230897607
aF2.8993914645386774
aa(lp112
F7.244288442054996
aF3.752885238265288
aF2.8993914645386774
aa(lp113
F7.195747822371133
aF3.764877245632969
aF2.8993914645386774
aa(lp114
F7.1472072026872695
aF3.77686925300065
aF2.8993914645386774
aa(lp115
F7.098666583003406
aF3.7888612603683307
aF2.8993914645386774
aa(lp116
F7.050125963319543
aF3.8008532677360116
aF2.8993914645386774
aa(lp117
F7.001585343635679
aF3.8128452751036925
aF2.8993914645386774
aa(lp118
F6.953044723951816
aF3.8248372824713734
aF2.8993914645386774
aa(lp119
F6.904504104267953
aF3.8368292898390544
aF2.8993914645386774
aa(lp120
F6.855963484584089
aF3.8488212972067353
aF2.8993914645386774
aa(lp121
F6.807422864900226
aF3.860813304574416
aF2.8993914645386774
aa(lp122
F6.758882245216363
aF3.872805311942097
aF2.8993914645386774
aa(lp123
F6.710341625532499
aF3.884797319309778
aF2.8993914645386774
aa(lp124
F6.661801005848636
aF3.896789326677459
aF2.8993914645386774
aa(lp125
F6.6132603861647725
aF3.90878133404514
aF2.8993914645386774
aa(lp126
F6.564719766480909
aF3.9207733414128207
aF2.8993914645386774
aa(lp127
F6.516179146797046
aF3.9327653487805017
aF2.8993914645386774
aa(lp128
F6.467638527113182
aF3.9447573561481826
aF2.8993914645386774
aa(lp129
F6.419097907429319
aF3.9567493635158635
aF2.8993914645386774
aa(lp130
F6.370557287745456
aF3.9687413708835444
aF2.8993914645386774
aa(lp131
F6.322016668061592
aF3.9807333782512253
aF2.8993914645386774
aa(lp132
F6.273476048377729
aF3.992725385618906
aF2.8993914645386774
aa(lp133
F6.224935428693866
aF4.004717392986587
aF2.8993914645386774
aa(lp134
F6.176394809010002
aF4.016709400354268
aF2.8993914645386774
aa(lp135
F6.127854189326139
aF4.0287014077219485
aF2.8993914645386774
aa(lp136
F6.0793135696422755
aF4.040693415089629
aF2.8993914645386774
aa(lp137
F6.030772949958412
aF4.05268542245731
aF2.8993914645386774
aa(lp138
F5.982232330274549
aF4.064677429824991
aF2.8993914645386774
aa(lp139
F5.9336917105906855
aF4.076669437192672
aF2.8993914645386774
aa(lp140
F5.885151090906822
aF4.088661444560353
aF2.8993914645386774
aa(lp141
F5.836610471222959
aF4.100653451928034
aF2.8993914645386774
aa(lp142
F5.788069851539095
aF4.112645459295715
aF2.8993914645386774
aa(lp143
F5.739529231855232
aF4.124637466663396
aF2.8993914645386774
aa(lp144
F5.690988612171369
aF4.136629474031077
aF2.8993914645386774
aa(lp145
F5.642447992487505
aF4.148621481398758
aF2.8993914645386774
aa(lp146
F5.593907372803642
aF4.1606134887664386
aF2.8993914645386774
aa(lp147
F5.545366753119779
aF4.1726054961341195
aF2.8993914645386774
aa(lp148
F5.496826133435915
aF4.1845975035018
aF2.8993914645386774
aa(lp149
F5.448285513752052
aF4.196589510869481
aF2.8993914645386774
aa(lp150
F5.3997448940681885
aF4.208581518237162
aF2.8993914645386774
aa(lp151
F5.351204274384325
aF4.220573525604843
aF2.8993914645386774
aa(lp152
F5.302663654700462
aF4.232565532972524
aF2.8993914645386774
aa(lp153
F5.254123035016598
aF4.244557540340205
aF2.8993914645386774
aa(lp154
F5.205582415332735
aF4.256549547707886
aF2.8993914645386774
aa(lp155
F5.157041795648872
aF4.268541555075567
aF2.8993914645386774
aa(lp156
F5.108501175965008
aF4.280533562443248
aF2.8993914645386774
aa(lp157
F5.059960556281145
aF4.292525569810929
aF2.8993914645386774
aa(lp158
F5.011419936597282
aF4.3045175771786095
aF2.8993914645386774
aa(lp159
F4.962879316913418
aF4.31650958454629
aF2.8993914645386774
aa(lp160
F4.914338697229555
aF4.328501591913971
aF2.8993914645386774
aa(lp161
F4.8657980775456915
aF4.340493599281652
aF2.8993914645386774
aa(lp162
F4.817257457861828
aF4.352485606649333
aF2.8993914645386774
aa(lp163
F4.768716838177965
aF4.364477614017014
aF2.8993914645386774
aa(lp164
F4.720176218494101
aF4.376469621384695
aF2.8993914645386774
aa(lp165
F4.671635598810238
aF4.388461628752376
aF2.8993914645386774
aa(lp166
F4.623094979126375
aF4.400453636120057
aF2.8993914645386774
aa(lp167
F4.574554359442511
aF4.412445643487738
aF2.8993914645386774
aa(lp168
F4.526013739758648
aF4.424437650855419
aF2.8993914645386774
aa(lp169
F4.477473120074785
aF4.4364296582230995
aF2.8993914645386774
aa(lp170
F4.428932500390921
aF4.4484216655907804
aF2.8993914645386774
aa(lp171
F4.380391880707058
aF4.460413672958461
aF2.8993914645386774
aa(lp172
F4.3318512610231945
aF4.472405680326142
aF2.8993914645386774
aa(lp173
F4.283310641339331
aF4.484397687693823
aF2.8993914645386774
aa(lp174
F4.234770021655468
aF4.496389695061504
aF2.8993914645386774
aa(lp175
F4.191083463939986
aF4.507182501692418
aF2.8993914645386774
aa(lp176
F4.152250968192886
aF4.516776107586565
aF2.8993914645386774
aa(lp177
F4.118272534414168
aF4.525170512743944
aF2.8993914645386774
aa(lp178
F4.089148162603855
aF4.532365717164551
aF2.8993914645386774
aa(lp179
F4.0648778527619225
aF4.538361720848392
aF2.8993914645386774
aa(lp180
F4.045461604888373
aF4.543158523795465
aF2.8993914645386774
aa(lp181
F4.030899418983204
aF4.546756126005771
aF2.8993914645386774
aa(lp182
F4.021191295046418
aF4.549154527479311
aF2.8993914645386774
aa(lp183
F4.016337233078036
aF4.550353728216078
aF2.8993914645386774
aa(lp184
F4.016337233078036
aF4.550353728216078
aF2.8993914645386774
aa(lp185
F4.016337233078036
aF4.550353728216078
aF2.8993914645386774
aa(lp186
F4.016337233078036
aF4.550353728216078
aF2.8993914645386774
aa(lp187
F4.016337233078036
aF4.550353728216078
aF2.8993914645386774
aa(lp188
F4.016337233078036
aF4.550353728216078
aF2.8993914645386774
aa(lp189
F4.016337233078036
aF4.550353728216078
aF2.8993914645386774
aa(lp190
F4.016337233078036
aF4.550353728216078
aF2.8993914645386774
aa(lp191
F4.016337233078036
aF4.550353728216078
aF2.8993914645386774
aa(lp192
F4.016337233078036
aF4.550353728216078
aF2.8993914645386774
aa(lp193
F4.016337233078036
aF4.550353728216078
aF2.8993914645386774
aa(lp194
F4.016337233078036
aF4.550353728216078
aF2.8993914645386774
aa(lp195
F4.016337233078036
aF4.550353728216078
aF2.8993914645386774
aa(lp196
F4.016337233078036
aF4.550353728216078
aF2.8993914645386774
aa(lp197
F4.016337233078036
aF4.550353728216078
aF2.8993914645386774
aa(lp198
F4.016337233078036
aF4.550353728216078
aF2.8993914645386774
aa(lp199
F4.016337233078036
aF4.550353728216078
aF2.8993914645386774
aa(lp200
F4.016337233078036
aF4.550353728216078
aF2.8993914645386774
aa(lp201
F4.016337233078036
aF4.550353728216078
aF2.8993914645386774
aa(lp202
F4.016337233078036
aF4.550353728216078
aF2.8993914645386774
aa(lp203
F4.016337233078036
aF4.550353728216078
aF2.8993914645386774
aa(lp204
F4.016337233078036
aF4.550353728216078
aF2.8993914645386774
aa(lp205
F4.016337233078036
aF4.550353728216078
aF2.8993914645386774
aa(lp206
F4.016337233078036
aF4.550353728216078
aF2.8993914645386774
aa(lp207
F4.016337233078036
aF4.550353728216078
aF2.8993914645386774
aa(lp208
F4.016337233078036
aF4.550353728216078
aF2.8993914645386774
aa(lp209
F4.016337233078036
aF4.550353728216078
aF2.8993914645386774
aa(lp210
F4.016337233078036
aF4.550353728216078
aF2.8993914645386774
aa(lp211
F4.016337233078036
aF4.550353728216078
aF2.8993914645386774
aa(lp212
F4.016337233078036
aF4.550353728216078
aF2.8993914645386774
aa(lp213
F4.016337233078036
aF4.550353728216078
aF2.8993914645386774
aa(lp214
F4.016337233078036
aF4.550353728216078
aF2.8993914645386774
aa(lp215
F4.016337233078036
aF4.550353728216078
aF2.8993914645386774
aa(lp216
F4.016337233078036
aF4.550353728216078
aF2.8993914645386774
aa(lp217
F4.016337233078036
aF4.550353728216078
aF2.8993914645386774
aa(lp218
F4.016337233078036
aF4.550353728216078
aF2.8993914645386774
aa(lp219
F4.016337233078036
aF4.550353728216078
aF2.8993914645386774
aa(lp220
F4.016337233078036
aF4.550353728216078
aF2.8993914645386774
aa(lp221
F4.016337233078036
aF4.550353728216078
aF2.8993914645386774
aa(lp222
F4.016337233078036
aF4.550353728216078
aF2.8993914645386774
aa(lp223
F4.016337233078036
aF4.550353728216078
aF2.8993914645386774
aa(lp224
F4.016337233078036
aF4.550353728216078
aF2.8993914645386774
aa(lp225
F4.016337233078036
aF4.550353728216078
aF2.8993914645386774
aa(lp226
F4.016337233078036
aF4.550353728216078
aF2.8993914645386774
aa(lp227
F4.016337233078036
aF4.550353728216078
aF2.8993914645386774
aa(lp228
F4.016337233078036
aF4.550353728216078
aF2.8993914645386774
aa(lp229
F4.016337233078036
aF4.550353728216078
aF2.8993914645386774
aa(lp230
F4.016337233078036
aF4.550353728216078
aF2.8993914645386774
aa(lp231
F4.016337233078036
aF4.550353728216078
aF2.8993914645386774
aa(lp232
F4.016337233078036
aF4.550353728216078
aF2.8993914645386774
aa(lp233
F4.016337233078036
aF4.550353728216078
aF2.8993914645386774
aa(lp234
F4.016337233078036
aF4.550353728216078
aF2.8993914645386774
aa(lp235
F4.016337233078036
aF4.550353728216078
aF2.8993914645386774
aa(lp236
F4.016337233078036
aF4.550353728216078
aF2.8993914645386774
aa(lp237
F4.016337233078036
aF4.550353728216078
aF2.8993914645386774
aa(lp238
F4.016337233078036
aF4.550353728216078
aF2.8993914645386774
aa(lp239
F4.016337233078036
aF4.550353728216078
aF2.8993914645386774
aa(lp240
F4.016337233078036
aF4.550353728216078
aF2.8993914645386774
aa(lp241
F4.016337233078036
aF4.550353728216078
aF2.8993914645386774
aa(lp242
F4.016337233078036
aF4.550353728216078
aF2.8993914645386774
aa(lp243
F4.016337233078036
aF4.550353728216078
aF2.8993914645386774
aa(lp244
F4.016337233078036
aF4.550353728216078
aF2.8993914645386774
aa(lp245
F4.016337233078036
aF4.550353728216078
aF2.8993914645386774
aa(lp246
F4.016337233078036
aF4.550353728216078
aF2.8993914645386774
aa(lp247
F4.016337233078036
aF4.550353728216078
aF2.8993914645386774
aa(lp248
F4.016337233078036
aF4.550353728216078
aF2.8993914645386774
aa(lp249
F4.016337233078036
aF4.550353728216078
aF2.8993914645386774
aa(lp250
F4.016337233078036
aF4.550353728216078
aF2.8993914645386774
aa(lp251
F4.016337233078036
aF4.550353728216078
aF2.8993914645386774
aa(lp252
F4.016337233078036
aF4.550353728216078
aF2.8993914645386774
aa(lp253
F4.016337233078036
aF4.550353728216078
aF2.8993914645386774
aa(lp254
F4.016337233078036
aF4.550353728216078
aF2.8993914645386774
aa(lp255
F4.016337233078036
aF4.550353728216078
aF2.8993914645386774
aa(lp256
F4.016337233078036
aF4.550353728216078
aF2.8993914645386774
aa(lp257
F4.016337233078036
aF4.550353728216078
aF2.8993914645386774
aa(lp258
F4.016337233078036
aF4.550353728216078
aF2.8993914645386774
aa(lp259
F4.016337233078036
aF4.550353728216078
aF2.8993914645386774
aa(lp260
F4.016337233078036
aF4.550353728216078
aF2.8993914645386774
aa(lp261
F4.016337233078036
aF4.550353728216078
aF2.8993914645386774
aa(lp262
F4.016337233078036
aF4.550353728216078
aF2.8993914645386774
aa(lp263
F4.016337233078036
aF4.550353728216078
aF2.8993914645386774
aa(lp264
F4.016337233078036
aF4.550353728216078
aF2.8993914645386774
aa(lp265
F4.016337233078036
aF4.550353728216078
aF2.8993914645386774
aa(lp266
F4.016337233078036
aF4.550353728216078
aF2.8993914645386774
aa(lp267
F4.016337233078036
aF4.550353728216078
aF2.8993914645386774
aa(lp268
F4.016337233078036
aF4.550353728216078
aF2.8993914645386774
aa(lp269
F4.016337233078036
aF4.550353728216078
aF2.8993914645386774
aa(lp270
F4.016337233078036
aF4.550353728216078
aF2.8993914645386774
aa(lp271
F4.016337233078036
aF4.550353728216078
aF2.8993914645386774
aa(lp272
F4.016337233078036
aF4.550353728216078
aF2.8993914645386774
aa(lp273
F4.016337233078036
aF4.550353728216078
aF2.8993914645386774
aa(lp274
F4.016337233078036
aF4.550353728216078
aF2.8993914645386774
aa(lp275
F4.016337233078036
aF4.550353728216078
aF2.8993914645386774
aa(lp276
F4.016337233078036
aF4.550353728216078
aF2.8993914645386774
aa(lp277
F4.016337233078036
aF4.550353728216078
aF2.8993914645386774
aa(lp278
F4.016337233078036
aF4.550353728216078
aF2.8993914645386774
aa(lp279
F4.016337233078036
aF4.550353728216078
aF2.8993914645386774
aa(lp280
F4.016337233078036
aF4.550353728216078
aF2.8993914645386774
aa(lp281
F4.016337233078036
aF4.550353728216078
aF2.8993914645386774
aa(lp282
F4.016337233078036
aF4.550353728216078
aF2.8993914645386774
aa(lp283
F4.016337233078036
aF4.550353728216078
aF2.8993914645386774
aa(lp284
F4.016337233078036
aF4.550353728216078
aF2.8993914645386774
aa(lp285
F4.016337233078036
aF4.550353728216078
aF2.8993914645386774
aa(lp286
F4.016337233078036
aF4.550353728216078
aF2.8993914645386774
aa(lp287
F4.016337233078036
aF4.550353728216078
aF2.8993914645386774
aa(lp288
F4.016337233078036
aF4.550353728216078
aF2.8993914645386774
aa(lp289
F4.016337233078036
aF4.550353728216078
aF2.8993914645386774
aa(lp290
F4.016337233078036
aF4.550353728216078
aF2.8993914645386774
aa(lp291
F4.016337233078036
aF4.550353728216078
aF2.8993914645386774
aa(lp292
F4.016337233078036
aF4.550353728216078
aF2.8993914645386774
aa(lp293
F4.016337233078036
aF4.550353728216078
aF2.8993914645386774
aa(lp294
F4.016337233078036
aF4.550353728216078
aF2.8993914645386774
aa(lp295
F4.016337233078036
aF4.550353728216078
aF2.8993914645386774
aa(lp296
F4.016337233078036
aF4.550353728216078
aF2.8993914645386774
aa(lp297
F4.016337233078036
aF4.550353728216078
aF2.8993914645386774
aa(lp298
F4.016337233078036
aF4.550353728216078
aF2.8993914645386774
aa(lp299
F4.016337233078036
aF4.550353728216078
aF2.8993914645386774
aa(lp300
F4.016337233078036
aF4.550353728216078
aF2.8993914645386774
aa(lp301
F4.016337233078036
aF4.550353728216078
aF2.8993914645386774
aa(lp302
F4.016337233078036
aF4.550353728216078
aF2.8993914645386774
aa(lp303
F4.016337233078036
aF4.550353728216078
aF2.8993914645386774
aa(lp304
F4.016337233078036
aF4.550353728216078
aF2.8993914645386774
aa(lp305
F4.016337233078036
aF4.550353728216078
aF2.8993914645386774
aa(lp306
F4.016337233078036
aF4.550353728216078
aF2.8993914645386774
aa(lp307
F4.016337233078036
aF4.550353728216078
aF2.8993914645386774
aa(lp308
F4.016337233078036
aF4.550353728216078
aF2.8993914645386774
aa(lp309
F4.016337233078036
aF4.550353728216078
aF2.8993914645386774
aa(lp310
F4.016337233078036
aF4.550353728216078
aF2.8993914645386774
aa(lp311
F4.016337233078036
aF4.550353728216078
aF2.8993914645386774
aa(lp312
F4.016337233078036
aF4.550353728216078
aF2.8993914645386774
aa(lp313
F4.016337233078036
aF4.550353728216078
aF2.8993914645386774
aa(lp314
F4.016337233078036
aF4.550353728216078
aF2.8993914645386774
aa(lp315
F4.016337233078036
aF4.550353728216078
aF2.8993914645386774
aa(lp316
F4.016337233078036
aF4.550353728216078
aF2.8993914645386774
aa(lp317
F4.016337233078036
aF4.550353728216078
aF2.8993914645386774
aa(lp318
F4.016337233078036
aF4.550353728216078
aF2.8993914645386774
aa(lp319
F4.016337233078036
aF4.550353728216078
aF2.8993914645386774
aa(lp320
F4.016337233078036
aF4.550353728216078
aF2.8993914645386774
aa(lp321
F4.016337233078036
aF4.550353728216078
aF2.8993914645386774
aa(lp322
F4.016337233078036
aF4.550353728216078
aF2.8993914645386774
aa(lp323
F4.016337233078036
aF4.550353728216078
aF2.8993914645386774
aa(lp324
F4.016337233078036
aF4.550353728216078
aF2.8993914645386774
aa(lp325
F4.016337233078036
aF4.550353728216078
aF2.8993914645386774
aa(lp326
F4.016337233078036
aF4.550353728216078
aF2.8993914645386774
aa(lp327
F4.016337233078036
aF4.550353728216078
aF2.8993914645386774
aa(lp328
F4.016337233078036
aF4.550353728216078
aF2.8993914645386774
aa(lp329
F4.016337233078036
aF4.550353728216078
aF2.8993914645386774
aa(lp330
F4.016337233078036
aF4.550353728216078
aF2.8993914645386774
aa(lp331
F4.016337233078036
aF4.550353728216078
aF2.8993914645386774
aa(lp332
F4.016337233078036
aF4.550353728216078
aF2.8993914645386774
aa(lp333
F4.016337233078036
aF4.550353728216078
aF2.8993914645386774
aa(lp334
F4.016337233078036
aF4.550353728216078
aF2.8993914645386774
aa(lp335
F4.016337233078036
aF4.550353728216078
aF2.8993914645386774
aa(lp336
F4.016337233078036
aF4.550353728216078
aF2.8993914645386774
aa(lp337
F4.016337233078036
aF4.550353728216078
aF2.8993914645386774
aa(lp338
F4.016337233078036
aF4.550353728216078
aF2.8993914645386774
aa(lp339
F4.016337233078036
aF4.550353728216078
aF2.8993914645386774
aa(lp340
F4.016337233078036
aF4.550353728216078
aF2.8993914645386774
aa(lp341
F4.016337233078036
aF4.550353728216078
aF2.8993914645386774
aa.