(lp0
(lp1
F4.995
aF5.0
aF0.0
aa(lp2
F4.995
aF5.0
aF0.0
aa(lp3
F4.995
aF5.0
aF0.0
aa(lp4
F4.995
aF5.0
aF0.0
aa(lp5
F4.995
aF5.0
aF0.0
aa(lp6
F4.995
aF5.0
aF0.0
aa(lp7
F4.995
aF5.0
aF0.0
aa(lp8
F4.995
aF5.0
aF0.0
aa(lp9
F4.995
aF5.0
aF0.0
aa(lp10
F4.995
aF5.0
aF0.0
aa(lp11
F4.995
aF5.0
aF0.0
aa(lp12
F4.995
aF5.0
aF0.0
aa(lp13
F4.995
aF5.0
aF0.0
aa(lp14
F4.995
aF5.0
aF0.0
aa(lp15
F4.995
aF5.0
aF0.0
aa(lp16
F4.995
aF5.0
aF0.0
aa(lp17
F4.995
aF5.0
aF0.0
aa(lp18
F4.995
aF5.0
aF0.0
aa(lp19
F4.995
aF5.0
aF0.0
aa(lp20
F4.995
aF5.0
aF0.0
aa(lp21
F4.995
aF5.0
aF0.0
aa(lp22
F4.995
aF5.0
aF0.0
aa(lp23
F4.995
aF5.0
aF0.0
aa(lp24
F4.995
aF5.0
aF0.0
aa(lp25
F4.995
aF5.0
aF0.0
aa(lp26
F4.995
aF5.0
aF0.0
aa(lp27
F4.995
aF5.0
aF0.0
aa(lp28
F4.995
aF5.0
aF0.0
aa(lp29
F4.995
aF5.0
aF0.0
aa(lp30
F4.995
aF5.0
aF0.0
aa(lp31
F4.995
aF5.0
aF0.0
aa(lp32
F4.995
aF5.0
aF0.0
aa(lp33
F4.995
aF5.0
aF0.0
aa(lp34
F4.995
aF5.0
aF0.0
aa(lp35
F4.995
aF5.0
aF0.0
aa(lp36
F4.995
aF5.0
aF0.0
aa(lp37
F4.995
aF5.0
aF0.0
aa(lp38
F4.995
aF5.0
aF0.0
aa(lp39
F4.995
aF5.0
aF0.0
aa(lp40
F4.995
aF5.0
aF0.0
aa(lp41
F4.995
aF5.0
aF0.0
aa(lp42
F4.995
aF5.0
aF0.0
aa(lp43
F4.995
aF5.0
aF0.0
aa(lp44
F4.995
aF5.0
aF0.0
aa(lp45
F4.995
aF5.0
aF0.0
aa(lp46
F4.995
aF5.0
aF0.0
aa(lp47
F4.995
aF5.0
aF0.0
aa(lp48
F4.995
aF5.0
aF0.0
aa(lp49
F4.995
aF5.0
aF0.0
aa(lp50
F4.995
aF5.0
aF0.0
aa(lp51
F4.995
aF5.0
aF0.0
aa(lp52
F4.995
aF5.0
aF0.0
aa(lp53
F4.995
aF5.0
aF0.0
aa(lp54
F4.995
aF5.0
aF0.0
aa(lp55
F4.995
aF5.0
aF0.0
aa(lp56
F4.995
aF5.0
aF0.0
aa(lp57
F4.995
aF5.0
aF0.0
aa(lp58
F4.995
aF5.0
aF0.0
aa(lp59
F4.995
aF5.0
aF0.0
aa(lp60
F4.995
aF5.0
aF0.0
aa(lp61
F4.995
aF5.0
aF0.0
aa(lp62
F4.995
aF5.0
aF0.0
aa(lp63
F4.995
aF5.0
aF0.0
aa(lp64
F4.995
aF5.0
aF0.0
aa(lp65
F4.995
aF5.0
aF0.0
aa(lp66
F4.995
aF5.0
aF0.0
aa(lp67
F4.995
aF5.0
aF0.0
aa(lp68
F4.995
aF5.0
aF0.0
aa(lp69
F4.995
aF5.0
aF0.0
aa(lp70
F4.995
aF5.0
aF0.0
aa(lp71
F4.995
aF5.0
aF0.0
aa(lp72
F4.995
aF5.0
aF0.0
aa(lp73
F4.995
aF5.0
aF0.0
aa(lp74
F4.995
aF5.0
aF0.0
aa(lp75
F4.995
aF5.0
aF0.0
aa(lp76
F4.995
aF5.0
aF0.0
aa(lp77
F4.995
aF5.0
aF0.0
aa(lp78
F4.995
aF5.0
aF0.0
aa(lp79
F4.995
aF5.0
aF0.0
aa.