(lp0
(lp1
F8.134985393560434
aF2.800660740221525
aF-3.128355160451557
aa(lp2
F8.134985393560434
aF2.800660740221525
aF-3.128355160451557
aa(lp3
F8.134985393560434
aF2.800660740221525
aF-3.128355160451557
aa(lp4
F8.134985393560434
aF2.800660740221525
aF-3.128355160451557
aa(lp5
F8.134985393560434
aF2.800660740221525
aF-3.128355160451557
aa(lp6
F8.134985393560434
aF2.800660740221525
aF-3.128355160451557
aa(lp7
F8.134985393560434
aF2.800660740221525
aF-3.128355160451557
aa(lp8
F8.134985393560434
aF2.800660740221525
aF-3.128355160451557
aa(lp9
F8.134985393560434
aF2.800660740221525
aF-3.128355160451557
aa(lp10
F8.134985393560434
aF2.800660740221525
aF-3.128355160451557
aa(lp11
F8.134985393560434
aF2.800660740221525
aF-3.128355160451557
aa(lp12
F8.134985393560434
aF2.800660740221525
aF-3.128355160451557
aa(lp13
F8.134985393560434
aF2.800660740221525
aF-3.128355160451557
aa(lp14
F8.134985393560434
aF2.800660740221525
aF-3.128355160451557
aa(lp15
F8.134985393560434
aF2.800660740221525
aF-3.128355160451557
aa(lp16
F8.134985393560434
aF2.800660740221525
aF-3.128355160451557
aa(lp17
F8.134985393560434
aF2.800660740221525
aF-3.128355160451557
aa(lp18
F8.134985393560434
aF2.800660740221525
aF-3.128355160451557
aa(lp19
F8.134985393560434
aF2.800660740221525
aF-3.128355160451557
aa(lp20
F8.134985393560434
aF2.800660740221525
aF-3.128355160451557
aa(lp21
F8.134985393560434
aF2.800660740221525
aF-3.128355160451557
aa(lp22
F8.134985393560434
aF2.800660740221525
aF-3.128355160451557
aa(lp23
F8.134985393560434
aF2.800660740221525
aF-3.128355160451557
aa(lp24
F8.134985393560434
aF2.800660740221525
aF-3.128355160451557
aa(lp25
F8.134985393560434
aF2.800660740221525
aF-3.128355160451557
aa(lp26
F8.134985393560434
aF2.800660740221525
aF-3.128355160451557
aa(lp27
F8.134985393560434
aF2.800660740221525
aF-3.128355160451557
aa(lp28
F8.134985393560434
aF2.800660740221525
aF-3.128355160451557
aa(lp29
F8.134985393560434
aF2.800660740221525
aF-3.128355160451557
aa(lp30
F8.134985393560434
aF2.800660740221525
aF-3.128355160451557
aa(lp31
F8.134985393560434
aF2.800660740221525
aF-3.128355160451557
aa(lp32
F8.134985393560434
aF2.800660740221525
aF-3.128355160451557
aa(lp33
F8.134985393560434
aF2.800660740221525
aF-3.128355160451557
aa(lp34
F8.134985393560434
aF2.800660740221525
aF-3.128355160451557
aa(lp35
F8.134985393560434
aF2.800660740221525
aF-3.128355160451557
aa(lp36
F8.134985393560434
aF2.800660740221525
aF-3.128355160451557
aa(lp37
F8.134985393560434
aF2.800660740221525
aF-3.128355160451557
aa(lp38
F8.134985393560434
aF2.800660740221525
aF-3.128355160451557
aa(lp39
F8.134985393560434
aF2.800660740221525
aF-3.128355160451557
aa(lp40
F8.134985393560434
aF2.800660740221525
aF-3.128355160451557
aa(lp41
F8.134985393560434
aF2.800660740221525
aF-3.128355160451557
aa(lp42
F8.134985393560434
aF2.800660740221525
aF-3.128355160451557
aa(lp43
F8.134985393560434
aF2.800660740221525
aF-3.128355160451557
aa(lp44
F8.134985393560434
aF2.800660740221525
aF-3.128355160451557
aa(lp45
F8.134985393560434
aF2.800660740221525
aF-3.128355160451557
aa(lp46
F8.134985393560434
aF2.800660740221525
aF-3.128355160451557
aa(lp47
F8.134985393560434
aF2.800660740221525
aF-3.128355160451557
aa(lp48
F8.134985393560434
aF2.800660740221525
aF-3.128355160451557
aa(lp49
F8.134985393560434
aF2.800660740221525
aF-3.128355160451557
aa(lp50
F8.134985393560434
aF2.800660740221525
aF-3.128355160451557
aa(lp51
F8.134985393560434
aF2.800660740221525
aF-3.128355160451557
aa(lp52
F8.134985393560434
aF2.800660740221525
aF-3.128355160451557
aa(lp53
F8.134985393560434
aF2.800660740221525
aF-3.128355160451557
aa(lp54
F8.134985393560434
aF2.800660740221525
aF-3.128355160451557
aa(lp55
F8.134985393560434
aF2.800660740221525
aF-3.128355160451557
aa(lp56
F8.134985393560434
aF2.800660740221525
aF-3.128355160451557
aa(lp57
F8.134985393560434
aF2.800660740221525
aF-3.128355160451557
aa(lp58
F8.134985393560434
aF2.800660740221525
aF-3.128355160451557
aa(lp59
F8.134985393560434
aF2.800660740221525
aF-3.128355160451557
aa(lp60
F8.134985393560434
aF2.800660740221525
aF-3.128355160451557
aa(lp61
F8.134985393560434
aF2.800660740221525
aF-3.128355160451557
aa(lp62
F8.134985393560434
aF2.800660740221525
aF-3.128355160451557
aa(lp63
F8.134985393560434
aF2.800660740221525
aF-3.128355160451557
aa(lp64
F8.134985393560434
aF2.800660740221525
aF-3.128355160451557
aa(lp65
F8.134985393560434
aF2.800660740221525
aF-3.128355160451557
aa(lp66
F8.134985393560434
aF2.800660740221525
aF-3.128355160451557
aa(lp67
F8.134985393560434
aF2.800660740221525
aF-3.128355160451557
aa(lp68
F8.134985393560434
aF2.800660740221525
aF-3.128355160451557
aa(lp69
F8.134985393560434
aF2.800660740221525
aF-3.128355160451557
aa(lp70
F8.134985393560434
aF2.800660740221525
aF-3.128355160451557
aa(lp71
F8.134985393560434
aF2.800660740221525
aF-3.128355160451557
aa(lp72
F8.134985393560434
aF2.800660740221525
aF-3.128355160451557
aa(lp73
F8.134985393560434
aF2.800660740221525
aF-3.128355160451557
aa(lp74
F8.134985393560434
aF2.800660740221525
aF-3.128355160451557
aa(lp75
F8.134985393560434
aF2.800660740221525
aF-3.128355160451557
aa(lp76
F8.134985393560434
aF2.800660740221525
aF-3.128355160451557
aa(lp77
F8.134985393560434
aF2.800660740221525
aF-3.128355160451557
aa(lp78
F8.134985393560434
aF2.800660740221525
aF-3.128355160451557
aa(lp79
F8.134985393560434
aF2.800660740221525
aF-3.128355160451557
aa(lp80
F8.134985393560434
aF2.800660740221525
aF-3.128355160451557
aa(lp81
F8.134985393560434
aF2.800660740221525
aF-3.128355160451557
aa(lp82
F8.134985393560434
aF2.800660740221525
aF-3.128355160451557
aa(lp83
F8.134985393560434
aF2.800660740221525
aF-3.128355160451557
aa(lp84
F8.134985393560434
aF2.800660740221525
aF-3.128355160451557
aa(lp85
F8.134985393560434
aF2.800660740221525
aF-3.128355160451557
aa(lp86
F8.134985393560434
aF2.800660740221525
aF-3.128355160451557
aa(lp87
F8.134985393560434
aF2.800660740221525
aF-3.128355160451557
aa(lp88
F8.134985393560434
aF2.800660740221525
aF-3.128355160451557
aa(lp89
F8.134985393560434
aF2.800660740221525
aF-3.128355160451557
aa(lp90
F8.134985393560434
aF2.800660740221525
aF-3.128355160451557
aa(lp91
F8.134985393560434
aF2.800660740221525
aF-3.128355160451557
aa(lp92
F8.134985393560434
aF2.800660740221525
aF-3.128355160451557
aa(lp93
F8.134985393560434
aF2.800660740221525
aF-3.128355160451557
aa(lp94
F8.134985393560434
aF2.800660740221525
aF-3.128355160451557
aa(lp95
F8.134985393560434
aF2.800660740221525
aF-3.128355160451557
aa(lp96
F8.134985393560434
aF2.800660740221525
aF-3.128355160451557
aa(lp97
F8.134985393560434
aF2.800660740221525
aF-3.128355160451557
aa(lp98
F8.134985393560434
aF2.800660740221525
aF-3.128355160451557
aa(lp99
F8.134985393560434
aF2.800660740221525
aF-3.128355160451557
aa(lp100
F8.134985393560434
aF2.800660740221525
aF-3.128355160451557
aa(lp101
F8.134985393560434
aF2.800660740221525
aF-3.128355160451557
aa(lp102
F8.134985393560434
aF2.800660740221525
aF-3.128355160451557
aa(lp103
F8.134985393560434
aF2.800660740221525
aF-3.128355160451557
aa(lp104
F8.134985393560434
aF2.800660740221525
aF-3.128355160451557
aa(lp105
F8.134985393560434
aF2.800660740221525
aF-3.128355160451557
aa(lp106
F8.134985393560434
aF2.800660740221525
aF-3.128355160451557
aa(lp107
F8.134985393560434
aF2.800660740221525
aF-3.128355160451557
aa(lp108
F8.134985393560434
aF2.800660740221525
aF-3.128355160451557
aa(lp109
F8.134985393560434
aF2.800660740221525
aF-3.128355160451557
aa(lp110
F8.134985393560434
aF2.800660740221525
aF-3.128355160451557
aa(lp111
F8.134985393560434
aF2.800660740221525
aF-3.128355160451557
aa(lp112
F8.134985393560434
aF2.800660740221525
aF-3.128355160451557
aa(lp113
F8.134985393560434
aF2.800660740221525
aF-3.128355160451557
aa(lp114
F8.134985393560434
aF2.800660740221525
aF-3.128355160451557
aa(lp115
F8.134985393560434
aF2.800660740221525
aF-3.128355160451557
aa(lp116
F8.134985393560434
aF2.800660740221525
aF-3.128355160451557
aa(lp117
F8.134985393560434
aF2.800660740221525
aF-3.128355160451557
aa(lp118
F8.134985393560434
aF2.800660740221525
aF-3.128355160451557
aa(lp119
F8.134985393560434
aF2.800660740221525
aF-3.128355160451557
aa(lp120
F8.134985393560434
aF2.800660740221525
aF-3.128355160451557
aa(lp121
F8.134985393560434
aF2.800660740221525
aF-3.128355160451557
aa(lp122
F8.134985393560434
aF2.800660740221525
aF-3.128355160451557
aa(lp123
F8.134985393560434
aF2.800660740221525
aF-3.128355160451557
aa(lp124
F8.134985393560434
aF2.800660740221525
aF-3.128355160451557
aa(lp125
F8.134985393560434
aF2.800660740221525
aF-3.128355160451557
aa(lp126
F8.134985393560434
aF2.800660740221525
aF-3.128355160451557
aa(lp127
F8.134985393560434
aF2.800660740221525
aF-3.128355160451557
aa(lp128
F8.134985393560434
aF2.800660740221525
aF-3.128355160451557
aa(lp129
F8.134985393560434
aF2.800660740221525
aF-3.128355160451557
aa(lp130
F8.134985393560434
aF2.800660740221525
aF-3.128355160451557
aa(lp131
F8.134985393560434
aF2.800660740221525
aF-3.128355160451557
aa(lp132
F8.134985393560434
aF2.800660740221525
aF-3.128355160451557
aa(lp133
F8.134985393560434
aF2.800660740221525
aF-3.128355160451557
aa(lp134
F8.134985393560434
aF2.800660740221525
aF-3.128355160451557
aa(lp135
F8.134985393560434
aF2.800660740221525
aF-3.128355160451557
aa(lp136
F8.134985393560434
aF2.800660740221525
aF-3.128355160451557
aa(lp137
F8.134985393560434
aF2.800660740221525
aF-3.128355160451557
aa(lp138
F8.134985393560434
aF2.800660740221525
aF-3.128355160451557
aa(lp139
F8.134985393560434
aF2.800660740221525
aF-3.128355160451557
aa(lp140
F8.134985393560434
aF2.800660740221525
aF-3.128355160451557
aa(lp141
F8.134985393560434
aF2.800660740221525
aF-3.128355160451557
aa(lp142
F8.134985393560434
aF2.800660740221525
aF-3.128355160451557
aa(lp143
F8.134985393560434
aF2.800660740221525
aF-3.128355160451557
aa(lp144
F8.134985393560434
aF2.800660740221525
aF-3.128355160451557
aa(lp145
F8.134985393560434
aF2.800660740221525
aF-3.128355160451557
aa(lp146
F8.134985393560434
aF2.800660740221525
aF-3.128355160451557
aa(lp147
F8.134985393560434
aF2.800660740221525
aF-3.128355160451557
aa(lp148
F8.134985393560434
aF2.800660740221525
aF-3.128355160451557
aa(lp149
F8.134985393560434
aF2.800660740221525
aF-3.128355160451557
aa(lp150
F8.134985393560434
aF2.800660740221525
aF-3.128355160451557
aa(lp151
F8.134985393560434
aF2.800660740221525
aF-3.128355160451557
aa(lp152
F8.134985393560434
aF2.800660740221525
aF-3.128355160451557
aa(lp153
F8.134985393560434
aF2.800660740221525
aF-3.128355160451557
aa(lp154
F8.134985393560434
aF2.800660740221525
aF-3.128355160451557
aa(lp155
F8.134985393560434
aF2.800660740221525
aF-3.128355160451557
aa(lp156
F8.134985393560434
aF2.800660740221525
aF-3.128355160451557
aa(lp157
F8.134985393560434
aF2.800660740221525
aF-3.128355160451557
aa(lp158
F8.134985393560434
aF2.800660740221525
aF-3.128355160451557
aa(lp159
F8.134985393560434
aF2.800660740221525
aF-3.128355160451557
aa(lp160
F8.134985393560434
aF2.800660740221525
aF-3.128355160451557
aa(lp161
F8.134985393560434
aF2.800660740221525
aF-3.128355160451557
aa(lp162
F8.134985393560434
aF2.800660740221525
aF-3.128355160451557
aa(lp163
F8.134985393560434
aF2.800660740221525
aF-3.128355160451557
aa(lp164
F8.134985393560434
aF2.800660740221525
aF-3.128355160451557
aa(lp165
F8.134985393560434
aF2.800660740221525
aF-3.128355160451557
aa(lp166
F8.134985393560434
aF2.800660740221525
aF-3.128355160451557
aa(lp167
F8.134985393560434
aF2.800660740221525
aF-3.128355160451557
aa(lp168
F8.134985393560434
aF2.800660740221525
aF-3.128355160451557
aa(lp169
F8.134985393560434
aF2.800660740221525
aF-3.128355160451557
aa(lp170
F8.134985393560434
aF2.800660740221525
aF-3.128355160451557
aa(lp171
F8.134985393560434
aF2.800660740221525
aF-3.128355160451557
aa(lp172
F8.134985393560434
aF2.800660740221525
aF-3.128355160451557
aa(lp173
F8.134985393560434
aF2.800660740221525
aF-3.128355160451557
aa(lp174
F8.134985393560434
aF2.800660740221525
aF-3.128355160451557
aa(lp175
F8.134985393560434
aF2.800660740221525
aF-3.128355160451557
aa(lp176
F8.134985393560434
aF2.800660740221525
aF-3.128355160451557
aa(lp177
F8.134985393560434
aF2.800660740221525
aF-3.128355160451557
aa(lp178
F8.134985393560434
aF2.800660740221525
aF-3.128355160451557
aa(lp179
F8.134985393560434
aF2.800660740221525
aF-3.128355160451557
aa(lp180
F8.134985393560434
aF2.800660740221525
aF-3.128355160451557
aa(lp181
F8.134985393560434
aF2.800660740221525
aF-3.128355160451557
aa(lp182
F8.134985393560434
aF2.800660740221525
aF-3.128355160451557
aa(lp183
F8.134985393560434
aF2.800660740221525
aF-3.128355160451557
aa(lp184
F8.129985831632103
aF2.8005945546888356
aF-3.128355160451557
aa(lp185
F8.11998670777544
aF2.8004621836234564
aF-3.128355160451557
aa(lp186
F8.104988021990447
aF2.800263627025388
aF-3.128355160451557
aa(lp187
F8.084989774277123
aF2.799998884894629
aF-3.128355160451557
aa(lp188
F8.059991964635445
aF2.799667957231181
aF-3.128355160451557
aa(lp189
F8.029994593065437
aF2.799270844035043
aF-3.128355160451557
aa(lp190
F7.9949976595670975
aF2.7988075453062153
aF-3.128355160451557
aa(lp191
F7.955001164140427
aF2.798278061044698
aF-3.128355160451557
aa(lp192
F7.910005106785425
aF2.797682391250491
aF-3.128355160451557
aa(lp193
F7.860009487502069
aF2.7970205359235942
aF-3.128355160451557
aa(lp194
F7.810013868218713
aF2.7963586805966973
aF-3.128355160451557
aa(lp195
F7.760018248935356
aF2.7956968252698005
aF-3.128355160451557
aa(lp196
F7.715022191580331
aF2.795101155475593
aF-3.128355160451557
aa(lp197
F7.675025696153638
aF2.794571671214076
aF-3.128355160451557
aa(lp198
F7.640028762655298
aF2.794108372485248
aF-3.128355160451557
aa(lp199
F7.610031391085289
aF2.7937112592891102
aF-3.128355160451557
aa(lp200
F7.585033581443611
aF2.793380331625662
aF-3.128355160451557
aa(lp201
F7.565035333730264
aF2.7931155894949034
aF-3.128355160451557
aa(lp202
F7.550036647945248
aF2.7929170328968342
aF-3.128355160451557
aa(lp203
F7.540037524088586
aF2.792784661831455
aF-3.128355160451557
aa(lp204
F7.535037962160255
aF2.7927184762987656
aF-3.128355160451557
aa(lp205
F7.535037962160255
aF2.7927184762987656
aF-3.128355160451557
aa(lp206
F7.535037962160255
aF2.7927184762987656
aF-3.128355160451557
aa(lp207
F7.535037962160255
aF2.7927184762987656
aF-3.128355160451557
aa(lp208
F7.535037962160255
aF2.7927184762987656
aF-3.128355160451557
aa(lp209
F7.535037962160255
aF2.7927184762987656
aF-3.128355160451557
aa(lp210
F7.535037962160255
aF2.7927184762987656
aF-3.128355160451557
aa(lp211
F7.535037962160255
aF2.7927184762987656
aF-3.128355160451557
aa(lp212
F7.535037962160255
aF2.7927184762987656
aF-3.128355160451557
aa(lp213
F7.535037962160255
aF2.7927184762987656
aF-3.128355160451557
aa(lp214
F7.535037962160255
aF2.7927184762987656
aF-3.128355160451557
aa(lp215
F7.535037962160255
aF2.7927184762987656
aF-3.128355160451557
aa(lp216
F7.535037962160255
aF2.7927184762987656
aF-3.128355160451557
aa(lp217
F7.535037962160255
aF2.7927184762987656
aF-3.128355160451557
aa(lp218
F7.535037962160255
aF2.7927184762987656
aF-3.128355160451557
aa(lp219
F7.535037962160255
aF2.7927184762987656
aF-3.128355160451557
aa(lp220
F7.535037962160255
aF2.7927184762987656
aF-3.128355160451557
aa(lp221
F7.535037962160255
aF2.7927184762987656
aF-3.128355160451557
aa(lp222
F7.535037962160255
aF2.7927184762987656
aF-3.128355160451557
aa(lp223
F7.535037962160255
aF2.7927184762987656
aF-3.128355160451557
aa(lp224
F7.535037962160255
aF2.7927184762987656
aF-3.128355160451557
aa(lp225
F7.535037962160255
aF2.7927184762987656
aF-3.128355160451557
aa(lp226
F7.535037962160255
aF2.7927184762987656
aF-3.128355160451557
aa(lp227
F7.535037962160255
aF2.7927184762987656
aF-3.128355160451557
aa(lp228
F7.535037962160255
aF2.7927184762987656
aF-3.128355160451557
aa(lp229
F7.535037962160255
aF2.7927184762987656
aF-3.128355160451557
aa(lp230
F7.535037962160255
aF2.7927184762987656
aF-3.128355160451557
aa(lp231
F7.535037962160255
aF2.7927184762987656
aF-3.128355160451557
aa(lp232
F7.535037962160255
aF2.7927184762987656
aF-3.128355160451557
aa(lp233
F7.535037962160255
aF2.7927184762987656
aF-3.128355160451557
aa(lp234
F7.535037962160255
aF2.7927184762987656
aF-3.128355160451557
aa(lp235
F7.535037962160255
aF2.7927184762987656
aF-3.128355160451557
aa(lp236
F7.535037962160255
aF2.7927184762987656
aF-3.128355160451557
aa(lp237
F7.535037962160255
aF2.7927184762987656
aF-3.128355160451557
aa(lp238
F7.535037962160255
aF2.7927184762987656
aF-3.128355160451557
aa(lp239
F7.535037962160255
aF2.7927184762987656
aF-3.128355160451557
aa(lp240
F7.535037962160255
aF2.7927184762987656
aF-3.128355160451557
aa(lp241
F7.535037962160255
aF2.7927184762987656
aF-3.128355160451557
aa(lp242
F7.535037962160255
aF2.7927184762987656
aF-3.128355160451557
aa(lp243
F7.535037962160255
aF2.7927184762987656
aF-3.128355160451557
aa(lp244
F7.535037962160255
aF2.7927184762987656
aF-3.128355160451557
aa(lp245
F7.535037962160255
aF2.7927184762987656
aF-3.128355160451557
aa(lp246
F7.535037962160255
aF2.7927184762987656
aF-3.128355160451557
aa(lp247
F7.535037962160255
aF2.7927184762987656
aF-3.128355160451557
aa(lp248
F7.535037962160255
aF2.7927184762987656
aF-3.128355160451557
aa(lp249
F7.535037962160255
aF2.7927184762987656
aF-3.128355160451557
aa(lp250
F7.535037962160255
aF2.7927184762987656
aF-3.128355160451557
aa(lp251
F7.535037962160255
aF2.7927184762987656
aF-3.128355160451557
aa(lp252
F7.535037962160255
aF2.7927184762987656
aF-3.128355160451557
aa(lp253
F7.535037962160255
aF2.7927184762987656
aF-3.128355160451557
aa(lp254
F7.535037962160255
aF2.7927184762987656
aF-3.128355160451557
aa(lp255
F7.535037962160255
aF2.7927184762987656
aF-3.128355160451557
aa(lp256
F7.535037962160255
aF2.7927184762987656
aF-3.128355160451557
aa(lp257
F7.535037962160255
aF2.7927184762987656
aF-3.128355160451557
aa(lp258
F7.535037962160255
aF2.7927184762987656
aF-3.128355160451557
aa(lp259
F7.535037962160255
aF2.7927184762987656
aF-3.128355160451557
aa(lp260
F7.535037962160255
aF2.7927184762987656
aF-3.128355160451557
aa(lp261
F7.535037962160255
aF2.7927184762987656
aF-3.128355160451557
aa(lp262
F7.535037962160255
aF2.7927184762987656
aF-3.128355160451557
aa(lp263
F7.535037962160255
aF2.7927184762987656
aF-3.128355160451557
aa(lp264
F7.540037524088586
aF2.792784661831455
aF-3.128355160451557
aa(lp265
F7.550036647945248
aF2.7929170328968342
aF-3.128355160451557
aa(lp266
F7.565035333730242
aF2.793115589494903
aF-3.128355160451557
aa(lp267
F7.585033581443565
aF2.7933803316256616
aF-3.128355160451557
aa(lp268
F7.6100313910852435
aF2.79371125928911
aF-3.128355160451557
aa(lp269
F7.640028762655253
aF2.7941083724852476
aF-3.128355160451557
aa(lp270
F7.675025696153592
aF2.7945716712140753
aF-3.128355160451557
aa(lp271
F7.715022191580263
aF2.7951011554755927
aF-3.128355160451557
aa(lp272
F7.760018248935265
aF2.7956968252697996
aF-3.128355160451557
aa(lp273
F7.810013868218621
aF2.7963586805966965
aF-3.128355160451557
aa(lp274
F7.860009487501977
aF2.7970205359235933
aF-3.128355160451557
aa(lp275
F7.910005106785333
aF2.7976823912504902
aF-3.128355160451557
aa(lp276
F7.96000072606869
aF2.798344246577387
aF-3.128355160451557
aa(lp277
F8.009996345352045
aF2.799006101904284
aF-3.128355160451557
aa(lp278
F8.059991964635401
aF2.799667957231181
aF-3.128355160451557
aa(lp279
F8.109987583918757
aF2.800329812558078
aF-3.128355160451557
aa(lp280
F8.159983203202113
aF2.8009916678849747
aF-3.128355160451557
aa(lp281
F8.20997882248547
aF2.8016535232118716
aF-3.128355160451557
aa(lp282
F8.259974441768826
aF2.8023153785387684
aF-3.128355160451557
aa(lp283
F8.309970061052182
aF2.8029772338656653
aF-3.128355160451557
aa(lp284
F8.359965680335538
aF2.803639089192562
aF-3.128355160451557
aa(lp285
F8.409961299618894
aF2.804300944519459
aF-3.128355160451557
aa(lp286
F8.45995691890225
aF2.804962799846356
aF-3.128355160451557
aa(lp287
F8.509952538185606
aF2.805624655173253
aF-3.128355160451557
aa(lp288
F8.559948157468963
aF2.8062865105001498
aF-3.128355160451557
aa(lp289
F8.609943776752319
aF2.8069483658270467
aF-3.128355160451557
aa(lp290
F8.659939396035675
aF2.8076102211539435
aF-3.128355160451557
aa(lp291
F8.709935015319031
aF2.8082720764808404
aF-3.128355160451557
aa(lp292
F8.759930634602387
aF2.8089339318077373
aF-3.128355160451557
aa(lp293
F8.80492669195739
aF2.809529601601944
aF-3.128355160451557
aa(lp294
F8.84492318738406
aF2.8100590858634615
aF-3.128355160451557
aa(lp295
F8.8799201208824
aF2.8105223845922893
aF-3.128355160451557
aa(lp296
F8.909917492452408
aF2.810919497788427
aF-3.128355160451557
aa(lp297
F8.934915302094085
aF2.8112504254518753
aF-3.128355160451557
aa(lp298
F8.95491354980741
aF2.811515167582634
aF-3.128355160451557
aa(lp299
F8.969912235592403
aF2.8117137241807026
aF-3.128355160451557
aa(lp300
F8.979911359449066
aF2.8118460952460818
aF-3.128355160451557
aa(lp301
F8.984910921377397
aF2.8119122807787713
aF-3.128355160451557
aa(lp302
F8.984910921377397
aF2.8119122807787713
aF-3.128355160451557
aa(lp303
F8.984910921377397
aF2.8119122807787713
aF-3.128355160451557
aa(lp304
F8.984910921377397
aF2.8119122807787713
aF-3.128355160451557
aa(lp305
F8.984910921377397
aF2.8119122807787713
aF-3.128355160451557
aa(lp306
F8.984910921377397
aF2.8119122807787713
aF-3.128355160451557
aa(lp307
F8.984910921377397
aF2.8119122807787713
aF-3.128355160451557
aa(lp308
F8.984910921377397
aF2.8119122807787713
aF-3.128355160451557
aa(lp309
F8.984910921377397
aF2.8119122807787713
aF-3.128355160451557
aa(lp310
F8.984910921377397
aF2.8119122807787713
aF-3.128355160451557
aa(lp311
F8.984910921377397
aF2.8119122807787713
aF-3.128355160451557
aa(lp312
F8.984910921377397
aF2.8119122807787713
aF-3.128355160451557
aa(lp313
F8.984910921377397
aF2.8119122807787713
aF-3.128355160451557
aa(lp314
F8.984910921377397
aF2.8119122807787713
aF-3.128355160451557
aa(lp315
F8.984910921377397
aF2.8119122807787713
aF-3.128355160451557
aa(lp316
F8.984910921377397
aF2.8119122807787713
aF-3.128355160451557
aa(lp317
F8.984910921377397
aF2.8119122807787713
aF-3.128355160451557
aa(lp318
F8.984910921377397
aF2.8119122807787713
aF-3.128355160451557
aa(lp319
F8.984910921377397
aF2.8119122807787713
aF-3.128355160451557
aa(lp320
F8.984910921377397
aF2.8119122807787713
aF-3.128355160451557
aa(lp321
F8.984910921377397
aF2.8119122807787713
aF-3.128355160451557
aa(lp322
F8.984910921377397
aF2.8119122807787713
aF-3.128355160451557
aa(lp323
F8.984910921377397
aF2.8119122807787713
aF-3.128355160451557
aa(lp324
F8.989910483305728
aF2.811978466311461
aF-3.128355160451557
aa(lp325
F8.99990960716239
aF2.81211083737684
aF-3.128355160451557
aa(lp326
F9.014908292947384
aF2.8123093939749086
aF-3.128355160451557
aa(lp327
F9.034906540660709
aF2.8125741361056673
aF-3.128355160451557
aa(lp328
F9.059904350302386
aF2.8129050637691155
aF-3.128355160451557
aa(lp329
F9.089901721872394
aF2.8133021769652533
aF-3.128355160451557
aa(lp330
F9.114899531514071
aF2.8136331046287015
aF-3.128355160451557
aa(lp331
F9.134897779227417
aF2.81389784675946
aF-3.128355160451557
aa(lp332
F9.149896465012434
aF2.8140964033575293
aF-3.128355160451557
aa(lp333
F9.169894712725803
aF2.8143611454882884
aF-3.128355160451557
aa(lp334
F9.194892522367503
aF2.814692073151737
aF-3.128355160451557
aa(lp335
F9.224889893937535
aF2.8150891863478753
aF-3.128355160451557
aa(lp336
F9.259886827435897
aF2.815552485076703
aF-3.128355160451557
aa(lp337
F9.289884199005929
aF2.8159495982728413
aF-3.128355160451557
aa(lp338
F9.314882008647606
aF2.8162805259362895
aF-3.128355160451557
aa(lp339
F9.334880256360952
aF2.816545268067048
aF-3.128355160451557
aa(lp340
F9.349878942145969
aF2.8167438246651173
aF-3.128355160451557
aa(lp341
F9.359878066002654
aF2.816876195730497
aF-3.128355160451557
aa(lp342
F9.364877627931008
aF2.816942381263187
aF-3.128355160451557
aa(lp343
F9.364877627931008
aF2.816942381263187
aF-3.128355160451557
aa(lp344
F9.364877627931008
aF2.816942381263187
aF-3.128355160451557
aa(lp345
F9.364877627931008
aF2.816942381263187
aF-3.128355160451557
aa(lp346
F9.364877627931008
aF2.816942381263187
aF-3.128355160451557
aa(lp347
F9.364877627931008
aF2.816942381263187
aF-3.128355160451557
aa(lp348
F9.364877627931008
aF2.816942381263187
aF-3.128355160451557
aa(lp349
F9.364877627931008
aF2.816942381263187
aF-3.128355160451557
aa(lp350
F9.364877627931008
aF2.816942381263187
aF-3.128355160451557
aa(lp351
F9.364877627931008
aF2.816942381263187
aF-3.128355160451557
aa(lp352
F9.364877627931008
aF2.816942381263187
aF-3.128355160451557
aa(lp353
F9.364877627931008
aF2.816942381263187
aF-3.128355160451557
aa(lp354
F9.364877627931008
aF2.816942381263187
aF-3.128355160451557
aa(lp355
F9.364877627931008
aF2.816942381263187
aF-3.128355160451557
aa(lp356
F9.364877627931008
aF2.816942381263187
aF-3.128355160451557
aa(lp357
F9.364877627931008
aF2.816942381263187
aF-3.128355160451557
aa(lp358
F9.364877627931008
aF2.816942381263187
aF-3.128355160451557
aa(lp359
F9.364877627931008
aF2.816942381263187
aF-3.128355160451557
aa(lp360
F9.364877627931008
aF2.816942381263187
aF-3.128355160451557
aa(lp361
F9.364877627931008
aF2.816942381263187
aF-3.128355160451557
aa(lp362
F9.364877627931008
aF2.816942381263187
aF-3.128355160451557
aa(lp363
F9.364877627931008
aF2.816942381263187
aF-3.128355160451557
aa(lp364
F9.364877627931008
aF2.816942381263187
aF-3.128355160451557
aa(lp365
F9.364877627931008
aF2.816942381263187
aF-3.128355160451557
aa(lp366
F9.364877627931008
aF2.816942381263187
aF-3.128355160451557
aa(lp367
F9.364877627931008
aF2.816942381263187
aF-3.128355160451557
aa(lp368
F9.364877627931008
aF2.816942381263187
aF-3.128355160451557
aa(lp369
F9.364877627931008
aF2.816942381263187
aF-3.128355160451557
aa(lp370
F9.364877627931008
aF2.816942381263187
aF-3.128355160451557
aa(lp371
F9.364877627931008
aF2.816942381263187
aF-3.128355160451557
aa(lp372
F9.364877627931008
aF2.816942381263187
aF-3.128355160451557
aa(lp373
F9.364877627931008
aF2.816942381263187
aF-3.128355160451557
aa(lp374
F9.364877627931008
aF2.816942381263187
aF-3.128355160451557
aa(lp375
F9.364877627931008
aF2.816942381263187
aF-3.128355160451557
aa(lp376
F9.364877627931008
aF2.816942381263187
aF-3.128355160451557
aa(lp377
F9.364877627931008
aF2.816942381263187
aF-3.128355160451557
aa(lp378
F9.364877627931008
aF2.816942381263187
aF-3.128355160451557
aa(lp379
F9.364877627931008
aF2.816942381263187
aF-3.128355160451557
aa(lp380
F9.364877627931008
aF2.816942381263187
aF-3.128355160451557
aa(lp381
F9.364877627931008
aF2.816942381263187
aF-3.128355160451557
aa(lp382
F9.364877627931008
aF2.816942381263187
aF-3.128355160451557
aa(lp383
F9.364877627931008
aF2.816942381263187
aF-3.128355160451557
aa(lp384
F9.364877627931008
aF2.816942381263187
aF-3.128355160451557
aa(lp385
F9.364877627931008
aF2.816942381263187
aF3.1214968133947263
aa(lp386
F9.364877627931008
aF2.816942381263187
aF3.0548301467281203
aa(lp387
F9.359896435459893
aF2.8173756497315217
aF2.988163480061514
aa(lp388
F9.350013907299237
aF2.8189039288794877
aF2.921496813394908
aa(lp389
F9.34269483332664
aF2.82054135252159
aF2.8714968133948773
aa(lp390
F9.337876106684899
aF2.821875471538863
aF2.8381634800614988
aa(lp391
F9.3354903129748
aF2.822622457732107
aF2.8214968133947718
aa(lp392
F9.33549031297479
aF2.8226224577321104
aF2.8214968133946954
aa(lp393
F9.33549031297479
aF2.8226224577321104
aF2.8214968133946954
aa(lp394
F9.33549031297479
aF2.8226224577321104
aF2.8214968133946954
aa(lp395
F9.33549031297479
aF2.8226224577321104
aF2.8214968133946954
aa(lp396
F9.33549031297479
aF2.8226224577321104
aF2.8214968133946954
aa(lp397
F9.33549031297479
aF2.8226224577321104
aF2.8214968133946954
aa(lp398
F9.33549031297479
aF2.8226224577321104
aF2.8214968133946954
aa(lp399
F9.33549031297479
aF2.8226224577321104
aF2.8214968133946954
aa(lp400
F9.33549031297479
aF2.8226224577321104
aF2.8214968133946954
aa(lp401
F9.33549031297479
aF2.8226224577321104
aF2.8214968133946954
aa(lp402
F9.33549031297479
aF2.8226224577321104
aF2.8214968133946954
aa(lp403
F9.33549031297479
aF2.8226224577321104
aF2.8214968133946954
aa(lp404
F9.33549031297479
aF2.8226224577321104
aF2.8214968133946954
aa(lp405
F9.33549031297479
aF2.8226224577321104
aF2.8214968133946954
aa(lp406
F9.33549031297479
aF2.8226224577321104
aF2.8214968133946954
aa(lp407
F9.33549031297479
aF2.8226224577321104
aF2.8214968133946954
aa(lp408
F9.33549031297479
aF2.8226224577321104
aF2.8214968133946954
aa(lp409
F9.33549031297479
aF2.8226224577321104
aF2.8214968133946954
aa(lp410
F9.33549031297479
aF2.8226224577321104
aF2.8214968133946954
aa(lp411
F9.33549031297479
aF2.8226224577321104
aF2.8214968133946954
aa(lp412
F9.33549031297479
aF2.8226224577321104
aF2.8214968133946954
aa(lp413
F9.33549031297479
aF2.8226224577321104
aF2.8214968133946954
aa(lp414
F9.33549031297479
aF2.8226224577321104
aF2.8214968133946954
aa(lp415
F9.33549031297479
aF2.8226224577321104
aF2.8214968133946954
aa(lp416
F9.33549031297479
aF2.8226224577321104
aF2.8214968133946954
aa(lp417
F9.33549031297479
aF2.8226224577321104
aF2.8214968133946954
aa(lp418
F9.33549031297479
aF2.8226224577321104
aF2.7881634800612414
aa(lp419
F9.33549031297479
aF2.8226224577321104
aF2.7214968133944835
aa(lp420
F9.33549031297479
aF2.8226224577321104
aF2.6881634800610286
aa(lp421
F9.33549031297479
aF2.8226224577321104
aF2.6881634800608776
aa(lp422
F9.33549031297479
aF2.8226224577321104
aF2.6881634800608776
aa(lp423
F9.33549031297479
aF2.8226224577321104
aF2.6548301467274236
aa(lp424
F9.33549031297479
aF2.8226224577321104
aF2.5881634800606657
aa(lp425
F9.33549031297479
aF2.8226224577321104
aF2.5096236637209213
aa(lp426
F9.33549031297479
aF2.8226224577321104
aF2.464417180714479
aa(lp427
F9.33549031297479
aF2.8226224577321104
aF2.3858773643747337
aa(lp428
F9.33549031297479
aF2.8226224577321104
aF2.3073375480349902
aa(lp429
F9.33549031297479
aF2.8226224577321104
aF2.262131065028548
aa(lp430
F9.33549031297479
aF2.8226224577321104
aF2.2502579153554088
aa(lp431
F9.33549031297479
aF2.8226224577321104
aF2.2502579153554088
aa(lp432
F9.33549031297479
aF2.8226224577321104
aF2.2502579153554088
aa(lp433
F9.33549031297479
aF2.8226224577321104
aF2.2502579153554088
aa(lp434
F9.33549031297479
aF2.8226224577321104
aF2.2502579153554088
aa(lp435
F9.33549031297479
aF2.8226224577321104
aF2.2502579153554088
aa(lp436
F9.33549031297479
aF2.8226224577321104
aF2.2502579153554088
aa(lp437
F9.33549031297479
aF2.8226224577321104
aF2.2502579153554088
aa(lp438
F9.33549031297479
aF2.8226224577321104
aF2.2502579153554088
aa(lp439
F9.33549031297479
aF2.8226224577321104
aF2.2502579153554088
aa(lp440
F9.33549031297479
aF2.8226224577321104
aF2.2502579153554088
aa(lp441
F9.33549031297479
aF2.8226224577321104
aF2.2502579153554088
aa(lp442
F9.33549031297479
aF2.8226224577321104
aF2.2502579153554088
aa(lp443
F9.33549031297479
aF2.8226224577321104
aF2.2502579153554088
aa(lp444
F9.33549031297479
aF2.8226224577321104
aF2.2502579153554088
aa(lp445
F9.33549031297479
aF2.8226224577321104
aF2.2502579153554088
aa(lp446
F9.33549031297479
aF2.8226224577321104
aF2.2502579153554088
aa(lp447
F9.33549031297479
aF2.8226224577321104
aF2.2502579153554088
aa(lp448
F9.33549031297479
aF2.8226224577321104
aF2.2502579153554088
aa(lp449
F9.33549031297479
aF2.8226224577321104
aF2.2502579153554088
aa(lp450
F9.33549031297479
aF2.8226224577321104
aF2.2502579153554088
aa(lp451
F9.33549031297479
aF2.8226224577321104
aF2.2502579153554088
aa(lp452
F9.33549031297479
aF2.8226224577321104
aF2.2502579153554088
aa(lp453
F9.33549031297479
aF2.8226224577321104
aF2.2502579153554088
aa(lp454
F9.33549031297479
aF2.8226224577321104
aF2.2502579153554088
aa(lp455
F9.33549031297479
aF2.8226224577321104
aF2.2502579153554088
aa(lp456
F9.33549031297479
aF2.8226224577321104
aF2.2502579153554088
aa(lp457
F9.33549031297479
aF2.8226224577321104
aF2.2502579153554088
aa(lp458
F9.33549031297479
aF2.8226224577321104
aF2.2502579153554088
aa(lp459
F9.33549031297479
aF2.8226224577321104
aF2.2502579153554088
aa(lp460
F9.33549031297479
aF2.8226224577321104
aF2.2502579153554088
aa(lp461
F9.33549031297479
aF2.8226224577321104
aF2.2502579153554088
aa(lp462
F9.33549031297479
aF2.8226224577321104
aF2.2502579153554088
aa(lp463
F9.33549031297479
aF2.8226224577321104
aF2.2169245820219547
aa(lp464
F9.33549031297479
aF2.8226224577321104
aF2.1502579153551977
aa(lp465
F9.33549031297479
aF2.8226224577321104
aF2.116924582021743
aa(lp466
F9.33549031297479
aF2.8226224577321104
aF2.116924582021591
aa(lp467
F9.33549031297479
aF2.8226224577321104
aF2.116924582021591
aa(lp468
F9.33549031297479
aF2.8226224577321104
aF2.083591248688137
aa(lp469
F9.33549031297479
aF2.8226224577321104
aF2.016924582021379
aa(lp470
F9.33549031297479
aF2.8226224577321104
aF1.9383847656816346
aa(lp471
F9.33549031297479
aF2.8226224577321104
aF1.8931782826751924
aa(lp472
F9.33549031297479
aF2.8226224577321104
aF1.881305133002054
aa(lp473
F9.33549031297479
aF2.8226224577321104
aF1.8360986499954608
aa(lp474
F9.33549031297479
aF2.8226224577321104
aF1.7575588336557155
aa(lp475
F9.33549031297479
aF2.8226224577321104
aF1.6790190173159703
aa(lp476
F9.33549031297479
aF2.8226224577321104
aF1.6004792009762259
aa(lp477
F9.33549031297479
aF2.8226224577321104
aF1.5219393846364806
aa(lp478
F9.33549031297479
aF2.8226224577321104
aF1.4433995682967353
aa(lp479
F9.33549031297479
aF2.8226224577321104
aF1.3981930852902948
aa(lp480
F9.33549031297479
aF2.8226224577321104
aF1.3863199356171556
aa(lp481
F9.33549031297479
aF2.8226224577321104
aF1.3863199356171556
aa(lp482
F9.33549031297479
aF2.8226224577321104
aF1.3863199356171556
aa(lp483
F9.33549031297479
aF2.8226224577321104
aF1.3863199356171556
aa(lp484
F9.33549031297479
aF2.8226224577321104
aF1.3863199356171556
aa(lp485
F9.33549031297479
aF2.8226224577321104
aF1.3863199356171556
aa(lp486
F9.33549031297479
aF2.8226224577321104
aF1.3863199356171556
aa(lp487
F9.33549031297479
aF2.8226224577321104
aF1.3863199356171556
aa(lp488
F9.33549031297479
aF2.8226224577321104
aF1.4196532689506096
aa(lp489
F9.33549031297479
aF2.8226224577321104
aF1.4863199356173675
aa(lp490
F9.33549031297479
aF2.8226224577321104
aF1.5196532689508233
aa(lp491
F9.33549031297479
aF2.8226224577321104
aF1.5196532689509743
aa(lp492
F9.33549031297479
aF2.8226224577321104
aF1.5196532689509743
aa(lp493
F9.33549031297479
aF2.8226224577321104
aF1.5196532689509743
aa(lp494
F9.33549031297479
aF2.8226224577321104
aF1.5196532689509743
aa(lp495
F9.33549031297479
aF2.8226224577321104
aF1.5529866022842773
aa(lp496
F9.33549031297479
aF2.8226224577321104
aF1.6196532689508834
aa(lp497
F9.33549031297479
aF2.8226224577321104
aF1.6529866022841864
aa(lp498
F9.33549031297479
aF2.8226224577321104
aF1.6529866022841864
aa(lp499
F9.33549031297479
aF2.8226224577321104
aF1.6529866022841864
aa(lp500
F9.33549031297479
aF2.8226224577321104
aF1.6529866022841864
aa(lp501
F9.33549031297479
aF2.8226224577321104
aF1.6529866022841864
aa(lp502
F9.335079824120385
aF2.8276055791334374
aF1.6529866022841864
aa(lp503
F9.334258846411574
aF2.8375718219361143
aF1.6529866022841864
aa(lp504
F9.333848357557168
aF2.842554943337464
aF1.6529866022841864
aa(lp505
F9.333848357557166
aF2.8425549433374866
aF1.6529866022841864
aa(lp506
F9.333848357557166
aF2.8425549433374866
aF1.6529866022841864
aa(lp507
F9.333437868702761
aF2.8475380647388135
aF1.6529866022841864
aa(lp508
F9.33261689099395
aF2.8575043075414905
aF1.6529866022841864
aa(lp509
F9.331385424430735
aF2.8724536717454945
aF1.6529866022841864
aa(lp510
F9.329743469013115
aF2.8923861573508254
aF1.6529866022841864
aa(lp511
F9.32769102474109
aF2.9173017643574837
aF1.6529866022841864
aa(lp512
F9.325228091614662
aF2.947200492765469
aF1.6529866022841864
aa(lp513
F9.322354669633826
aF2.982082342574804
aF1.6529866022841864
aa(lp514
F9.319070758798587
aF3.0219473137854664
aF1.6529866022841864
aa(lp515
F9.315376359108942
aF3.0667954063974556
aF1.6529866022841864
aa(lp516
F9.312092448273702
aF3.106660377608118
aF1.6529866022841864
aa(lp517
F9.309219026292867
aF3.141542227417453
aF1.6529866022841864
aa(lp518
F9.306756093166438
aF3.1714409558254384
aF1.6529866022841864
aa(lp519
F9.304703648894414
aF3.1963565628320967
aF1.6529866022841864
aa(lp520
F9.303061693476794
aF3.2162890484374276
aF1.6529866022841864
aa(lp521
F9.301830226913578
aF3.2312384126414315
aF1.6529866022841864
aa(lp522
F9.301009249204768
aF3.2412046554441085
aF1.6529866022841864
aa(lp523
F9.300598760350363
aF3.2461877768454355
aF1.6529866022841864
aa(lp524
F9.300188271495959
aF3.2511708982467624
aF1.6196532689508834
aa(lp525
F9.299944083958213
aF3.2561649319317074
aF1.5529866022842773
aa(lp526
F9.30003312787334
aF3.2611641389869446
aF1.5196532689509743
aa(lp527
F9.300160929787566
aF3.2636608701840717
aF1.5029866022843228
aa(lp528
F9.300160929787566
aF3.2636608701840717
aF1.5029866022843228
aa(lp529
F9.300160929787566
aF3.2636608701840717
aF1.5029866022843228
aa(lp530
F9.300160929787566
aF3.2636608701840717
aF1.5029866022843228
aa(lp531
F9.300160929787566
aF3.2636608701840717
aF1.5029866022843228
aa(lp532
F9.300160929787566
aF3.2636608701840717
aF1.5029866022843228
aa(lp533
F9.300160929787566
aF3.2636608701840717
aF1.5029866022843228
aa(lp534
F9.300160929787566
aF3.2636608701840717
aF1.5029866022843228
aa(lp535
F9.300160929787566
aF3.2636608701840717
aF1.5029866022843228
aa(lp536
F9.300160929787566
aF3.2636608701840717
aF1.5029866022843228
aa(lp537
F9.300160929787566
aF3.2636608701840717
aF1.5029866022843228
aa(lp538
F9.300160929787566
aF3.2636608701840717
aF1.5029866022843228
aa(lp539
F9.300160929787566
aF3.2636608701840717
aF1.5029866022843228
aa(lp540
F9.300160929787566
aF3.2636608701840717
aF1.5029866022843228
aa(lp541
F9.300160929787566
aF3.2636608701840717
aF1.5029866022843228
aa(lp542
F9.300160929787566
aF3.2636608701840717
aF1.5029866022843228
aa(lp543
F9.300160929787566
aF3.2636608701840717
aF1.5029866022843228
aa(lp544
F9.300160929787566
aF3.2636608701840717
aF1.5029866022843228
aa(lp545
F9.300160929787566
aF3.2636608701840717
aF1.5029866022843228
aa(lp546
F9.300160929787566
aF3.2636608701840717
aF1.5029866022843228
aa(lp547
F9.300160929787566
aF3.2636608701840717
aF1.5029866022843228
aa(lp548
F9.300160929787566
aF3.2636608701840717
aF1.5029866022843228
aa(lp549
F9.300160929787566
aF3.2636608701840717
aF1.5029866022843228
aa(lp550
F9.300160929787566
aF3.2636608701840717
aF1.5029866022843228
aa(lp551
F9.300160929787566
aF3.2636608701840717
aF1.5029866022843228
aa(lp552
F9.300160929787566
aF3.2636608701840717
aF1.5029866022843228
aa(lp553
F9.300160929787566
aF3.2636608701840717
aF1.5029866022843228
aa(lp554
F9.300160929787566
aF3.2636608701840717
aF1.5029866022843228
aa(lp555
F9.300160929787566
aF3.2636608701840717
aF1.5029866022843228
aa(lp556
F9.300160929787566
aF3.2636608701840717
aF1.5029866022843228
aa(lp557
F9.300160929787566
aF3.2636608701840717
aF1.5029866022843228
aa(lp558
F9.300160929787566
aF3.2636608701840717
aF1.5029866022843228
aa(lp559
F9.300160929787566
aF3.2636608701840717
aF1.5029866022843228
aa(lp560
F9.300160929787566
aF3.2636608701840717
aF1.5029866022843228
aa(lp561
F9.300160929787566
aF3.2636608701840717
aF1.5029866022843228
aa(lp562
F9.300160929787566
aF3.2636608701840717
aF1.5029866022843228
aa(lp563
F9.300160929787566
aF3.2636608701840717
aF1.5029866022843228
aa(lp564
F9.300160929787566
aF3.2636608701840717
aF1.5029866022843228
aa(lp565
F9.300160929787566
aF3.2636608701840717
aF1.5029866022843228
aa(lp566
F9.300160929787566
aF3.2636608701840717
aF1.5029866022843228
aa(lp567
F9.300160929787566
aF3.2636608701840717
aF1.5029866022843228
aa(lp568
F9.300160929787566
aF3.2636608701840717
aF1.5029866022843228
aa(lp569
F9.300160929787566
aF3.2636608701840717
aF1.5029866022843228
aa(lp570
F9.300160929787566
aF3.2636608701840717
aF1.5029866022843228
aa(lp571
F9.300160929787566
aF3.2636608701840717
aF1.5029866022843228
aa(lp572
F9.300160929787566
aF3.2636608701840717
aF1.5029866022843228
aa(lp573
F9.300160929787566
aF3.2636608701840717
aF1.5029866022843228
aa(lp574
F9.300499718636619
aF3.2686493791913516
aF1.5029866022843228
aa(lp575
F9.301177296334725
aF3.2786263972059113
aF1.5029866022843228
aa(lp576
F9.301516085183778
aF3.283614906213191
aF1.5029866022843228
aa(lp577
F9.301516085183778
aF3.283614906213191
aF1.5029866022843228
aa(lp578
F9.301516085183778
aF3.283614906213191
aF1.5029866022843228
aa(lp579
F9.30185487403283
aF3.288603415220471
aF1.5029866022843228
aa(lp580
F9.302532451730936
aF3.298580433235031
aF1.5029866022843228
aa(lp581
F9.30287124057999
aF3.3035689422423107
aF1.5029866022843228
aa(lp582
F9.303210029429042
aF3.3085574512495906
aF1.5363199356176258
aa(lp583
F9.303382377237472
aF3.313554479990036
aF1.6029866022843526
aa(lp584
F9.30322145365526
aF3.318551889679125
aF1.6363199356177773
aa(lp585
F9.302894069990284
aF3.3235411601604494
aF1.702986602284505
aa(lp586
F9.302564555931164
aF3.326019349113053
aF1.7815264186242494
aa(lp587
F9.302041621189655
aF3.328464045261062
aF1.8267329016306908
aa(lp588
F9.301499753704805
aF3.3305348086252087
aF1.8410028098004956
aa(lp589
F9.30092839278914
aF3.3325976290210453
aF1.8219393846369965
aa(lp590
F9.300396457731104
aF3.3346709660354885
aF1.7695426261401943
aa(lp591
F9.299973839135687
aF3.3367693165315297
aF1.69100280980045
aa(lp592
F9.299952283192574
aF3.336947776274421
aF1.6124629934607047
aa(lp593
F9.299944795489292
aF3.3371273771452867
aF1.5672565104544143
aa(lp594
F9.29994543179433
aF3.3373071329063406
aF1.5553833607814278
aa(lp595
F9.29994543179433
aF3.3373071329063406
aF1.5553833607814278
aa(lp596
F9.29994543179433
aF3.3373071329063406
aF1.5553833607814278
aa(lp597
F9.29994543179433
aF3.3373071329063406
aF1.5553833607814278
aa(lp598
F9.29994543179433
aF3.3373071329063406
aF1.5553833607814278
aa(lp599
F9.29994543179433
aF3.3373071329063406
aF1.5553833607814278
aa(lp600
F9.29994543179433
aF3.3373071329063406
aF1.5887166941147308
aa(lp601
F9.29994543179433
aF3.3373071329063406
aF1.6553833607813369
aa(lp602
F9.29994543179433
aF3.3373071329063406
aF1.6887166941146399
aa(lp603
F9.29994543179433
aF3.3373071329063406
aF1.6887166941146399
aa(lp604
F9.29994543179433
aF3.3373071329063406
aF1.6887166941146399
aa(lp605
F9.29994543179433
aF3.3373071329063406
aF1.6887166941146399
aa(lp606
F9.29994543179433
aF3.3373071329063406
aF1.6887166941146399
aa(lp607
F9.29994543179433
aF3.3373071329063406
aF1.6553833607813369
aa(lp608
F9.29994543179433
aF3.3373071329063406
aF1.588716694114579
aa(lp609
F9.29994543179433
aF3.3373071329063406
aF1.555383360781124
aa(lp610
F9.29994543179433
aF3.3373071329063406
aF1.5553833607809722
aa(lp611
F9.29994543179433
aF3.3373071329063406
aF1.5553833607809722
aa(lp612
F9.29994543179433
aF3.3373071329063406
aF1.5553833607809722
aa(lp613
F9.300022493573188
aF3.3423065390193125
aF1.5553833607809722
aa(lp614
F9.300176617130905
aF3.3523053512452337
aF1.5553833607809722
aa(lp615
F9.30040780246748
aF3.367303569584104
aF1.5553833607809722
aa(lp616
F9.300716049582915
aF3.3873011940359237
aF1.5553833607809722
aa(lp617
F9.301101358477208
aF3.4122982246006925
aF1.5553833607809722
aa(lp618
F9.30156372915036
aF3.4422946612784333
aF1.5553833607809722
aa(lp619
F9.30210316160237
aF3.477290504069123
aF1.5553833607809722
aa(lp620
F9.302719655833238
aF3.5172857529727617
aF1.5553833607809722
aa(lp621
F9.303413211842965
aF3.5622804079893498
aF1.5553833607809722
aa(lp622
F9.304183829631551
aF3.612274469118887
aF1.5553833607809722
aa(lp623
F9.304954447420137
aF3.6622685302484244
aF1.5553833607809722
aa(lp624
F9.305725065208723
aF3.7122625913779617
aF1.5553833607809722
aa(lp625
F9.306495682997308
aF3.762256652507499
aF1.5553833607809722
aa(lp626
F9.307266300785894
aF3.8122507136370363
aF1.5553833607809722
aa(lp627
F9.30803691857448
aF3.8622447747665736
aF1.5553833607809722
aa(lp628
F9.308807536363066
aF3.912238835896111
aF1.5553833607809722
aa(lp629
F9.309578154151652
aF3.962232897025648
aF1.5553833607809722
aa(lp630
F9.310348771940237
aF4.0122269581551855
aF1.5553833607809722
aa(lp631
F9.311119389728823
aF4.062221019284723
aF1.5553833607809722
aa(lp632
F9.311890007517409
aF4.112215080414261
aF1.5553833607809722
aa(lp633
F9.312660625305995
aF4.162209141543799
aF1.5553833607809722
aa(lp634
F9.31343124309458
aF4.2122032026733365
aF1.5553833607809722
aa(lp635
F9.314201860883166
aF4.262197263802874
aF1.5553833607809722
aa(lp636
F9.314972478671752
aF4.312191324932412
aF1.5553833607809722
aa(lp637
F9.315743096460338
aF4.36218538606195
aF1.5553833607809722
aa(lp638
F9.316513714248924
aF4.4121794471914875
aF1.5553833607809722
aa(lp639
F9.31728433203751
aF4.462173508321025
aF1.5553833607809722
aa(lp640
F9.318054949826095
aF4.512167569450563
aF1.5553833607809722
aa(lp641
F9.318825567614681
aF4.562161630580101
aF1.5553833607809722
aa(lp642
F9.319596185403267
aF4.6121556917096385
aF1.5553833607809722
aa(lp643
F9.320366803191853
aF4.662149752839176
aF1.5553833607809722
aa(lp644
F9.321137420980438
aF4.712143813968714
aF1.5553833607809722
aa(lp645
F9.321908038769024
aF4.762137875098252
aF1.5553833607809722
aa(lp646
F9.32267865655761
aF4.8121319362277895
aF1.5553833607809722
aa(lp647
F9.323449274346196
aF4.862125997357327
aF1.5553833607809722
aa(lp648
F9.324142830355921
aF4.907120652373893
aF1.5553833607809722
aa(lp649
F9.32475932458679
aF4.947115901277509
aF1.5553833607809722
aa(lp650
F9.3252987570388
aF4.982111744068176
aF1.5553833607809722
aa(lp651
F9.325915251269668
aF5.022106992971792
aF1.5553833607809722
aa(lp652
F9.326608807279394
aF5.067101647988357
aF1.5553833607809722
aa(lp653
F9.32737942506798
aF5.117095709117895
aF1.5553833607809722
aa(lp654
F9.328150042856565
aF5.167089770247433
aF1.5553833607809722
aa(lp655
F9.328920660645151
aF5.2170838313769705
aF1.5553833607809722
aa(lp656
F9.329691278433737
aF5.267077892506508
aF1.5553833607809722
aa(lp657
F9.330461896222323
aF5.317071953636046
aF1.5553833607809722
aa(lp658
F9.331232514010908
aF5.367066014765584
aF1.5553833607809722
aa(lp659
F9.332003131799494
aF5.4170600758951215
aF1.5553833607809722
aa(lp660
F9.33277374958808
aF5.467054137024659
aF1.5553833607809722
aa(lp661
F9.333544367376666
aF5.517048198154197
aF1.5553833607809722
aa(lp662
F9.334314985165252
aF5.567042259283735
aF1.5553833607809722
aa(lp663
F9.335085602953837
aF5.6170363204132725
aF1.5553833607809722
aa(lp664
F9.335856220742423
aF5.66703038154281
aF1.5553833607809722
aa(lp665
F9.336626838531009
aF5.717024442672348
aF1.5553833607809722
aa(lp666
F9.337397456319595
aF5.767018503801886
aF1.5553833607809722
aa(lp667
F9.33816807410818
aF5.8170125649314235
aF1.5553833607809722
aa(lp668
F9.338938691896766
aF5.867006626060961
aF1.5553833607809722
aa(lp669
F9.339709309685352
aF5.917000687190499
aF1.5553833607809722
aa(lp670
F9.340479927473938
aF5.966994748320037
aF1.5553833607809722
aa(lp671
F9.341250545262524
aF6.0169888094495745
aF1.5553833607809722
aa(lp672
F9.34202116305111
aF6.066982870579112
aF1.5553833607809722
aa(lp673
F9.342791780839695
aF6.11697693170865
aF1.5553833607809722
aa(lp674
F9.343562398628281
aF6.166970992838188
aF1.5553833607809722
aa(lp675
F9.344333016416867
aF6.2169650539677255
aF1.5553833607809722
aa(lp676
F9.345103634205453
aF6.266959115097263
aF1.5553833607809722
aa(lp677
F9.345874251994038
aF6.316953176226801
aF1.5553833607809722
aa(lp678
F9.346644869782624
aF6.366947237356339
aF1.5553833607809722
aa(lp679
F9.34741548757121
aF6.4169412984858765
aF1.5553833607809722
aa(lp680
F9.348186105359796
aF6.466935359615414
aF1.5553833607809722
aa(lp681
F9.348879661369523
aF6.511930014632003
aF1.5553833607809722
aa(lp682
F9.349496155600391
aF6.551925263535642
aF1.5553833607809722
aa(lp683
F9.350035588052402
aF6.586921106326309
aF1.5553833607809722
aa(lp684
F9.350497958725553
aF6.616917543004027
aF1.5553833607809722
aa(lp685
F9.350883267619846
aF6.641914573568795
aF1.5553833607809722
aa(lp686
F9.35119151473528
aF6.661912198020614
aF1.5553833607809722
aa(lp687
F9.351422700071856
aF6.676910416359484
aF1.5553833607809722
aa(lp688
F9.351576823629573
aF6.686909228585383
aF1.5553833607809722
aa(lp689
F9.351653885408432
aF6.691908634698332
aF1.5553833607809722
aa(lp690
F9.351653885408432
aF6.691908634698332
aF1.5553833607809722
aa(lp691
F9.351653885408432
aF6.691908634698332
aF1.5553833607809722
aa(lp692
F9.351653885408432
aF6.691908634698332
aF1.5553833607809722
aa(lp693
F9.351653885408432
aF6.691908634698332
aF1.5553833607809722
aa(lp694
F9.351653885408432
aF6.691908634698332
aF1.5553833607809722
aa(lp695
F9.351653885408432
aF6.691908634698332
aF1.5553833607809722
aa(lp696
F9.351653885408432
aF6.691908634698332
aF1.5553833607809722
aa(lp697
F9.351653885408432
aF6.691908634698332
aF1.5553833607809722
aa(lp698
F9.351653885408432
aF6.691908634698332
aF1.5553833607809722
aa(lp699
F9.351653885408432
aF6.691908634698332
aF1.5553833607809722
aa(lp700
F9.351653885408432
aF6.691908634698332
aF1.5553833607809722
aa(lp701
F9.351653885408432
aF6.691908634698332
aF1.5553833607809722
aa(lp702
F9.351653885408432
aF6.691908634698332
aF1.5553833607809722
aa(lp703
F9.351653885408432
aF6.691908634698332
aF1.5553833607809722
aa(lp704
F9.351653885408432
aF6.691908634698332
aF1.5553833607809722
aa(lp705
F9.351653885408432
aF6.691908634698332
aF1.5553833607809722
aa(lp706
F9.351653885408432
aF6.691908634698332
aF1.5553833607809722
aa(lp707
F9.351653885408432
aF6.691908634698332
aF1.5553833607809722
aa(lp708
F9.351653885408432
aF6.691908634698332
aF1.5553833607809722
aa(lp709
F9.351653885408432
aF6.691908634698332
aF1.5553833607809722
aa(lp710
F9.351653885408432
aF6.691908634698332
aF1.5553833607809722
aa(lp711
F9.351653885408432
aF6.691908634698332
aF1.5553833607809722
aa(lp712
F9.351653885408432
aF6.691908634698332
aF1.5553833607809722
aa(lp713
F9.351653885408432
aF6.691908634698332
aF1.588716694114427
aa(lp714
F9.351653885408432
aF6.691908634698332
aF1.655383360781185
aa(lp715
F9.351653885408432
aF6.691908634698332
aF1.6887166941146399
aa(lp716
F9.351653885408432
aF6.691908634698332
aF1.6887166941147909
aa(lp717
F9.351653885408432
aF6.691908634698332
aF1.6887166941147909
aa(lp718
F9.351653885408432
aF6.691908634698332
aF1.7220500274482458
aa(lp719
F9.351653885408432
aF6.691908634698332
aF1.7887166941150037
aa(lp720
F9.351653885408432
aF6.691908634698332
aF1.867256510454748
aa(lp721
F9.351653885408432
aF6.691908634698332
aF1.9457963267944933
aa(lp722
F9.351653885408432
aF6.691908634698332
aF2.0243361431342377
aa(lp723
F9.351653885408432
aF6.691908634698332
aF2.102875959473983
aa(lp724
F9.351653885408432
aF6.691908634698332
aF2.1814157758137274
aa(lp725
F9.351653885408432
aF6.691908634698332
aF2.2599555921534726
aa(lp726
F9.351653885408432
aF6.691908634698332
aF2.338495408493217
aa(lp727
F9.351653885408432
aF6.691908634698332
aF2.4170352248329614
aa(lp728
F9.351653885408432
aF6.691908634698332
aF2.4955750411727067
aa(lp729
F9.351653885408432
aF6.691908634698332
aF2.574114857512452
aa(lp730
F9.351653885408432
aF6.691908634698332
aF2.6526546738521963
aa(lp731
F9.351653885408432
aF6.691908634698332
aF2.7311944901919407
aa(lp732
F9.351653885408432
aF6.691908634698332
aF2.809734306531686
aa(lp733
F9.351653885408432
aF6.691908634698332
aF2.8882741228714313
aa(lp734
F9.351653885408432
aF6.691908634698332
aF2.9668139392111756
aa(lp735
F9.351653885408432
aF6.691908634698332
aF3.04535375555092
aa(lp736
F9.351653885408432
aF6.691908634698332
aF3.1238935718906653
aa(lp737
F9.351653885408432
aF6.691908634698332
aF-3.080751918949176
aa(lp738
F9.351653885408432
aF6.691908634698332
aF-3.0022121026094313
aa(lp739
F9.351653885408432
aF6.691908634698332
aF-2.9236722862696864
aa(lp740
F9.351653885408432
aF6.691908634698332
aF-2.8451324699299416
aa(lp741
F9.351653885408432
aF6.691908634698332
aF-2.766592653590197
aa(lp742
F9.351653885408432
aF6.691908634698332
aF-2.688052837250452
aa(lp743
F9.351653885408432
aF6.691908634698332
aF-2.609513020910707
aa(lp744
F9.351653885408432
aF6.691908634698332
aF-2.5309732045709623
aa(lp745
F9.351653885408432
aF6.691908634698332
aF-2.4524333882312175
aa(lp746
F9.351653885408432
aF6.691908634698332
aF-2.4072269052247757
aa(lp747
F9.351653885408432
aF6.691908634698332
aF-2.395353755551637
aa(lp748
F9.351653885408432
aF6.691908634698332
aF-2.395353755551637
aa(lp749
F9.351653885408432
aF6.691908634698332
aF-2.362020422218334
aa(lp750
F9.351653885408432
aF6.691908634698332
aF-2.295353755551728
aa(lp751
F9.351653885408432
aF6.691908634698332
aF-2.262020422218425
aa(lp752
F9.351653885408432
aF6.691908634698332
aF-2.262020422218425
aa(lp753
F9.351653885408432
aF6.691908634698332
aF-2.262020422218425
aa(lp754
F9.351653885408432
aF6.691908634698332
aF-2.2286870888851222
aa(lp755
F9.351653885408432
aF6.691908634698332
aF-2.1620204222185158
aa(lp756
F9.351653885408432
aF6.691908634698332
aF-2.083480605878771
aa(lp757
F9.351653885408432
aF6.691908634698332
aF-2.0382741228723282
aa(lp758
F9.351653885408432
aF6.691908634698332
aF-2.0264009731993418
aa(lp759
F9.351653885408432
aF6.691908634698332
aF-2.0264009731993418
aa(lp760
F9.351653885408432
aF6.691908634698332
aF-1.993067639866039
aa(lp761
F9.351653885408432
aF6.691908634698332
aF-1.9264009731994332
aa(lp762
F9.351653885408432
aF6.691908634698332
aF-1.8930676398661301
aa(lp763
F9.351653885408432
aF6.691908634698332
aF-1.8930676398661301
aa(lp764
F9.351653885408432
aF6.691908634698332
aF-1.8930676398661301
aa(lp765
F9.351653885408432
aF6.691908634698332
aF-1.8597343065328271
aa(lp766
F9.351653885408432
aF6.691908634698332
aF-1.7930676398662204
aa(lp767
F9.351653885408432
aF6.691908634698332
aF-1.7145278235264765
aa(lp768
F9.351653885408432
aF6.691908634698332
aF-1.6359880071867308
aa(lp769
F9.351653885408432
aF6.691908634698332
aF-1.5574481908469866
aa(lp770
F9.351653885408432
aF6.691908634698332
aF-1.5122417078405448
aa(lp771
F9.351653885408432
aF6.691908634698332
aF-1.500368558167406
aa(lp772
F9.351653885408432
aF6.691908634698332
aF-1.500368558167406
aa(lp773
F9.35200573321817
aF6.686921029750167
aF-1.500368558167406
aa(lp774
F9.352709428837647
aF6.6769458198538585
aF-1.500368558167406
aa(lp775
F9.353061276647386
aF6.671958214905693
aF-1.500368558167406
aa(lp776
F9.353061276647388
aF6.67195821490567
aF-1.500368558167406
aa(lp777
F9.35306127664739
aF6.671958214905647
aF-1.5337018915007086
aa(lp778
F9.35306127664739
aF6.671958214905624
aF-1.6003685581674665
aa(lp779
F9.35306127664739
aF6.671958214905601
aF-1.6337018915009212
aa(lp780
F9.353061276647388
aF6.671958214905578
aF-1.6337018915010726
aa(lp781
F9.353061276647388
aF6.671958214905578
aF-1.6337018915010726
aa(lp782
F9.353061276647388
aF6.671958214905578
aF-1.6337018915010726
aa(lp783
F9.353061276647388
aF6.671958214905578
aF-1.6337018915010726
aa(lp784
F9.353061276647388
aF6.671958214905578
aF-1.6337018915010726
aa(lp785
F9.353061276647388
aF6.671958214905578
aF-1.6337018915010726
aa(lp786
F9.353061276647388
aF6.671958214905578
aF-1.6337018915010726
aa(lp787
F9.353061276647388
aF6.671958214905578
aF-1.6337018915010726
aa(lp788
F9.353061276647388
aF6.671958214905578
aF-1.6337018915010726
aa(lp789
F9.352746956219688
aF6.666968104418957
aF-1.6337018915010726
aa(lp790
F9.352118315364288
aF6.656987883445715
aF-1.6337018915010726
aa(lp791
F9.351803994936589
aF6.651997772959094
aF-1.6337018915010726
aa(lp792
F9.351803994936589
aF6.651997772959094
aF-1.6337018915010726
aa(lp793
F9.351803994936589
aF6.651997772959094
aF-1.6337018915010726
aa(lp794
F9.351489674508889
aF6.647007662472473
aF-1.6337018915010726
aa(lp795
F9.350861033653489
aF6.637027441499231
aF-1.6337018915010726
aa(lp796
F9.34991807237039
aF6.622057110039368
aF-1.6337018915010726
aa(lp797
F9.348660790659592
aF6.602096668092884
aF-1.6337018915010726
aa(lp798
F9.347089188521092
aF6.5771461156597555
aF-1.6337018915010726
aa(lp799
F9.345203265954893
aF6.547205452740006
aF-1.6337018915010726
aa(lp800
F9.343003022960994
aF6.512274679333636
aF-1.6337018915010726
aa(lp801
F9.340488459539396
aF6.472353795440645
aF-1.6337018915010726
aa(lp802
F9.337659575690099
aF6.427442801061033
aF-1.6337018915010726
aa(lp803
F9.3345163714131
aF6.377541696194777
aF-1.6337018915010726
aa(lp804
F9.331373167136102
aF6.327640591328522
aF-1.6337018915010726
aa(lp805
F9.328229962859103
aF6.277739486462266
aF-1.6337018915010726
aa(lp806
F9.325086758582104
aF6.227838381596011
aF-1.6337018915010726
aa(lp807
F9.321943554305106
aF6.177937276729756
aF-1.6337018915010726
aa(lp808
F9.318800350028107
aF6.1280361718635
aF-1.6337018915010726
aa(lp809
F9.315657145751109
aF6.078135066997245
aF-1.6337018915010726
aa(lp810
F9.31251394147411
aF6.028233962130989
aF-1.6337018915010726
aa(lp811
F9.309370737197112
aF5.978332857264734
aF-1.6337018915010726
aa(lp812
F9.306227532920113
aF5.928431752398478
aF-1.6337018915010726
aa(lp813
F9.303084328643115
aF5.878530647532223
aF-1.6337018915010726
aa(lp814
F9.299941124366116
aF5.8286295426659676
aF-1.6337018915010726
aa(lp815
F9.296797920089118
aF5.778728437799712
aF-1.6337018915010726
aa(lp816
F9.293654715812119
aF5.728827332933457
aF-1.6337018915010726
aa(lp817
F9.29051151153512
aF5.678926228067201
aF-1.6337018915010726
aa(lp818
F9.287368307258122
aF5.629025123200946
aF-1.6337018915010726
aa(lp819
F9.284225102981123
aF5.57912401833469
aF-1.6337018915010726
aa(lp820
F9.281081898704125
aF5.529222913468435
aF-1.6337018915010726
aa(lp821
F9.277938694427126
aF5.4793218086021795
aF-1.6337018915010726
aa(lp822
F9.274795490150128
aF5.429420703735924
aF-1.6337018915010726
aa(lp823
F9.27165228587313
aF5.379519598869669
aF-1.6337018915010726
aa(lp824
F9.26850908159613
aF5.329618494003413
aF-1.6337018915010726
aa(lp825
F9.265365877319132
aF5.279717389137158
aF-1.6337018915010726
aa(lp826
F9.262222673042134
aF5.229816284270902
aF-1.6337018915010726
aa(lp827
F9.259079468765135
aF5.179915179404647
aF-1.6337018915010726
aa(lp828
F9.255936264488136
aF5.1300140745383915
aF-1.6337018915010726
aa(lp829
F9.252793060211138
aF5.080112969672136
aF-1.6337018915010726
aa(lp830
F9.24964985593414
aF5.030211864805881
aF-1.6337018915010726
aa(lp831
F9.24650665165714
aF4.980310759939625
aF-1.6337018915010726
aa(lp832
F9.243363447380142
aF4.93040965507337
aF-1.6337018915010726
aa(lp833
F9.240220243103144
aF4.880508550207114
aF-1.6337018915010726
aa(lp834
F9.237077038826145
aF4.830607445340859
aF-1.6337018915010726
aa(lp835
F9.233933834549147
aF4.7807063404746035
aF-1.6337018915010726
aa(lp836
F9.230790630272148
aF4.730805235608348
aF-1.6337018915010726
aa(lp837
F9.22764742599515
aF4.680904130742093
aF-1.6337018915010726
aa(lp838
F9.224504221718151
aF4.631003025875837
aF-1.6337018915010726
aa(lp839
F9.221361017441152
aF4.581101921009582
aF-1.6337018915010726
aa(lp840
F9.218217813164154
aF4.531200816143326
aF-1.6337018915010726
aa(lp841
F9.215074608887155
aF4.481299711277071
aF-1.6337018915010726
aa(lp842
F9.211931404610157
aF4.4313986064108155
aF-1.6337018915010726
aa(lp843
F9.208788200333158
aF4.38149750154456
aF-1.6337018915010726
aa(lp844
F9.20564499605616
aF4.331596396678305
aF-1.6337018915010726
aa(lp845
F9.202501791779161
aF4.281695291812049
aF-1.6337018915010726
aa(lp846
F9.199358587502163
aF4.231794186945794
aF-1.6337018915010726
aa(lp847
F9.196215383225164
aF4.181893082079538
aF-1.6337018915010726
aa(lp848
F9.193072178948166
aF4.131991977213283
aF-1.6337018915010726
aa(lp849
F9.189928974671167
aF4.0820908723470275
aF-1.6337018915010726
aa(lp850
F9.186785770394168
aF4.032189767480772
aF-1.6337018915010726
aa(lp851
F9.18364256611717
aF3.982288662614516
aF-1.6337018915010726
aa(lp852
F9.180499361840171
aF3.9323875577482603
aF-1.6337018915010726
aa(lp853
F9.177356157563173
aF3.8824864528820044
aF-1.6337018915010726
aa(lp854
F9.174212953286174
aF3.8325853480157486
aF-1.6337018915010726
aa(lp855
F9.171069749009176
aF3.7826842431494927
aF-1.6337018915010726
aa(lp856
F9.167926544732177
aF3.732783138283237
aF-1.6337018915010726
aa(lp857
F9.164783340455179
aF3.682882033416981
aF-1.6337018915010726
aa(lp858
F9.16164013617818
aF3.632980928550725
aF-1.6337018915010726
aa(lp859
F9.158496931901182
aF3.583079823684469
aF-1.6337018915010726
aa(lp860
F9.155353727624183
aF3.5331787188182133
aF-1.6337018915010726
aa(lp861
F9.152210523347184
aF3.4832776139519575
aF-1.6337018915010726
aa(lp862
F9.149067319070186
aF3.4333765090857016
aF-1.6337018915010726
aa(lp863
F9.145924114793187
aF3.3834754042194457
aF-1.6337018915010726
aa(lp864
F9.142780910516189
aF3.33357429935319
aF-1.6337018915010726
aa(lp865
F9.13963770623919
aF3.283673194486934
aF-1.6337018915010726
aa(lp866
F9.136494501962192
aF3.233772089620678
aF-1.6337018915010726
aa(lp867
F9.133351297685193
aF3.183870984754422
aF-1.6337018915010726
aa(lp868
F9.130208093408195
aF3.1339698798881663
aF-1.6337018915010726
aa(lp869
F9.127064889131196
aF3.0840687750219105
aF-1.6337018915010726
aa(lp870
F9.124236005281897
aF3.0391577806422756
aF-1.6337018915010726
aa(lp871
F9.121721441860299
aF2.9992368967492617
aF-1.6337018915010726
aa(lp872
F9.1195211988664
aF2.964306123342869
aF-1.6337018915010726
aa(lp873
F9.1176352763002
aF2.93436546042312
aF-1.6337018915010726
aa(lp874
F9.116063674161701
aF2.9094149079899925
aF-1.6337018915010726
aa(lp875
F9.114806392450902
aF2.8894544660434858
aF-1.6337018915010726
aa(lp876
F9.113863431167802
aF2.8744841345836
aF-1.6337018915010726
aa(lp877
F9.113234790312402
aF2.8645039136103354
aF-1.6337018915010726
aa(lp878
F9.112920469884703
aF2.8595138031237144
aF-1.6337018915010726
aa(lp879
F9.112920469884703
aF2.8595138031237144
aF-1.6337018915010726
aa(lp880
F9.112920469884703
aF2.8595138031237144
aF-1.6337018915010726
aa(lp881
F9.112920469884703
aF2.8595138031237144
aF-1.6337018915010726
aa(lp882
F9.112920469884703
aF2.8595138031237144
aF-1.6337018915010726
aa(lp883
F9.112920469884703
aF2.8595138031237144
aF-1.6670352248345273
aa(lp884
F9.112920469884703
aF2.8595138031237144
aF-1.7337018915012854
aa(lp885
F9.112920469884703
aF2.8595138031237144
aF-1.7670352248347394
aa(lp886
F9.112920469884703
aF2.8595138031237144
aF-1.7670352248348917
aa(lp887
F9.112920469884703
aF2.8595138031237144
aF-1.7670352248348917
aa(lp888
F9.112920469884703
aF2.8595138031237144
aF-1.8003685581683453
aa(lp889
F9.112920469884703
aF2.8595138031237144
aF-1.8670352248351043
aa(lp890
F9.112920469884703
aF2.8595138031237144
aF-1.9455750411748491
aa(lp891
F9.112920469884703
aF2.8595138031237144
aF-2.024114857514594
aa(lp892
F9.112920469884703
aF2.8595138031237144
aF-2.102654673854339
aa(lp893
F9.112920469884703
aF2.8595138031237144
aF-2.181194490194083
aa(lp894
F9.11005450104209
aF2.855416703833592
aF-2.259734306533828
aa(lp895
F9.103697323596988
aF2.8476974878804455
aF-2.338274122873573
aa(lp896
F9.097871621825554
aF2.8416591554972235
aF-2.394210697710097
aa(lp897
F9.093551121476683
aF2.8376552692965453
aF-2.4334806058799696
aa(lp898
F9.090975738129405
aF2.8354500941425775
aF-2.4560838473831152
aa(lp899
F9.084480687587268
aF2.830138354544777
aF-2.4786870888862604
aa(lp900
F9.073926206603396
aF2.821897720314612
aF-2.5012903303894056
aa(lp901
F9.067197748371933
aF2.8168849257918707
aF-2.5238935718925504
aa(lp902
F9.064433779193987
aF2.814921288547246
aF-2.5464968133956956
aa(lp903
F9.063696372202788
aF2.814422092546592
aF-2.5524333882321133
aa(lp904
F9.058798974021924
aF2.811148971859788
aF-2.558369963068531
aa(lp905
F9.049708770139397
aF2.8051513987171837
aF-2.564306537904949
aa(lp906
F9.03639338739984
aF2.7964791363260693
aF-2.5702431127413665
aa(lp907
F9.018820896297658
aF2.785182235370533
aF-2.5761796875777843
aa(lp908
F9.005403487442907
aF2.7766686760617083
aF-2.582116262414202
aa(lp909
F8.99617343957989
aF2.7708886322320554
aF-2.5880528372506197
aa(lp910
F8.991162585741822
aF2.767791993443696
aF-2.5939894120870375
aa(lp911
F8.981864562745756
aF2.7621219441854525
aF-2.5999259869234552
aa(lp912
F8.968248790134027
aF2.7539293689696764
aF-2.605862561759873
aa(lp913
F8.950285141054911
aF2.743265423803939
aF-2.6117991365962907
aa(lp914
F8.9279439444031
aF2.7301815325954775
aF-2.6177357114327084
aa(lp915
F8.901195986933349
aF2.7147293835397592
aF-2.623672286269126
aa(lp916
F8.878701021652361
aF2.701911668688941
aF-2.629608861105544
aa(lp917
F8.860489231630932
aF2.6916772601104797
aF-2.6355454359419617
aa(lp918
F8.846590342266072
aF2.683974765261158
aF-2.6414820107783794
aa(lp919
F8.835621223371968
aF2.6779807323377733
aF-2.658148677445152
aa(lp920
F8.826767230280451
aF2.6733324201349298
aF-2.6914820107785764
aa(lp921
F8.82226523542529
aF2.671157094337692
aF-2.7248153441119247
aa(lp922
F8.819979239719686
aF2.670145054993602
aF-2.7414820107786215
aa(lp923
F8.81767669496462
aF2.669171254371844
aF-2.7914820107787732
aa(lp924
F8.815328358044825
aF2.6683137500213614
aF-2.870021827118518
aa(lp925
F8.814982020191765
aF2.668217312240351
aF-2.948561643458263
aa(lp926
F8.814982020191765
aF2.668217312240351
aF-3.0271014597980077
aa(lp927
F8.814982020191765
aF2.668217312240351
aF-3.1056412761377525
aa(lp928
F8.814982020191765
aF2.668217312240351
aF3.099004214702089
aa(lp929
F8.814982020191765
aF2.668217312240351
aF3.0537977316956475
aa(lp930
F8.814982020191765
aF2.668217312240351
aF3.0419245820225083
aa(lp931
F8.814982020191765
aF2.668217312240351
aF3.0419245820225083
aa(lp932
F8.814982020191765
aF2.668217312240351
aF3.0419245820225083
aa(lp933
F8.814982020191765
aF2.668217312240351
aF3.0419245820225083
aa(lp934
F8.814982020191765
aF2.668217312240351
aF3.0419245820225083
aa(lp935
F8.814982020191765
aF2.668217312240351
aF3.0419245820225083
aa(lp936
F8.814982020191765
aF2.668217312240351
aF3.0419245820225083
aa(lp937
F8.814982020191765
aF2.668217312240351
aF3.0419245820225083
aa(lp938
F8.814982020191765
aF2.668217312240351
aF3.0419245820225083
aa(lp939
F8.814982020191765
aF2.668217312240351
aF3.0419245820225083
aa(lp940
F8.814982020191765
aF2.668217312240351
aF3.0419245820225083
aa(lp941
F8.814982020191765
aF2.668217312240351
aF3.0419245820225083
aa(lp942
F8.814982020191765
aF2.668217312240351
aF3.0419245820225083
aa(lp943
F8.814982020191765
aF2.668217312240351
aF3.0419245820225083
aa(lp944
F8.814982020191765
aF2.668217312240351
aF3.0419245820225083
aa(lp945
F8.814982020191765
aF2.668217312240351
aF3.0419245820225083
aa(lp946
F8.814982020191765
aF2.668217312240351
aF3.0419245820225083
aa(lp947
F8.814982020191765
aF2.668217312240351
aF3.0419245820225083
aa(lp948
F8.814982020191765
aF2.668217312240351
aF3.0419245820225083
aa(lp949
F8.814982020191765
aF2.668217312240351
aF3.0419245820225083
aa(lp950
F8.814982020191765
aF2.668217312240351
aF3.0419245820225083
aa(lp951
F8.814982020191765
aF2.668217312240351
aF3.0419245820225083
aa(lp952
F8.814982020191765
aF2.668217312240351
aF3.0419245820225083
aa(lp953
F8.814982020191765
aF2.668217312240351
aF3.0419245820225083
aa(lp954
F8.814982020191765
aF2.668217312240351
aF3.0419245820225083
aa(lp955
F8.814982020191765
aF2.668217312240351
aF3.0419245820225083
aa(lp956
F8.814982020191765
aF2.668217312240351
aF3.0419245820225083
aa(lp957
F8.814982020191765
aF2.668217312240351
aF3.0419245820225083
aa(lp958
F8.814982020191765
aF2.668217312240351
aF3.0419245820225083
aa(lp959
F8.814982020191765
aF2.668217312240351
aF3.0419245820225083
aa(lp960
F8.814982020191765
aF2.668217312240351
aF3.0419245820225083
aa(lp961
F8.814982020191765
aF2.668217312240351
aF3.0419245820225083
aa(lp962
F8.814982020191765
aF2.668217312240351
aF3.0419245820225083
aa(lp963
F8.814982020191765
aF2.668217312240351
aF3.0419245820225083
aa(lp964
F8.814982020191765
aF2.668217312240351
aF3.0419245820225083
aa(lp965
F8.814982020191765
aF2.668217312240351
aF3.0419245820225083
aa(lp966
F8.814982020191765
aF2.668217312240351
aF3.0419245820225083
aa(lp967
F8.8100068339517
aF2.6687148279452515
aF3.0419245820225083
aa(lp968
F8.800056461471547
aF2.669709859355054
aF3.0419245820225083
aa(lp969
F8.795081275231459
aF2.6702073750599564
aF3.0419245820225083
aa(lp970
F8.795081275231436
aF2.6702073750599586
aF3.0419245820225083
aa(lp971
F8.795081275231436
aF2.6702073750599586
aF3.0419245820225083
aa(lp972
F8.79010608899137
aF2.670704890764859
aF3.0419245820225083
aa(lp973
F8.780155716511217
aF2.6716999221746613
aF3.0419245820225083
aa(lp974
F8.765230157790999
aF2.673192469289364
aF3.0419245820225083
aa(lp975
F8.745329412830715
aF2.675182532108967
aF3.0419245820225083
aa(lp976
F8.720453481630368
aF2.67767011063347
aF3.0419245820225083
aa(lp977
F8.690602364189957
aF2.680655204862873
aF3.0419245820225083
aa(lp978
F8.655776060509456
aF2.684137814797179
aF3.0419245820225083
aa(lp979
F8.615974570588891
aF2.6881179404363844
aF3.0419245820225083
aa(lp980
F8.571197894428261
aF2.6925955817804903
aF3.0419245820225083
aa(lp981
F8.521446032027566
aF2.6975707388294965
aF3.0419245820225083
aa(lp982
F8.47169416962687
aF2.7025458958785027
aF3.0419245820225083
aa(lp983
F8.421942307226175
aF2.707521052927509
aF3.0419245820225083
aa(lp984
F8.37219044482548
aF2.712496209976515
aF3.0419245820225083
aa(lp985
F8.322438582424784
aF2.7174713670255213
aF3.0419245820225083
aa(lp986
F8.272686720024089
aF2.7224465240745275
aF3.0419245820225083
aa(lp987
F8.222934857623393
aF2.7274216811235337
aF3.0419245820225083
aa(lp988
F8.173182995222698
aF2.73239683817254
aF3.0419245820225083
aa(lp989
F8.123431132822002
aF2.737371995221546
aF3.0419245820225083
aa(lp990
F8.073679270421307
aF2.7423471522705523
aF3.0419245820225083
aa(lp991
F8.023927408020612
aF2.7473223093195585
aF3.0419245820225083
aa(lp992
F7.974175545619916
aF2.7522974663685646
aF3.0419245820225083
aa(lp993
F7.924423683219221
aF2.757272623417571
aF3.0419245820225083
aa(lp994
F7.874671820818525
aF2.762247780466577
aF3.0419245820225083
aa(lp995
F7.82491995841783
aF2.7672229375155832
aF3.0419245820225083
aa(lp996
F7.7751680960171345
aF2.7721980945645894
aF3.0419245820225083
aa(lp997
F7.725416233616439
aF2.7771732516135956
aF3.0419245820225083
aa(lp998
F7.675664371215744
aF2.782148408662602
aF3.0419245820225083
aa(lp999
F7.625912508815048
aF2.787123565711608
aF3.0419245820225083
aa(lp1000
F7.576160646414353
aF2.792098722760614
aF3.0419245820225083
aa(lp1001
F7.5264087840136575
aF2.7970738798096204
aF3.0419245820225083
aa(lp1002
F7.476656921612962
aF2.8020490368586266
aF3.0419245820225083
aa(lp1003
F7.426905059212267
aF2.807024193907633
aF3.0419245820225083
aa(lp1004
F7.377153196811571
aF2.811999350956639
aF3.0419245820225083
aa(lp1005
F7.327401334410876
aF2.816974508005645
aF3.0419245820225083
aa(lp1006
F7.2776494720101805
aF2.8219496650546514
aF3.0419245820225083
aa(lp1007
F7.227897609609485
aF2.8269248221036576
aF3.0419245820225083
aa(lp1008
F7.17814574720879
aF2.831899979152664
aF3.0419245820225083
aa(lp1009
F7.128393884808094
aF2.83687513620167
aF3.0419245820225083
aa(lp1010
F7.078642022407399
aF2.841850293250676
aF3.0419245820225083
aa(lp1011
F7.0288901600067035
aF2.8468254502996824
aF3.0419245820225083
aa(lp1012
F6.979138297606008
aF2.8518006073486886
aF3.0419245820225083
aa(lp1013
F6.929386435205313
aF2.8567757643976948
aF3.0419245820225083
aa(lp1014
F6.879634572804617
aF2.861750921446701
aF3.0419245820225083
aa(lp1015
F6.829882710403922
aF2.866726078495707
aF3.0419245820225083
aa(lp1016
F6.7801308480032265
aF2.8717012355447133
aF3.0419245820225083
aa(lp1017
F6.730378985602531
aF2.8766763925937195
aF3.0419245820225083
aa(lp1018
F6.680627123201836
aF2.8816515496427257
aF3.0419245820225083
aa(lp1019
F6.63087526080114
aF2.886626706691732
aF3.0419245820225083
aa(lp1020
F6.581123398400445
aF2.891601863740738
aF3.0419245820225083
aa(lp1021
F6.5313715359997495
aF2.8965770207897443
aF3.0419245820225083
aa(lp1022
F6.481619673599054
aF2.9015521778387505
aF3.0419245820225083
aa(lp1023
F6.431867811198359
aF2.9065273348877567
aF3.0419245820225083
aa(lp1024
F6.382115948797663
aF2.911502491936763
aF3.0419245820225083
aa(lp1025
F6.332364086396968
aF2.916477648985769
aF3.0419245820225083
aa(lp1026
F6.2826122239962725
aF2.9214528060347753
aF3.0419245820225083
aa(lp1027
F6.232860361595577
aF2.9264279630837815
aF3.0419245820225083
aa(lp1028
F6.183108499194882
aF2.9314031201327877
aF3.0419245820225083
aa(lp1029
F6.133356636794186
aF2.936378277181794
aF3.0419245820225083
aa(lp1030
F6.083604774393491
aF2.9413534342308
aF3.0419245820225083
aa(lp1031
F6.0338529119927955
aF2.9463285912798063
aF3.0419245820225083
aa(lp1032
F5.9841010495921
aF2.9513037483288125
aF3.0419245820225083
aa(lp1033
F5.934349187191405
aF2.9562789053778187
aF3.0419245820225083
aa(lp1034
F5.884597324790709
aF2.961254062426825
aF3.0419245820225083
aa(lp1035
F5.834845462390014
aF2.966229219475831
aF3.0419245820225083
aa(lp1036
F5.7850935999893185
aF2.9712043765248373
aF3.0419245820225083
aa(lp1037
F5.735341737588623
aF2.9761795335738435
aF3.0419245820225083
aa(lp1038
F5.685589875187928
aF2.9811546906228497
aF3.0419245820225083
aa(lp1039
F5.635838012787232
aF2.986129847671856
aF3.0419245820225083
aa(lp1040
F5.591061336626602
aF2.9906074890159617
aF3.0419245820225083
aa(lp1041
F5.551259846706037
aF2.9945876146551673
aF3.0419245820225083
aa(lp1042
F5.516433543025537
aF2.998070224589473
aF3.0419245820225083
aa(lp1043
F5.486582425585124
aF3.001055318818876
aF3.0419245820225083
aa(lp1044
F5.461706494384776
aF3.003542897343379
aF3.0419245820225083
aa(lp1045
F5.441805749424494
aF3.005532960162982
aF3.0419245820225083
aa(lp1046
F5.426880190704276
aF3.007025507277685
aF3.0419245820225083
aa(lp1047
F5.416929818224124
aF3.008020538687487
aF3.0419245820225083
aa(lp1048
F5.411954631984059
aF3.0085180543923875
aF3.0419245820225083
aa(lp1049
F5.411954631984059
aF3.0085180543923875
aF3.0419245820225083
aa(lp1050
F5.411954631984059
aF3.0085180543923875
aF3.0419245820225083
aa(lp1051
F5.411954631984059
aF3.0085180543923875
aF3.0419245820225083
aa(lp1052
F5.411954631984059
aF3.0085180543923875
aF3.0419245820225083
aa(lp1053
F5.411954631984059
aF3.0085180543923875
aF3.0419245820225083
aa(lp1054
F5.411954631984059
aF3.0085180543923875
aF3.0419245820225083
aa(lp1055
F5.411954631984059
aF3.0085180543923875
aF3.0419245820225083
aa(lp1056
F5.411954631984059
aF3.0085180543923875
aF3.0419245820225083
aa(lp1057
F5.411954631984059
aF3.0085180543923875
aF3.0419245820225083
aa(lp1058
F5.411954631984059
aF3.0085180543923875
aF3.0419245820225083
aa(lp1059
F5.411954631984059
aF3.0085180543923875
aF3.0419245820225083
aa(lp1060
F5.411954631984059
aF3.0085180543923875
aF3.0419245820225083
aa(lp1061
F5.411954631984059
aF3.0085180543923875
aF3.0419245820225083
aa(lp1062
F5.411954631984059
aF3.0085180543923875
aF3.0419245820225083
aa(lp1063
F5.406979445743971
aF3.00901557009729
aF3.0419245820225083
aa(lp1064
F5.397029073263819
aF3.0100106015070924
aF3.0419245820225083
aa(lp1065
F5.392053887023732
aF3.010508117211995
aF3.0419245820225083
aa(lp1066
F5.392053887023709
aF3.010508117211997
aF3.0419245820225083
aa(lp1067
F5.392053887023709
aF3.010508117211997
aF3.0419245820225083
aa(lp1068
F5.387078700783622
aF3.0110056329168997
aF3.0419245820225083
aa(lp1069
F5.37712832830347
aF3.012000664326702
aF3.0419245820225083
aa(lp1070
F5.362202769583252
aF3.013493211441405
aF3.0419245820225083
aa(lp1071
F5.3423020246229695
aF3.015483274261008
aF3.0419245820225083
aa(lp1072
F5.317426093422622
aF3.0179708527855107
aF3.0419245820225083
aa(lp1073
F5.287574975982187
aF3.020955947014916
aF3.0419245820225083
aa(lp1074
F5.252748672301687
aF3.024438556949222
aF3.0419245820225083
aa(lp1075
F5.2129471823811215
aF3.0284186825884274
aF3.0419245820225083
aa(lp1076
F5.168170506220491
aF3.0328963239325333
aF3.0419245820225083
aa(lp1077
F5.118418643819796
aF3.0378714809815395
aF3.0419245820225083
aa(lp1078
F5.0686667814191
aF3.0428466380305457
aF3.0419245820225083
aa(lp1079
F5.018914919018405
aF3.047821795079552
aF3.0419245820225083
aa(lp1080
F4.96916305661771
aF3.052796952128558
aF3.0419245820225083
aa(lp1081
F4.919411194217014
aF3.0577721091775643
aF3.0419245820225083
aa(lp1082
F4.869659331816319
aF3.0627472662265705
aF3.0419245820225083
aa(lp1083
F4.819907469415623
aF3.0677224232755766
aF3.0419245820225083
aa(lp1084
F4.770155607014928
aF3.072697580324583
aF3.0419245820225083
aa(lp1085
F4.720403744614233
aF3.077672737373589
aF3.0419245820225083
aa(lp1086
F4.670651882213537
aF3.0826478944225952
aF3.0419245820225083
aa(lp1087
F4.620900019812842
aF3.0876230514716014
aF3.0419245820225083
aa(lp1088
F4.571148157412146
aF3.0925982085206076
aF3.0419245820225083
aa(lp1089
F4.521396295011451
aF3.097573365569614
aF3.0419245820225083
aa(lp1090
F4.471644432610756
aF3.10254852261862
aF3.0419245820225083
aa(lp1091
F4.42189257021006
aF3.107523679667626
aF3.0419245820225083
aa(lp1092
F4.372140707809365
aF3.1124988367166324
aF3.0419245820225083
aa(lp1093
F4.322388845408669
aF3.1174739937656386
aF3.0419245820225083
aa(lp1094
F4.272636983007974
aF3.122449150814645
aF3.0419245820225083
aa(lp1095
F4.222885120607279
aF3.127424307863651
aF3.0419245820225083
aa(lp1096
F4.178108444446648
aF3.131901949207757
aF3.0419245820225083
aa(lp1097
F4.138306954526083
aF3.1358820748469625
aF3.0419245820225083
aa(lp1098
F4.103480650845605
aF3.139364684781266
aF3.0419245820225083
aa(lp1099
F4.073629533405192
aF3.142349779010669
aF3.0419245820225083
aa(lp1100
F4.048753602204845
aF3.144837357535172
aF3.0419245820225083
aa(lp1101
F4.028852857244562
aF3.146827420354775
aF3.0419245820225083
aa(lp1102
F4.013927298524345
aF3.1483199674694777
aF3.0419245820225083
aa(lp1103
F4.001489332924176
aF3.149563756731729
aF3.058591248689205
aa(lp1104
F3.991523759319157
aF3.150392818082236
aF3.0919245820225534
aa(lp1105
F3.9840330083575375
aF3.1507651754790973
aF-3.141260725157033
aa(lp1106
F3.9790330086329764
aF3.150763515836964
aF-3.1079273918236847
aa(lp1107
F3.9765344251864887
aF3.1506793685793637
aF-3.091260725156988
aa(lp1108
F3.9765344251864887
aF3.1506793685793637
aF-3.091260725156988
aa(lp1109
F3.9765344251864887
aF3.1506793685793637
aF-3.091260725156988
aa(lp1110
F3.9765344251864887
aF3.1506793685793637
aF-3.091260725156988
aa(lp1111
F3.9765344251864887
aF3.1506793685793637
aF-3.091260725156988
aa(lp1112
F3.9765344251864887
aF3.1506793685793637
aF-3.091260725156988
aa(lp1113
F3.9765344251864887
aF3.1506793685793637
aF-3.091260725156988
aa(lp1114
F3.9765344251864887
aF3.1506793685793637
aF-3.091260725156988
aa(lp1115
F3.9765344251864887
aF3.1506793685793637
aF-3.091260725156988
aa(lp1116
F3.9765344251864887
aF3.1506793685793637
aF-3.091260725156988
aa(lp1117
F3.9765344251864887
aF3.1506793685793637
aF-3.091260725156988
aa(lp1118
F3.9765344251864887
aF3.1506793685793637
aF-3.091260725156988
aa(lp1119
F3.9765344251864887
aF3.1506793685793637
aF-3.091260725156988
aa(lp1120
F3.9765344251864887
aF3.1506793685793637
aF-3.091260725156988
aa(lp1121
F3.9765344251864887
aF3.1506793685793637
aF-3.091260725156988
aa(lp1122
F3.9765344251864887
aF3.1506793685793637
aF-3.091260725156988
aa(lp1123
F3.9765344251864887
aF3.1506793685793637
aF-3.091260725156988
aa(lp1124
F3.9765344251864887
aF3.1506793685793637
aF-3.091260725156988
aa(lp1125
F3.9765344251864887
aF3.1506793685793637
aF-3.091260725156988
aa(lp1126
F3.9765344251864887
aF3.1506793685793637
aF-3.091260725156988
aa(lp1127
F3.9765344251864887
aF3.1506793685793637
aF-3.091260725156988
aa(lp1128
F3.9765344251864887
aF3.1506793685793637
aF-3.091260725156988
aa(lp1129
F3.9765344251864887
aF3.1506793685793637
aF-3.091260725156988
aa(lp1130
F3.9765344251864887
aF3.1506793685793637
aF-3.091260725156988
aa(lp1131
F3.9765344251864887
aF3.1506793685793637
aF-3.091260725156988
aa(lp1132
F3.9765344251864887
aF3.1506793685793637
aF-3.091260725156988
aa(lp1133
F3.9765344251864887
aF3.1506793685793637
aF-3.091260725156988
aa(lp1134
F3.9765344251864887
aF3.1506793685793637
aF-3.091260725156988
aa(lp1135
F3.9765344251864887
aF3.1506793685793637
aF-3.091260725156988
aa(lp1136
F3.9765344251864887
aF3.1506793685793637
aF-3.091260725156988
aa(lp1137
F3.9765344251864887
aF3.1506793685793637
aF-3.091260725156988
aa(lp1138
F3.9765344251864887
aF3.1506793685793637
aF-3.091260725156988
aa(lp1139
F3.9765344251864887
aF3.1506793685793637
aF-3.091260725156988
aa(lp1140
F3.9765344251864887
aF3.1506793685793637
aF-3.091260725156988
aa(lp1141
F3.9765344251864887
aF3.1506793685793637
aF-3.091260725156988
aa(lp1142
F3.9765344251864887
aF3.1506793685793637
aF-3.091260725156988
aa(lp1143
F3.9765344251864887
aF3.1506793685793637
aF-3.091260725156988
aa(lp1144
F3.9765344251864887
aF3.1506793685793637
aF-3.091260725156988
aa(lp1145
F3.9765344251864887
aF3.1506793685793637
aF-3.091260725156988
aa(lp1146
F3.9765344251864887
aF3.1506793685793637
aF-3.091260725156988
aa(lp1147
F3.9765344251864887
aF3.1506793685793637
aF-3.091260725156988
aa(lp1148
F3.9765344251864887
aF3.1506793685793637
aF-3.091260725156988
aa(lp1149
F3.9765344251864887
aF3.1506793685793637
aF-3.091260725156988
aa(lp1150
F3.9765344251864887
aF3.1506793685793637
aF-3.091260725156988
aa(lp1151
F3.9765344251864887
aF3.1506793685793637
aF-3.091260725156988
aa(lp1152
F3.9765344251864887
aF3.1506793685793637
aF-3.091260725156988
aa(lp1153
F3.9765344251864887
aF3.1506793685793637
aF-3.091260725156988
aa(lp1154
F3.9765344251864887
aF3.1506793685793637
aF-3.091260725156988
aa(lp1155
F3.9765344251864887
aF3.1506793685793637
aF-3.091260725156988
aa(lp1156
F3.9765344251864887
aF3.1506793685793637
aF-3.091260725156988
aa(lp1157
F3.9765344251864887
aF3.1506793685793637
aF-3.091260725156988
aa(lp1158
F3.9765344251864887
aF3.1506793685793637
aF-3.091260725156988
aa(lp1159
F3.9765344251864887
aF3.1506793685793637
aF-3.091260725156988
aa(lp1160
F3.9765344251864887
aF3.1506793685793637
aF-3.091260725156988
aa(lp1161
F3.9765344251864887
aF3.1506793685793637
aF-3.091260725156988
aa(lp1162
F3.9765344251864887
aF3.1506793685793637
aF-3.091260725156988
aa(lp1163
F3.9765344251864887
aF3.1506793685793637
aF-3.091260725156988
aa(lp1164
F3.9765344251864887
aF3.1506793685793637
aF-3.091260725156988
aa(lp1165
F3.9765344251864887
aF3.1506793685793637
aF-3.091260725156988
aa(lp1166
F3.9765344251864887
aF3.1506793685793637
aF-3.091260725156988
aa(lp1167
F3.9765344251864887
aF3.1506793685793637
aF-3.091260725156988
aa(lp1168
F3.9765344251864887
aF3.1506793685793637
aF-3.091260725156988
aa(lp1169
F3.9765344251864887
aF3.1506793685793637
aF-3.091260725156988
aa(lp1170
F3.9765344251864887
aF3.1506793685793637
aF-3.091260725156988
aa(lp1171
F3.9765344251864887
aF3.1506793685793637
aF-3.091260725156988
aa(lp1172
F3.9765344251864887
aF3.1506793685793637
aF-3.091260725156988
aa(lp1173
F3.9765344251864887
aF3.1506793685793637
aF-3.091260725156988
aa(lp1174
F3.9765344251864887
aF3.1506793685793637
aF-3.091260725156988
aa(lp1175
F3.9765344251864887
aF3.1506793685793637
aF-3.091260725156988
aa(lp1176
F3.9765344251864887
aF3.1506793685793637
aF-3.091260725156988
aa(lp1177
F3.9765344251864887
aF3.1506793685793637
aF-3.091260725156988
aa(lp1178
F3.9765344251864887
aF3.1506793685793637
aF-3.091260725156988
aa(lp1179
F3.9765344251864887
aF3.1506793685793637
aF-3.091260725156988
aa(lp1180
F3.9765344251864887
aF3.1506793685793637
aF-3.091260725156988
aa(lp1181
F3.9765344251864887
aF3.1506793685793637
aF-3.091260725156988
aa(lp1182
F3.9765344251864887
aF3.1506793685793637
aF-3.091260725156988
aa(lp1183
F3.9765344251864887
aF3.1506793685793637
aF-3.091260725156988
aa(lp1184
F3.9765344251864887
aF3.1506793685793637
aF-3.091260725156988
aa.